
target/release/libfalcon_rust.rlib(lib.rmeta):	file format mach-o arm64

target/release/libfalcon_rust.rlib(falcon_rust-e8844e7451c83e3e.falcon_rust.14659d6c29c50ba4-cgu.00.rcgu.o):	file format mach-o arm64

Disassembly of section __TEXT,__text:

0000000000000000 <ltmp0>:
       0: a9402448     	ldp	x8, x9, [x2]
       4: eb01001f     	cmp	x0, x1
       8: 54000520     	b.eq	0xac <ltmp0+0xac>
       c: f940084b     	ldr	x11, [x2, #16]
      10: cb00002c     	sub	x12, x1, x0
      14: d344fd8a     	lsr	x10, x12, #4
      18: f105019f     	cmp	x12, #320
      1c: 540002a3     	b.lo	0x70 <ltmp0+0x70>
      20: d100054d     	sub	x13, x10, #1
      24: d37ced2e     	lsl	x14, x9, #4
      28: d37cedaf     	lsl	x15, x13, #4
      2c: 8b0e0170     	add	x16, x11, x14
      30: 8b0f0211     	add	x17, x16, x15
      34: 91002201     	add	x1, x16, #8
      38: 8b0f002f     	add	x15, x1, x15
      3c: eb10023f     	cmp	x17, x16
      40: fa4121e0     	ccmp	x15, x1, #0, hs
      44: d37cfdad     	lsr	x13, x13, #60
      48: fa4029a0     	ccmp	x13, #0, #0, hs
      4c: 54000121     	b.ne	0x70 <ltmp0+0x70>
      50: 8b09116d     	add	x13, x11, x9, lsl #4
      54: 927ced8c     	and	x12, x12, #0xfffffffffffffff0
      58: 8b0c000f     	add	x15, x0, x12
      5c: eb0f01bf     	cmp	x13, x15
      60: 540002a2     	b.hs	0xb4 <ltmp0+0xb4>
      64: 8b0c01ac     	add	x12, x13, x12
      68: eb00019f     	cmp	x12, x0
      6c: 54000249     	b.ls	0xb4 <ltmp0+0xb4>
      70: d280000c     	mov	x12, #0
      74: 8b0c100d     	add	x13, x0, x12, lsl #4
      78: 8b09116e     	add	x14, x11, x9, lsl #4
      7c: 910021ab     	add	x11, x13, #8
      80: 910021cd     	add	x13, x14, #8
      84: cb0c014e     	sub	x14, x10, x12
      88: 8b0a0129     	add	x9, x9, x10
      8c: cb0c0129     	sub	x9, x9, x12
      90: 6d7f8560     	ldp	d0, d1, [x11, #-8]
      94: 1e614021     	fneg	d1, d1
      98: 6d3f85a0     	stp	d0, d1, [x13, #-8]
      9c: 9100416b     	add	x11, x11, #16
      a0: 910041ad     	add	x13, x13, #16
      a4: f10005ce     	subs	x14, x14, #1
      a8: 54ffff41     	b.ne	0x90 <ltmp0+0x90>
      ac: f9000109     	str	x9, [x8]
      b0: d65f03c0     	ret
      b4: 927ee54c     	and	x12, x10, #0xffffffffffffffc
      b8: 8b0c0129     	add	x9, x9, x12
      bc: 9100800d     	add	x13, x0, #32
      c0: 8b0b01ce     	add	x14, x14, x11
      c4: 910081ce     	add	x14, x14, #32
      c8: aa0c03ef     	mov	x15, x12
      cc: d10081b0     	sub	x16, x13, #32
      d0: 4c408e00     	ld2.2d	{ v0, v1 }, [x16]
      d4: 4c408da2     	ld2.2d	{ v2, v3 }, [x13]
      d8: 6ee0f821     	fneg.2d	v1, v1
      dc: d10081d0     	sub	x16, x14, #32
      e0: 4c008e00     	st2.2d	{ v0, v1 }, [x16]
      e4: 6ee0f863     	fneg.2d	v3, v3
      e8: 4c008dc2     	st2.2d	{ v2, v3 }, [x14]
      ec: 910101ad     	add	x13, x13, #64
      f0: 910101ce     	add	x14, x14, #64
      f4: f10011ef     	subs	x15, x15, #4
      f8: 54fffea1     	b.ne	0xcc <ltmp0+0xcc>
      fc: eb0c015f     	cmp	x10, x12
     100: 54fffd60     	b.eq	0xac <ltmp0+0xac>
     104: 17ffffdc     	b	0x74 <ltmp0+0x74>

0000000000000108 <__ZN102_$LT$core..iter..adapters..map..Map$LT$I$C$F$GT$$u20$as$u20$core..iter..traits..iterator..Iterator$GT$4fold17h01e7fca75902c6c9E>:
     108: d10283ff     	sub	sp, sp, #160
     10c: a9046ffc     	stp	x28, x27, [sp, #64]
     110: a90567fa     	stp	x26, x25, [sp, #80]
     114: a9065ff8     	stp	x24, x23, [sp, #96]
     118: a90757f6     	stp	x22, x21, [sp, #112]
     11c: a9084ff4     	stp	x20, x19, [sp, #128]
     120: a9097bfd     	stp	x29, x30, [sp, #144]
     124: 910243fd     	add	x29, sp, #144
     128: a9405454     	ldp	x20, x21, [x2]
     12c: eb01001f     	cmp	x0, x1
     130: 54000780     	b.eq	0x220 <__ZN102_$LT$core..iter..adapters..map..Map$LT$I$C$F$GT$$u20$as$u20$core..iter..traits..iterator..Iterator$GT$4fold17h01e7fca75902c6c9E+0x118>
     134: aa0003f3     	mov	x19, x0
     138: f9400848     	ldr	x8, [x2, #16]
     13c: cb000029     	sub	x9, x1, x0
     140: d344fd37     	lsr	x23, x9, #4
     144: 910083e9     	add	x9, sp, #32
     148: 91002136     	add	x22, x9, #8
     14c: 8b151508     	add	x8, x8, x21, lsl #5
     150: 91006518     	add	x24, x8, #25
     154: 90000019     	adrp	x25, 0x0 <__ZN102_$LT$core..iter..adapters..map..Map$LT$I$C$F$GT$$u20$as$u20$core..iter..traits..iterator..Iterator$GT$4fold17h01e7fca75902c6c9E+0x4c>
     158: 91000339     	add	x25, x25, #0
     15c: 9000001a     	adrp	x26, 0x0 <__ZN102_$LT$core..iter..adapters..map..Map$LT$I$C$F$GT$$u20$as$u20$core..iter..traits..iterator..Iterator$GT$4fold17h01e7fca75902c6c9E+0x54>
     160: 9100035a     	add	x26, x26, #0
     164: 5280003b     	mov	w27, #1
     168: 14000011     	b	0x1ac <__ZN102_$LT$core..iter..adapters..map..Map$LT$I$C$F$GT$$u20$as$u20$core..iter..traits..iterator..Iterator$GT$4fold17h01e7fca75902c6c9E+0xa4>
     16c: f9000bff     	str	xzr, [sp, #16]
     170: 3dc00320     	ldr	q0, [x25]
     174: 3d8003e0     	str	q0, [sp]
     178: 52800028     	mov	w8, #1
     17c: 3dc003e0     	ldr	q0, [sp]
     180: 3c9e7300     	stur	q0, [x24, #-25]
     184: f9400be9     	ldr	x9, [sp, #16]
     188: f81f7309     	stur	x9, [x24, #-9]
     18c: 381ff308     	sturb	w8, [x24, #-1]
     190: b900031f     	str	wzr, [x24]
     194: b800331f     	stur	wzr, [x24, #3]
     198: 910006b5     	add	x21, x21, #1
     19c: 91008318     	add	x24, x24, #32
     1a0: 91004273     	add	x19, x19, #16
     1a4: f10006f7     	subs	x23, x23, #1
     1a8: 540003c0     	b.eq	0x220 <__ZN102_$LT$core..iter..adapters..map..Map$LT$I$C$F$GT$$u20$as$u20$core..iter..traits..iterator..Iterator$GT$4fold17h01e7fca75902c6c9E+0x118>
     1ac: fd400260     	ldr	d0, [x19]
     1b0: 9e64001c     	fcvtas	x28, d0
     1b4: b7f801dc     	tbnz	x28, #63, 0x1ec <__ZN102_$LT$core..iter..adapters..map..Map$LT$I$C$F$GT$$u20$as$u20$core..iter..traits..iterator..Iterator$GT$4fold17h01e7fca75902c6c9E+0xe4>
     1b8: b4fffdbc     	cbz	x28, 0x16c <__ZN102_$LT$core..iter..adapters..map..Map$LT$I$C$F$GT$$u20$as$u20$core..iter..traits..iterator..Iterator$GT$4fold17h01e7fca75902c6c9E+0x64>
     1bc: f9001bff     	str	xzr, [sp, #48]
     1c0: 3dc00340     	ldr	q0, [x26]
     1c4: 3d800be0     	str	q0, [sp, #32]
     1c8: 910083e0     	add	x0, sp, #32
     1cc: 94000000     	bl	0x1cc <__ZN102_$LT$core..iter..adapters..map..Map$LT$I$C$F$GT$$u20$as$u20$core..iter..traits..iterator..Iterator$GT$4fold17h01e7fca75902c6c9E+0xc4>
     1d0: f94017e8     	ldr	x8, [sp, #40]
     1d4: f900011c     	str	x28, [x8]
     1d8: f9000bfb     	str	x27, [sp, #16]
     1dc: 3dc00be0     	ldr	q0, [sp, #32]
     1e0: 3d8003e0     	str	q0, [sp]
     1e4: 52800048     	mov	w8, #2
     1e8: 17ffffe5     	b	0x17c <__ZN102_$LT$core..iter..adapters..map..Map$LT$I$C$F$GT$$u20$as$u20$core..iter..traits..iterator..Iterator$GT$4fold17h01e7fca75902c6c9E+0x74>
     1ec: f9001bff     	str	xzr, [sp, #48]
     1f0: 3dc00340     	ldr	q0, [x26]
     1f4: 3d800be0     	str	q0, [sp, #32]
     1f8: 910083e0     	add	x0, sp, #32
     1fc: 94000000     	bl	0x1fc <__ZN102_$LT$core..iter..adapters..map..Map$LT$I$C$F$GT$$u20$as$u20$core..iter..traits..iterator..Iterator$GT$4fold17h01e7fca75902c6c9E+0xf4>
     200: 52800008     	mov	w8, #0
     204: cb1c03e9     	neg	x9, x28
     208: f94017ea     	ldr	x10, [sp, #40]
     20c: f9000149     	str	x9, [x10]
     210: f9000bfb     	str	x27, [sp, #16]
     214: 3dc00be0     	ldr	q0, [sp, #32]
     218: 3d8003e0     	str	q0, [sp]
     21c: 17ffffd8     	b	0x17c <__ZN102_$LT$core..iter..adapters..map..Map$LT$I$C$F$GT$$u20$as$u20$core..iter..traits..iterator..Iterator$GT$4fold17h01e7fca75902c6c9E+0x74>
     220: f9000295     	str	x21, [x20]
     224: a9497bfd     	ldp	x29, x30, [sp, #144]
     228: a9484ff4     	ldp	x20, x19, [sp, #128]
     22c: a94757f6     	ldp	x22, x21, [sp, #112]
     230: a9465ff8     	ldp	x24, x23, [sp, #96]
     234: a94567fa     	ldp	x26, x25, [sp, #80]
     238: a9446ffc     	ldp	x28, x27, [sp, #64]
     23c: 910283ff     	add	sp, sp, #160
     240: d65f03c0     	ret
     244: 14000001     	b	0x248 <__ZN102_$LT$core..iter..adapters..map..Map$LT$I$C$F$GT$$u20$as$u20$core..iter..traits..iterator..Iterator$GT$4fold17h01e7fca75902c6c9E+0x140>
     248: aa0003f3     	mov	x19, x0
     24c: f94013e8     	ldr	x8, [sp, #32]
     250: b40000a8     	cbz	x8, 0x264 <__ZN102_$LT$core..iter..adapters..map..Map$LT$I$C$F$GT$$u20$as$u20$core..iter..traits..iterator..Iterator$GT$4fold17h01e7fca75902c6c9E+0x15c>
     254: f94002c0     	ldr	x0, [x22]
     258: d37df101     	lsl	x1, x8, #3
     25c: 52800102     	mov	w2, #8
     260: 94000000     	bl	0x260 <__ZN102_$LT$core..iter..adapters..map..Map$LT$I$C$F$GT$$u20$as$u20$core..iter..traits..iterator..Iterator$GT$4fold17h01e7fca75902c6c9E+0x158>
     264: f9000295     	str	x21, [x20]
     268: aa1303e0     	mov	x0, x19
     26c: 94000000     	bl	0x26c <__ZN102_$LT$core..iter..adapters..map..Map$LT$I$C$F$GT$$u20$as$u20$core..iter..traits..iterator..Iterator$GT$4fold17h01e7fca75902c6c9E+0x164>

0000000000000270 <__ZN102_$LT$core..iter..adapters..map..Map$LT$I$C$F$GT$$u20$as$u20$core..iter..traits..iterator..Iterator$GT$4fold17h61eb760f28636c43E>:
     270: eb01001f     	cmp	x0, x1
     274: 54000460     	b.eq	0x300 <__ZN102_$LT$core..iter..adapters..map..Map$LT$I$C$F$GT$$u20$as$u20$core..iter..traits..iterator..Iterator$GT$4fold17h61eb760f28636c43E+0x90>
     278: cb000029     	sub	x9, x1, x0
     27c: d341fd28     	lsr	x8, x9, #1
     280: f100213f     	cmp	x9, #8
     284: 54000062     	b.hs	0x290 <__ZN102_$LT$core..iter..adapters..map..Map$LT$I$C$F$GT$$u20$as$u20$core..iter..traits..iterator..Iterator$GT$4fold17h61eb760f28636c43E+0x20>
     288: d2800009     	mov	x9, #0
     28c: 14000017     	b	0x2e8 <__ZN102_$LT$core..iter..adapters..map..Map$LT$I$C$F$GT$$u20$as$u20$core..iter..traits..iterator..Iterator$GT$4fold17h61eb760f28636c43E+0x78>
     290: d280000a     	mov	x10, #0
     294: d280000b     	mov	x11, #0
     298: d280000c     	mov	x12, #0
     29c: 927ef109     	and	x9, x8, #0x7ffffffffffffffc
     2a0: 9100100d     	add	x13, x0, #4
     2a4: aa0903ee     	mov	x14, x9
     2a8: 789fc1af     	ldursh	x15, [x13, #-4]
     2ac: 789fe1b0     	ldursh	x16, [x13, #-2]
     2b0: 798001b1     	ldrsh	x17, [x13]
     2b4: 798005a1     	ldrsh	x1, [x13, #2]
     2b8: 9b2f09e2     	smaddl	x2, w15, w15, x2
     2bc: 9b302a0a     	smaddl	x10, w16, w16, x10
     2c0: 9b312e2b     	smaddl	x11, w17, w17, x11
     2c4: 9b21302c     	smaddl	x12, w1, w1, x12
     2c8: 910021ad     	add	x13, x13, #8
     2cc: f10011ce     	subs	x14, x14, #4
     2d0: 54fffec1     	b.ne	0x2a8 <__ZN102_$LT$core..iter..adapters..map..Map$LT$I$C$F$GT$$u20$as$u20$core..iter..traits..iterator..Iterator$GT$4fold17h61eb760f28636c43E+0x38>
     2d4: 8b02014a     	add	x10, x10, x2
     2d8: 8b0b018b     	add	x11, x12, x11
     2dc: 8b0a0162     	add	x2, x11, x10
     2e0: eb09011f     	cmp	x8, x9
     2e4: 540000e0     	b.eq	0x300 <__ZN102_$LT$core..iter..adapters..map..Map$LT$I$C$F$GT$$u20$as$u20$core..iter..traits..iterator..Iterator$GT$4fold17h61eb760f28636c43E+0x90>
     2e8: cb090108     	sub	x8, x8, x9
     2ec: 8b090409     	add	x9, x0, x9, lsl #1
     2f0: 7880252a     	ldrsh	x10, [x9], #2
     2f4: 9b2a0942     	smaddl	x2, w10, w10, x2
     2f8: f1000508     	subs	x8, x8, #1
     2fc: 54ffffa1     	b.ne	0x2f0 <__ZN102_$LT$core..iter..adapters..map..Map$LT$I$C$F$GT$$u20$as$u20$core..iter..traits..iterator..Iterator$GT$4fold17h61eb760f28636c43E+0x80>
     300: aa0203e0     	mov	x0, x2
     304: d65f03c0     	ret

0000000000000308 <__ZN102_$LT$core..iter..adapters..map..Map$LT$I$C$F$GT$$u20$as$u20$core..iter..traits..iterator..Iterator$GT$4fold17he6d96b560240a4a7E>:
     308: a9402448     	ldp	x8, x9, [x2]
     30c: eb01001f     	cmp	x0, x1
     310: 540004c0     	b.eq	0x3a8 <__ZN102_$LT$core..iter..adapters..map..Map$LT$I$C$F$GT$$u20$as$u20$core..iter..traits..iterator..Iterator$GT$4fold17he6d96b560240a4a7E+0xa0>
     314: f940084b     	ldr	x11, [x2, #16]
     318: cb00002d     	sub	x13, x1, x0
     31c: d341fdaa     	lsr	x10, x13, #1
     320: f100c1bf     	cmp	x13, #48
     324: 54000283     	b.lo	0x374 <__ZN102_$LT$core..iter..adapters..map..Map$LT$I$C$F$GT$$u20$as$u20$core..iter..traits..iterator..Iterator$GT$4fold17he6d96b560240a4a7E+0x6c>
     328: d100054e     	sub	x14, x10, #1
     32c: 8b09116c     	add	x12, x11, x9, lsl #4
     330: d37cedcf     	lsl	x15, x14, #4
     334: 91002190     	add	x16, x12, #8
     338: 8b0f0211     	add	x17, x16, x15
     33c: 8b0f018f     	add	x15, x12, x15
     340: eb0c01ff     	cmp	x15, x12
     344: fa502220     	ccmp	x17, x16, #0, hs
     348: d37cfdce     	lsr	x14, x14, #60
     34c: fa4029c0     	ccmp	x14, #0, #0, hs
     350: 54000121     	b.ne	0x374 <__ZN102_$LT$core..iter..adapters..map..Map$LT$I$C$F$GT$$u20$as$u20$core..iter..traits..iterator..Iterator$GT$4fold17he6d96b560240a4a7E+0x6c>
     354: 927ff9ad     	and	x13, x13, #0xfffffffffffffffe
     358: 8b0d000d     	add	x13, x0, x13
     35c: eb0d019f     	cmp	x12, x13
     360: 54000282     	b.hs	0x3b0 <__ZN102_$LT$core..iter..adapters..map..Map$LT$I$C$F$GT$$u20$as$u20$core..iter..traits..iterator..Iterator$GT$4fold17he6d96b560240a4a7E+0xa8>
     364: 8b0a012d     	add	x13, x9, x10
     368: 8b0d116d     	add	x13, x11, x13, lsl #4
     36c: eb0001bf     	cmp	x13, x0
     370: 54000209     	b.ls	0x3b0 <__ZN102_$LT$core..iter..adapters..map..Map$LT$I$C$F$GT$$u20$as$u20$core..iter..traits..iterator..Iterator$GT$4fold17he6d96b560240a4a7E+0xa8>
     374: d280000d     	mov	x13, #0
     378: 8b09116b     	add	x11, x11, x9, lsl #4
     37c: 9100216b     	add	x11, x11, #8
     380: cb0d014c     	sub	x12, x10, x13
     384: 8b0d040e     	add	x14, x0, x13, lsl #1
     388: 8b0a0129     	add	x9, x9, x10
     38c: cb0d0129     	sub	x9, x9, x13
     390: 78c025ca     	ldrsh	w10, [x14], #2
     394: 1e620140     	scvtf	d0, w10
     398: fc1f8160     	stur	d0, [x11, #-8]
     39c: f801057f     	str	xzr, [x11], #16
     3a0: f100058c     	subs	x12, x12, #1
     3a4: 54ffff61     	b.ne	0x390 <__ZN102_$LT$core..iter..adapters..map..Map$LT$I$C$F$GT$$u20$as$u20$core..iter..traits..iterator..Iterator$GT$4fold17he6d96b560240a4a7E+0x88>
     3a8: f9000109     	str	x9, [x8]
     3ac: d65f03c0     	ret
     3b0: 927ded4d     	and	x13, x10, #0x7ffffffffffffff8
     3b4: 8b0d0129     	add	x9, x9, x13
     3b8: 6f00e401     	movi.2d	v1, #0000000000000000
     3bc: aa0d03ee     	mov	x14, x13
     3c0: aa0003ef     	mov	x15, x0
     3c4: 3cc105e2     	ldr	q2, [x15], #16
     3c8: 4f10a443     	sshll2.4s	v3, v2, #0
     3cc: 4f20a464     	sshll2.2d	v4, v3, #0
     3d0: 4e61d880     	scvtf.2d	v0, v4
     3d4: 0f20a463     	sshll.2d	v3, v3, #0
     3d8: 4e61d863     	scvtf.2d	v3, v3
     3dc: 4ea11c24     	mov.16b	v4, v1
     3e0: 0f10a442     	sshll.4s	v2, v2, #0
     3e4: 4f20a445     	sshll2.2d	v5, v2, #0
     3e8: 0f20a442     	sshll.2d	v2, v2, #0
     3ec: 4e61d846     	scvtf.2d	v6, v2
     3f0: 4ea11c27     	mov.16b	v7, v1
     3f4: aa0c03f0     	mov	x16, x12
     3f8: 4c9f8e06     	st2.2d	{ v6, v7 }, [x16], #32
     3fc: 4e61d8a5     	scvtf.2d	v5, v5
     400: 4ea11c26     	mov.16b	v6, v1
     404: 4c008e05     	st2.2d	{ v5, v6 }, [x16]
     408: 91010190     	add	x16, x12, #64
     40c: 4c008e03     	st2.2d	{ v3, v4 }, [x16]
     410: 91018190     	add	x16, x12, #96
     414: 4c008e00     	st2.2d	{ v0, v1 }, [x16]
     418: 9102018c     	add	x12, x12, #128
     41c: f10021ce     	subs	x14, x14, #8
     420: 54fffd21     	b.ne	0x3c4 <__ZN102_$LT$core..iter..adapters..map..Map$LT$I$C$F$GT$$u20$as$u20$core..iter..traits..iterator..Iterator$GT$4fold17he6d96b560240a4a7E+0xbc>
     424: eb0d015f     	cmp	x10, x13
     428: 54fffc00     	b.eq	0x3a8 <__ZN102_$LT$core..iter..adapters..map..Map$LT$I$C$F$GT$$u20$as$u20$core..iter..traits..iterator..Iterator$GT$4fold17he6d96b560240a4a7E+0xa0>
     42c: 17ffffd3     	b	0x378 <__ZN102_$LT$core..iter..adapters..map..Map$LT$I$C$F$GT$$u20$as$u20$core..iter..traits..iterator..Iterator$GT$4fold17he6d96b560240a4a7E+0x70>

0000000000000430 <__ZN102_$LT$core..iter..adapters..map..Map$LT$I$C$F$GT$$u20$as$u20$core..iter..traits..iterator..Iterator$GT$4fold17h111f7be72e39e83cE>:
     430: d10203ff     	sub	sp, sp, #128
     434: a9026ffc     	stp	x28, x27, [sp, #32]
     438: a90367fa     	stp	x26, x25, [sp, #48]
     43c: a9045ff8     	stp	x24, x23, [sp, #64]
     440: a90557f6     	stp	x22, x21, [sp, #80]
     444: a9064ff4     	stp	x20, x19, [sp, #96]
     448: a9077bfd     	stp	x29, x30, [sp, #112]
     44c: 9101c3fd     	add	x29, sp, #112
     450: a9402019     	ldp	x25, x8, [x0]
     454: a9406029     	ldp	x9, x24, [x1]
     458: f9000be9     	str	x9, [sp, #16]
     45c: eb08033f     	cmp	x25, x8
     460: 540008e0     	b.eq	0x57c <__ZN102_$LT$core..iter..adapters..map..Map$LT$I$C$F$GT$$u20$as$u20$core..iter..traits..iterator..Iterator$GT$4fold17h111f7be72e39e83cE+0x14c>
     464: d280001a     	mov	x26, #0
     468: f9400829     	ldr	x9, [x1, #16]
     46c: f940081b     	ldr	x27, [x0, #16]
     470: cb190108     	sub	x8, x8, x25
     474: d345fd1c     	lsr	x28, x8, #5
     478: 8b181528     	add	x8, x9, x24, lsl #5
     47c: f9000fe8     	str	x8, [sp, #24]
     480: 52800108     	mov	w8, #8
     484: f90007e8     	str	x8, [sp, #8]
     488: 14000011     	b	0x4cc <__ZN102_$LT$core..iter..adapters..map..Map$LT$I$C$F$GT$$u20$as$u20$core..iter..traits..iterator..Iterator$GT$4fold17h111f7be72e39e83cE+0x9c>
     48c: d2800014     	mov	x20, #0
     490: 52800115     	mov	w21, #8
     494: aa1503e0     	mov	x0, x21
     498: aa1603e1     	mov	x1, x22
     49c: aa1403e2     	mov	x2, x20
     4a0: 94000000     	bl	0x4a0 <__ZN102_$LT$core..iter..adapters..map..Map$LT$I$C$F$GT$$u20$as$u20$core..iter..traits..iterator..Iterator$GT$4fold17h111f7be72e39e83cE+0x70>
     4a4: f9400fe8     	ldr	x8, [sp, #24]
     4a8: 8b1a0108     	add	x8, x8, x26
     4ac: a9005513     	stp	x19, x21, [x8]
     4b0: f9000913     	str	x19, [x8, #16]
     4b4: 39006117     	strb	w23, [x8, #24]
     4b8: 91000718     	add	x24, x24, #1
     4bc: 9100077b     	add	x27, x27, #1
     4c0: 9100835a     	add	x26, x26, #32
     4c4: f100079c     	subs	x28, x28, #1
     4c8: 540005a0     	b.eq	0x57c <__ZN102_$LT$core..iter..adapters..map..Map$LT$I$C$F$GT$$u20$as$u20$core..iter..traits..iterator..Iterator$GT$4fold17h111f7be72e39e83cE+0x14c>
     4cc: 8b1a0328     	add	x8, x25, x26
     4d0: 39406117     	ldrb	w23, [x8, #24]
     4d4: 370001fb     	tbnz	w27, #0, 0x510 <__ZN102_$LT$core..iter..adapters..map..Map$LT$I$C$F$GT$$u20$as$u20$core..iter..traits..iterator..Iterator$GT$4fold17h111f7be72e39e83cE+0xe0>
     4d8: a940cd16     	ldp	x22, x19, [x8, #8]
     4dc: b4fffd93     	cbz	x19, 0x48c <__ZN102_$LT$core..iter..adapters..map..Map$LT$I$C$F$GT$$u20$as$u20$core..iter..traits..iterator..Iterator$GT$4fold17h111f7be72e39e83cE+0x5c>
     4e0: d37df274     	lsl	x20, x19, #3
     4e4: d37cfe68     	lsr	x8, x19, #60
     4e8: b50005e8     	cbnz	x8, 0x5a4 <__ZN102_$LT$core..iter..adapters..map..Map$LT$I$C$F$GT$$u20$as$u20$core..iter..traits..iterator..Iterator$GT$4fold17h111f7be72e39e83cE+0x174>
     4ec: 90000008     	adrp	x8, 0x0 <__ZN102_$LT$core..iter..adapters..map..Map$LT$I$C$F$GT$$u20$as$u20$core..iter..traits..iterator..Iterator$GT$4fold17h111f7be72e39e83cE+0xbc>
     4f0: f9400108     	ldr	x8, [x8]
     4f4: 3940011f     	ldrb	wzr, [x8]
     4f8: aa1403e0     	mov	x0, x20
     4fc: 52800101     	mov	w1, #8
     500: 94000000     	bl	0x500 <__ZN102_$LT$core..iter..adapters..map..Map$LT$I$C$F$GT$$u20$as$u20$core..iter..traits..iterator..Iterator$GT$4fold17h111f7be72e39e83cE+0xd0>
     504: aa0003f5     	mov	x21, x0
     508: b5fffc60     	cbnz	x0, 0x494 <__ZN102_$LT$core..iter..adapters..map..Map$LT$I$C$F$GT$$u20$as$u20$core..iter..traits..iterator..Iterator$GT$4fold17h111f7be72e39e83cE+0x64>
     50c: 14000027     	b	0x5a8 <__ZN102_$LT$core..iter..adapters..map..Map$LT$I$C$F$GT$$u20$as$u20$core..iter..traits..iterator..Iterator$GT$4fold17h111f7be72e39e83cE+0x178>
     510: a940cd16     	ldp	x22, x19, [x8, #8]
     514: b40001b3     	cbz	x19, 0x548 <__ZN102_$LT$core..iter..adapters..map..Map$LT$I$C$F$GT$$u20$as$u20$core..iter..traits..iterator..Iterator$GT$4fold17h111f7be72e39e83cE+0x118>
     518: d37df274     	lsl	x20, x19, #3
     51c: d37cfe68     	lsr	x8, x19, #60
     520: b5000428     	cbnz	x8, 0x5a4 <__ZN102_$LT$core..iter..adapters..map..Map$LT$I$C$F$GT$$u20$as$u20$core..iter..traits..iterator..Iterator$GT$4fold17h111f7be72e39e83cE+0x174>
     524: 90000008     	adrp	x8, 0x0 <__ZN102_$LT$core..iter..adapters..map..Map$LT$I$C$F$GT$$u20$as$u20$core..iter..traits..iterator..Iterator$GT$4fold17h111f7be72e39e83cE+0xf4>
     528: f9400108     	ldr	x8, [x8]
     52c: 3940011f     	ldrb	wzr, [x8]
     530: aa1403e0     	mov	x0, x20
     534: 52800101     	mov	w1, #8
     538: 94000000     	bl	0x538 <__ZN102_$LT$core..iter..adapters..map..Map$LT$I$C$F$GT$$u20$as$u20$core..iter..traits..iterator..Iterator$GT$4fold17h111f7be72e39e83cE+0x108>
     53c: aa0003f5     	mov	x21, x0
     540: b5000080     	cbnz	x0, 0x550 <__ZN102_$LT$core..iter..adapters..map..Map$LT$I$C$F$GT$$u20$as$u20$core..iter..traits..iterator..Iterator$GT$4fold17h111f7be72e39e83cE+0x120>
     544: 14000019     	b	0x5a8 <__ZN102_$LT$core..iter..adapters..map..Map$LT$I$C$F$GT$$u20$as$u20$core..iter..traits..iterator..Iterator$GT$4fold17h111f7be72e39e83cE+0x178>
     548: d2800014     	mov	x20, #0
     54c: 52800115     	mov	w21, #8
     550: aa1503e0     	mov	x0, x21
     554: aa1603e1     	mov	x1, x22
     558: aa1403e2     	mov	x2, x20
     55c: 94000000     	bl	0x55c <__ZN102_$LT$core..iter..adapters..map..Map$LT$I$C$F$GT$$u20$as$u20$core..iter..traits..iterator..Iterator$GT$4fold17h111f7be72e39e83cE+0x12c>
     560: 710006ff     	cmp	w23, #1
     564: 52800028     	mov	w8, #1
     568: 1a9f0108     	csel	w8, w8, wzr, eq
     56c: 710002ff     	cmp	w23, #0
     570: 52800049     	mov	w9, #2
     574: 1a880137     	csel	w23, w9, w8, eq
     578: 17ffffcb     	b	0x4a4 <__ZN102_$LT$core..iter..adapters..map..Map$LT$I$C$F$GT$$u20$as$u20$core..iter..traits..iterator..Iterator$GT$4fold17h111f7be72e39e83cE+0x74>
     57c: f9400be8     	ldr	x8, [sp, #16]
     580: f9000118     	str	x24, [x8]
     584: a9477bfd     	ldp	x29, x30, [sp, #112]
     588: a9464ff4     	ldp	x20, x19, [sp, #96]
     58c: a94557f6     	ldp	x22, x21, [sp, #80]
     590: a9445ff8     	ldp	x24, x23, [sp, #64]
     594: a94367fa     	ldp	x26, x25, [sp, #48]
     598: a9426ffc     	ldp	x28, x27, [sp, #32]
     59c: 910203ff     	add	sp, sp, #128
     5a0: d65f03c0     	ret
     5a4: f90007ff     	str	xzr, [sp, #8]
     5a8: f94007e0     	ldr	x0, [sp, #8]
     5ac: aa1403e1     	mov	x1, x20
     5b0: 94000000     	bl	0x5b0 <__ZN102_$LT$core..iter..adapters..map..Map$LT$I$C$F$GT$$u20$as$u20$core..iter..traits..iterator..Iterator$GT$4fold17h111f7be72e39e83cE+0x180>
     5b4: d4200020     	brk	#0x1
     5b8: f9400be8     	ldr	x8, [sp, #16]
     5bc: f9000118     	str	x24, [x8]
     5c0: 94000000     	bl	0x5c0 <__ZN102_$LT$core..iter..adapters..map..Map$LT$I$C$F$GT$$u20$as$u20$core..iter..traits..iterator..Iterator$GT$4fold17h111f7be72e39e83cE+0x190>

00000000000005c4 <__ZN102_$LT$core..iter..adapters..map..Map$LT$I$C$F$GT$$u20$as$u20$core..iter..traits..iterator..Iterator$GT$4fold17he516c3c531e3e7dfE>:
     5c4: a9402448     	ldp	x8, x9, [x2]
     5c8: eb01001f     	cmp	x0, x1
     5cc: 54000500     	b.eq	0x66c <__ZN102_$LT$core..iter..adapters..map..Map$LT$I$C$F$GT$$u20$as$u20$core..iter..traits..iterator..Iterator$GT$4fold17he516c3c531e3e7dfE+0xa8>
     5d0: f940084b     	ldr	x11, [x2, #16]
     5d4: cb00002d     	sub	x13, x1, x0
     5d8: d341fdaa     	lsr	x10, x13, #1
     5dc: f100c1bf     	cmp	x13, #48
     5e0: 54000283     	b.lo	0x630 <__ZN102_$LT$core..iter..adapters..map..Map$LT$I$C$F$GT$$u20$as$u20$core..iter..traits..iterator..Iterator$GT$4fold17he516c3c531e3e7dfE+0x6c>
     5e4: d100054e     	sub	x14, x10, #1
     5e8: 8b09116c     	add	x12, x11, x9, lsl #4
     5ec: d37cedcf     	lsl	x15, x14, #4
     5f0: 91002190     	add	x16, x12, #8
     5f4: 8b0f0211     	add	x17, x16, x15
     5f8: 8b0f018f     	add	x15, x12, x15
     5fc: eb0c01ff     	cmp	x15, x12
     600: fa502220     	ccmp	x17, x16, #0, hs
     604: d37cfdce     	lsr	x14, x14, #60
     608: fa4029c0     	ccmp	x14, #0, #0, hs
     60c: 54000121     	b.ne	0x630 <__ZN102_$LT$core..iter..adapters..map..Map$LT$I$C$F$GT$$u20$as$u20$core..iter..traits..iterator..Iterator$GT$4fold17he516c3c531e3e7dfE+0x6c>
     610: 927ff9ad     	and	x13, x13, #0xfffffffffffffffe
     614: 8b0d000d     	add	x13, x0, x13
     618: eb0d019f     	cmp	x12, x13
     61c: 540002c2     	b.hs	0x674 <__ZN102_$LT$core..iter..adapters..map..Map$LT$I$C$F$GT$$u20$as$u20$core..iter..traits..iterator..Iterator$GT$4fold17he516c3c531e3e7dfE+0xb0>
     620: 8b0a012d     	add	x13, x9, x10
     624: 8b0d116d     	add	x13, x11, x13, lsl #4
     628: eb0001bf     	cmp	x13, x0
     62c: 54000249     	b.ls	0x674 <__ZN102_$LT$core..iter..adapters..map..Map$LT$I$C$F$GT$$u20$as$u20$core..iter..traits..iterator..Iterator$GT$4fold17he516c3c531e3e7dfE+0xb0>
     630: d280000d     	mov	x13, #0
     634: 8b09116b     	add	x11, x11, x9, lsl #4
     638: 9100216b     	add	x11, x11, #8
     63c: cb0d014c     	sub	x12, x10, x13
     640: 8b0d040e     	add	x14, x0, x13, lsl #1
     644: 8b0a0129     	add	x9, x9, x10
     648: cb0d0129     	sub	x9, x9, x13
     64c: 784025ca     	ldrh	w10, [x14], #2
     650: 4b0a03ea     	neg	w10, w10
     654: 13003d4a     	sxth	w10, w10
     658: 1e620140     	scvtf	d0, w10
     65c: fc1f8160     	stur	d0, [x11, #-8]
     660: f801057f     	str	xzr, [x11], #16
     664: f100058c     	subs	x12, x12, #1
     668: 54ffff21     	b.ne	0x64c <__ZN102_$LT$core..iter..adapters..map..Map$LT$I$C$F$GT$$u20$as$u20$core..iter..traits..iterator..Iterator$GT$4fold17he516c3c531e3e7dfE+0x88>
     66c: f9000109     	str	x9, [x8]
     670: d65f03c0     	ret
     674: 927ded4d     	and	x13, x10, #0x7ffffffffffffff8
     678: 8b0d0129     	add	x9, x9, x13
     67c: 6f00e401     	movi.2d	v1, #0000000000000000
     680: aa0d03ee     	mov	x14, x13
     684: aa0003ef     	mov	x15, x0
     688: 3cc105e2     	ldr	q2, [x15], #16
     68c: 6e60b842     	neg.8h	v2, v2
     690: 4f10a443     	sshll2.4s	v3, v2, #0
     694: 4f20a464     	sshll2.2d	v4, v3, #0
     698: 4e61d880     	scvtf.2d	v0, v4
     69c: 0f20a463     	sshll.2d	v3, v3, #0
     6a0: 4e61d863     	scvtf.2d	v3, v3
     6a4: 4ea11c24     	mov.16b	v4, v1
     6a8: 0f10a442     	sshll.4s	v2, v2, #0
     6ac: 4f20a445     	sshll2.2d	v5, v2, #0
     6b0: 0f20a442     	sshll.2d	v2, v2, #0
     6b4: 4e61d846     	scvtf.2d	v6, v2
     6b8: 4ea11c27     	mov.16b	v7, v1
     6bc: aa0c03f0     	mov	x16, x12
     6c0: 4c9f8e06     	st2.2d	{ v6, v7 }, [x16], #32
     6c4: 4e61d8a5     	scvtf.2d	v5, v5
     6c8: 4ea11c26     	mov.16b	v6, v1
     6cc: 4c008e05     	st2.2d	{ v5, v6 }, [x16]
     6d0: 91010190     	add	x16, x12, #64
     6d4: 4c008e03     	st2.2d	{ v3, v4 }, [x16]
     6d8: 91018190     	add	x16, x12, #96
     6dc: 4c008e00     	st2.2d	{ v0, v1 }, [x16]
     6e0: 9102018c     	add	x12, x12, #128
     6e4: f10021ce     	subs	x14, x14, #8
     6e8: 54fffd01     	b.ne	0x688 <__ZN102_$LT$core..iter..adapters..map..Map$LT$I$C$F$GT$$u20$as$u20$core..iter..traits..iterator..Iterator$GT$4fold17he516c3c531e3e7dfE+0xc4>
     6ec: eb0d015f     	cmp	x10, x13
     6f0: 54fffbe0     	b.eq	0x66c <__ZN102_$LT$core..iter..adapters..map..Map$LT$I$C$F$GT$$u20$as$u20$core..iter..traits..iterator..Iterator$GT$4fold17he516c3c531e3e7dfE+0xa8>
     6f4: 17ffffd0     	b	0x634 <__ZN102_$LT$core..iter..adapters..map..Map$LT$I$C$F$GT$$u20$as$u20$core..iter..traits..iterator..Iterator$GT$4fold17he516c3c531e3e7dfE+0x70>

00000000000006f8 <__ZN102_$LT$core..iter..adapters..map..Map$LT$I$C$F$GT$$u20$as$u20$core..iter..traits..iterator..Iterator$GT$4fold17h89a669d84ef7167dE>:
     6f8: a9402448     	ldp	x8, x9, [x2]
     6fc: eb01001f     	cmp	x0, x1
     700: 540008a0     	b.eq	0x814 <__ZN102_$LT$core..iter..adapters..map..Map$LT$I$C$F$GT$$u20$as$u20$core..iter..traits..iterator..Iterator$GT$4fold17h89a669d84ef7167dE+0x11c>
     704: f940084a     	ldr	x10, [x2, #16]
     708: cb00002c     	sub	x12, x1, x0
     70c: d341fd8b     	lsr	x11, x12, #1
     710: f100419f     	cmp	x12, #16
     714: 54000523     	b.lo	0x7b8 <__ZN102_$LT$core..iter..adapters..map..Map$LT$I$C$F$GT$$u20$as$u20$core..iter..traits..iterator..Iterator$GT$4fold17h89a669d84ef7167dE+0xc0>
     718: 8b09094d     	add	x13, x10, x9, lsl #2
     71c: 8b0c05ac     	add	x12, x13, x12, lsl #1
     720: eb0101bf     	cmp	x13, x1
     724: fa403180     	ccmp	x12, x0, #0, lo
     728: 54000488     	b.hi	0x7b8 <__ZN102_$LT$core..iter..adapters..map..Map$LT$I$C$F$GT$$u20$as$u20$core..iter..traits..iterator..Iterator$GT$4fold17h89a669d84ef7167dE+0xc0>
     72c: 927ded6c     	and	x12, x11, #0x7ffffffffffffff8
     730: 8b0c0129     	add	x9, x9, x12
     734: 5282aaae     	mov	w14, #5461
     738: 4e020dc0     	dup.8h	v0, w14
     73c: 5286002e     	mov	w14, #12289
     740: 4e020dc1     	dup.8h	v1, w14
     744: 4e040dc2     	dup.4s	v2, w14
     748: aa0c03ee     	mov	x14, x12
     74c: aa0003ef     	mov	x15, x0
     750: 3cc105e3     	ldr	q3, [x15], #16
     754: 4e60a864     	cmlt.8h	v4, v3, #0
     758: 4e211c85     	and.16b	v5, v4, v1
     75c: 4f009424     	orr.8h	v4, #1
     760: 4e639c83     	mul.8h	v3, v4, v3
     764: 4e60c066     	smull2.4s	v6, v3, v0
     768: 0e60c067     	smull.4s	v7, v3, v0
     76c: 4e4658e6     	uzp2.8h	v6, v7, v6
     770: 4f1604c6     	sshr.8h	v6, v6, #10
     774: 6f1114c6     	usra.8h	v6, v6, #15
     778: 6e6194c3     	mls.8h	v3, v6, v1
     77c: 4e649465     	mla.8h	v5, v3, v4
     780: 0f10a4a3     	sshll.4s	v3, v5, #0
     784: 4f10a4a4     	sshll2.4s	v4, v5, #0
     788: 4ea09884     	cmeq.4s	v4, v4, #0
     78c: 4ea09863     	cmeq.4s	v3, v3, #0
     790: 4e653046     	ssubw2.4s	v6, v2, v5
     794: 0e653045     	ssubw.4s	v5, v2, v5
     798: 4e631ca3     	bic.16b	v3, v5, v3
     79c: 4e641cc4     	bic.16b	v4, v6, v4
     7a0: ac8111a3     	stp	q3, q4, [x13], #32
     7a4: f10021ce     	subs	x14, x14, #8
     7a8: 54fffd41     	b.ne	0x750 <__ZN102_$LT$core..iter..adapters..map..Map$LT$I$C$F$GT$$u20$as$u20$core..iter..traits..iterator..Iterator$GT$4fold17h89a669d84ef7167dE+0x58>
     7ac: eb0c017f     	cmp	x11, x12
     7b0: 54000061     	b.ne	0x7bc <__ZN102_$LT$core..iter..adapters..map..Map$LT$I$C$F$GT$$u20$as$u20$core..iter..traits..iterator..Iterator$GT$4fold17h89a669d84ef7167dE+0xc4>
     7b4: 14000018     	b	0x814 <__ZN102_$LT$core..iter..adapters..map..Map$LT$I$C$F$GT$$u20$as$u20$core..iter..traits..iterator..Iterator$GT$4fold17h89a669d84ef7167dE+0x11c>
     7b8: d280000c     	mov	x12, #0
     7bc: cb0c016b     	sub	x11, x11, x12
     7c0: 5282aaad     	mov	w13, #5461
     7c4: 5286002e     	mov	w14, #12289
     7c8: 8b0c040c     	add	x12, x0, x12, lsl #1
     7cc: 78c0258f     	ldrsh	w15, [x12], #2
     7d0: 131f7df0     	asr	w16, w15, #31
     7d4: 32000210     	orr	w16, w16, #0x1
     7d8: 1b0f7e11     	mul	w17, w16, w15
     7dc: 13003e20     	sxth	w0, w17
     7e0: 1b0d7c00     	mul	w0, w0, w13
     7e4: 131a7c01     	asr	w1, w0, #26
     7e8: 0b407c20     	add	w0, w1, w0, lsr #31
     7ec: 1b0ec411     	msub	w17, w0, w14, w17
     7f0: 0a4f3dcf     	and	w15, w14, w15, lsr #15
     7f4: 1b103e2f     	madd	w15, w17, w16, w15
     7f8: 4b2fa1d0     	sub	w16, w14, w15, sxth
     7fc: 72003dff     	tst	w15, #0xffff
     800: 1a9003ef     	csel	w15, wzr, w16, eq
     804: b829794f     	str	w15, [x10, x9, lsl #2]
     808: 91000529     	add	x9, x9, #1
     80c: f100056b     	subs	x11, x11, #1
     810: 54fffde1     	b.ne	0x7cc <__ZN102_$LT$core..iter..adapters..map..Map$LT$I$C$F$GT$$u20$as$u20$core..iter..traits..iterator..Iterator$GT$4fold17h89a669d84ef7167dE+0xd4>
     814: f9000109     	str	x9, [x8]
     818: d65f03c0     	ret

000000000000081c <__ZN102_$LT$core..iter..adapters..map..Map$LT$I$C$F$GT$$u20$as$u20$core..iter..traits..iterator..Iterator$GT$4fold17h21d8bf6e87865435E>:
     81c: d100c3ff     	sub	sp, sp, #48
     820: a9014ff4     	stp	x20, x19, [sp, #16]
     824: a9027bfd     	stp	x29, x30, [sp, #32]
     828: 910083fd     	add	x29, sp, #32
     82c: a9405053     	ldp	x19, x20, [x2]
     830: eb01001f     	cmp	x0, x1
     834: 540005c0     	b.eq	0x8ec <__ZN102_$LT$core..iter..adapters..map..Map$LT$I$C$F$GT$$u20$as$u20$core..iter..traits..iterator..Iterator$GT$4fold17h21d8bf6e87865435E+0xd0>
     838: f9400848     	ldr	x8, [x2, #16]
     83c: cb000029     	sub	x9, x1, x0
     840: d345fd29     	lsr	x9, x9, #5
     844: 9100400a     	add	x10, x0, #16
     848: 14000007     	b	0x864 <__ZN102_$LT$core..iter..adapters..map..Map$LT$I$C$F$GT$$u20$as$u20$core..iter..traits..iterator..Iterator$GT$4fold17h21d8bf6e87865435E+0x48>
     84c: 5280000b     	mov	w11, #0
     850: 7834790b     	strh	w11, [x8, x20, lsl #1]
     854: 91000694     	add	x20, x20, #1
     858: 9100814a     	add	x10, x10, #32
     85c: f1000529     	subs	x9, x9, #1
     860: 54000460     	b.eq	0x8ec <__ZN102_$LT$core..iter..adapters..map..Map$LT$I$C$F$GT$$u20$as$u20$core..iter..traits..iterator..Iterator$GT$4fold17h21d8bf6e87865435E+0xd0>
     864: 3940214b     	ldrb	w11, [x10, #8]
     868: 340001ab     	cbz	w11, 0x89c <__ZN102_$LT$core..iter..adapters..map..Map$LT$I$C$F$GT$$u20$as$u20$core..iter..traits..iterator..Iterator$GT$4fold17h21d8bf6e87865435E+0x80>
     86c: 7100057f     	cmp	w11, #1
     870: 54fffee0     	b.eq	0x84c <__ZN102_$LT$core..iter..adapters..map..Map$LT$I$C$F$GT$$u20$as$u20$core..iter..traits..iterator..Iterator$GT$4fold17h21d8bf6e87865435E+0x30>
     874: f940014b     	ldr	x11, [x10]
     878: b4fffecb     	cbz	x11, 0x850 <__ZN102_$LT$core..iter..adapters..map..Map$LT$I$C$F$GT$$u20$as$u20$core..iter..traits..iterator..Iterator$GT$4fold17h21d8bf6e87865435E+0x34>
     87c: f100057f     	cmp	x11, #1
     880: 54000221     	b.ne	0x8c4 <__ZN102_$LT$core..iter..adapters..map..Map$LT$I$C$F$GT$$u20$as$u20$core..iter..traits..iterator..Iterator$GT$4fold17h21d8bf6e87865435E+0xa8>
     884: f85f814b     	ldur	x11, [x10, #-8]
     888: f940016b     	ldr	x11, [x11]
     88c: b7f801cb     	tbnz	x11, #63, 0x8c4 <__ZN102_$LT$core..iter..adapters..map..Map$LT$I$C$F$GT$$u20$as$u20$core..iter..traits..iterator..Iterator$GT$4fold17h21d8bf6e87865435E+0xa8>
     890: eb2ba17f     	cmp	x11, w11, sxth
     894: 54fffde0     	b.eq	0x850 <__ZN102_$LT$core..iter..adapters..map..Map$LT$I$C$F$GT$$u20$as$u20$core..iter..traits..iterator..Iterator$GT$4fold17h21d8bf6e87865435E+0x34>
     898: 1400000b     	b	0x8c4 <__ZN102_$LT$core..iter..adapters..map..Map$LT$I$C$F$GT$$u20$as$u20$core..iter..traits..iterator..Iterator$GT$4fold17h21d8bf6e87865435E+0xa8>
     89c: f940014b     	ldr	x11, [x10]
     8a0: b40000cb     	cbz	x11, 0x8b8 <__ZN102_$LT$core..iter..adapters..map..Map$LT$I$C$F$GT$$u20$as$u20$core..iter..traits..iterator..Iterator$GT$4fold17h21d8bf6e87865435E+0x9c>
     8a4: f100057f     	cmp	x11, #1
     8a8: 540000e1     	b.ne	0x8c4 <__ZN102_$LT$core..iter..adapters..map..Map$LT$I$C$F$GT$$u20$as$u20$core..iter..traits..iterator..Iterator$GT$4fold17h21d8bf6e87865435E+0xa8>
     8ac: f85f814b     	ldur	x11, [x10, #-8]
     8b0: f940016b     	ldr	x11, [x11]
     8b4: b7f8008b     	tbnz	x11, #63, 0x8c4 <__ZN102_$LT$core..iter..adapters..map..Map$LT$I$C$F$GT$$u20$as$u20$core..iter..traits..iterator..Iterator$GT$4fold17h21d8bf6e87865435E+0xa8>
     8b8: cb0b03eb     	neg	x11, x11
     8bc: eb2ba17f     	cmp	x11, w11, sxth
     8c0: 54fffc80     	b.eq	0x850 <__ZN102_$LT$core..iter..adapters..map..Map$LT$I$C$F$GT$$u20$as$u20$core..iter..traits..iterator..Iterator$GT$4fold17h21d8bf6e87865435E+0x34>
     8c4: 90000000     	adrp	x0, 0x0 <__ZN102_$LT$core..iter..adapters..map..Map$LT$I$C$F$GT$$u20$as$u20$core..iter..traits..iterator..Iterator$GT$4fold17h21d8bf6e87865435E+0xa8>
     8c8: 91000000     	add	x0, x0, #0
     8cc: 90000003     	adrp	x3, 0x0 <__ZN102_$LT$core..iter..adapters..map..Map$LT$I$C$F$GT$$u20$as$u20$core..iter..traits..iterator..Iterator$GT$4fold17h21d8bf6e87865435E+0xb0>
     8d0: 91000063     	add	x3, x3, #0
     8d4: 90000004     	adrp	x4, 0x0 <__ZN102_$LT$core..iter..adapters..map..Map$LT$I$C$F$GT$$u20$as$u20$core..iter..traits..iterator..Iterator$GT$4fold17h21d8bf6e87865435E+0xb8>
     8d8: 91000084     	add	x4, x4, #0
     8dc: 91003fe2     	add	x2, sp, #15
     8e0: 52800561     	mov	w1, #43
     8e4: 94000000     	bl	0x8e4 <__ZN102_$LT$core..iter..adapters..map..Map$LT$I$C$F$GT$$u20$as$u20$core..iter..traits..iterator..Iterator$GT$4fold17h21d8bf6e87865435E+0xc8>
     8e8: d4200020     	brk	#0x1
     8ec: f9000274     	str	x20, [x19]
     8f0: a9427bfd     	ldp	x29, x30, [sp, #32]
     8f4: a9414ff4     	ldp	x20, x19, [sp, #16]
     8f8: 9100c3ff     	add	sp, sp, #48
     8fc: d65f03c0     	ret
     900: f9000274     	str	x20, [x19]
     904: 94000000     	bl	0x904 <__ZN102_$LT$core..iter..adapters..map..Map$LT$I$C$F$GT$$u20$as$u20$core..iter..traits..iterator..Iterator$GT$4fold17h21d8bf6e87865435E+0xe8>

0000000000000908 <__ZN102_$LT$core..iter..adapters..map..Map$LT$I$C$F$GT$$u20$as$u20$core..iter..traits..iterator..Iterator$GT$4fold17hdaa256cf1fbfe45bE>:
     908: d10283ff     	sub	sp, sp, #160
     90c: a9046ffc     	stp	x28, x27, [sp, #64]
     910: a90567fa     	stp	x26, x25, [sp, #80]
     914: a9065ff8     	stp	x24, x23, [sp, #96]
     918: a90757f6     	stp	x22, x21, [sp, #112]
     91c: a9084ff4     	stp	x20, x19, [sp, #128]
     920: a9097bfd     	stp	x29, x30, [sp, #144]
     924: 910243fd     	add	x29, sp, #144
     928: a9402015     	ldp	x21, x8, [x0]
     92c: a9405033     	ldp	x19, x20, [x1]
     930: eb0802bf     	cmp	x21, x8
     934: 540006c0     	b.eq	0xa0c <__ZN102_$LT$core..iter..adapters..map..Map$LT$I$C$F$GT$$u20$as$u20$core..iter..traits..iterator..Iterator$GT$4fold17hdaa256cf1fbfe45bE+0x104>
     938: a9415c16     	ldp	x22, x23, [x0, #16]
     93c: f9400829     	ldr	x9, [x1, #16]
     940: cb150108     	sub	x8, x8, x21
     944: d345fd18     	lsr	x24, x8, #5
     948: 8b141539     	add	x25, x9, x20, lsl #5
     94c: 5280011a     	mov	w26, #8
     950: d2f0001b     	mov	x27, #-9223372036854775808
     954: 14000010     	b	0x994 <__ZN102_$LT$core..iter..adapters..map..Map$LT$I$C$F$GT$$u20$as$u20$core..iter..traits..iterator..Iterator$GT$4fold17hdaa256cf1fbfe45bE+0x8c>
     958: f9400fe8     	ldr	x8, [sp, #24]
     95c: f100011f     	cmp	x8, #0
     960: 1a9f1788     	csinc	w8, w28, wzr, ne
     964: 3cc083e0     	ldur	q0, [sp, #8]
     968: 3d800be0     	str	q0, [sp, #32]
     96c: f9400fe9     	ldr	x9, [sp, #24]
     970: f9001be9     	str	x9, [sp, #48]
     974: 3d800320     	str	q0, [x25]
     978: f9000b29     	str	x9, [x25, #16]
     97c: 39006328     	strb	w8, [x25, #24]
     980: 91000694     	add	x20, x20, #1
     984: 91008339     	add	x25, x25, #32
     988: 910082b5     	add	x21, x21, #32
     98c: f1000718     	subs	x24, x24, #1
     990: 540003e0     	b.eq	0xa0c <__ZN102_$LT$core..iter..adapters..map..Map$LT$I$C$F$GT$$u20$as$u20$core..iter..traits..iterator..Iterator$GT$4fold17hdaa256cf1fbfe45bE+0x104>
     994: 394062bc     	ldrb	w28, [x21, #24]
     998: f9400aa8     	ldr	x8, [x21, #16]
     99c: b40001a8     	cbz	x8, 0x9d0 <__ZN102_$LT$core..iter..adapters..map..Map$LT$I$C$F$GT$$u20$as$u20$core..iter..traits..iterator..Iterator$GT$4fold17hdaa256cf1fbfe45bE+0xc8>
     9a0: f94002c8     	ldr	x8, [x22]
     9a4: f94002e9     	ldr	x9, [x23]
     9a8: cb090109     	sub	x9, x8, x9
     9ac: d346fd21     	lsr	x1, x9, #6
     9b0: a90257fb     	stp	x27, x21, [sp, #32]
     9b4: 910023e8     	add	x8, sp, #8
     9b8: 910083e0     	add	x0, sp, #32
     9bc: 12001522     	and	w2, w9, #0x3f
     9c0: 94000000     	bl	0x9c0 <__ZN102_$LT$core..iter..adapters..map..Map$LT$I$C$F$GT$$u20$as$u20$core..iter..traits..iterator..Iterator$GT$4fold17hdaa256cf1fbfe45bE+0xb8>
     9c4: 7100079f     	cmp	w28, #1
     9c8: 54fffc81     	b.ne	0x958 <__ZN102_$LT$core..iter..adapters..map..Map$LT$I$C$F$GT$$u20$as$u20$core..iter..traits..iterator..Iterator$GT$4fold17hdaa256cf1fbfe45bE+0x50>
     9cc: 14000005     	b	0x9e0 <__ZN102_$LT$core..iter..adapters..map..Map$LT$I$C$F$GT$$u20$as$u20$core..iter..traits..iterator..Iterator$GT$4fold17hdaa256cf1fbfe45bE+0xd8>
     9d0: a900ebff     	stp	xzr, x26, [sp, #8]
     9d4: f9000fff     	str	xzr, [sp, #24]
     9d8: 7100079f     	cmp	w28, #1
     9dc: 54fffbe1     	b.ne	0x958 <__ZN102_$LT$core..iter..adapters..map..Map$LT$I$C$F$GT$$u20$as$u20$core..iter..traits..iterator..Iterator$GT$4fold17hdaa256cf1fbfe45bE+0x50>
     9e0: f9000fff     	str	xzr, [sp, #24]
     9e4: f94007e8     	ldr	x8, [sp, #8]
     9e8: f100111f     	cmp	x8, #4
     9ec: 540000c3     	b.lo	0xa04 <__ZN102_$LT$core..iter..adapters..map..Map$LT$I$C$F$GT$$u20$as$u20$core..iter..traits..iterator..Iterator$GT$4fold17hdaa256cf1fbfe45bE+0xfc>
     9f0: d37df101     	lsl	x1, x8, #3
     9f4: f9400be0     	ldr	x0, [sp, #16]
     9f8: 52800102     	mov	w2, #8
     9fc: 94000000     	bl	0x9fc <__ZN102_$LT$core..iter..adapters..map..Map$LT$I$C$F$GT$$u20$as$u20$core..iter..traits..iterator..Iterator$GT$4fold17hdaa256cf1fbfe45bE+0xf4>
     a00: a900ebff     	stp	xzr, x26, [sp, #8]
     a04: 52800028     	mov	w8, #1
     a08: 17ffffd7     	b	0x964 <__ZN102_$LT$core..iter..adapters..map..Map$LT$I$C$F$GT$$u20$as$u20$core..iter..traits..iterator..Iterator$GT$4fold17hdaa256cf1fbfe45bE+0x5c>
     a0c: f9000274     	str	x20, [x19]
     a10: a9497bfd     	ldp	x29, x30, [sp, #144]
     a14: a9484ff4     	ldp	x20, x19, [sp, #128]
     a18: a94757f6     	ldp	x22, x21, [sp, #112]
     a1c: a9465ff8     	ldp	x24, x23, [sp, #96]
     a20: a94567fa     	ldp	x26, x25, [sp, #80]
     a24: a9446ffc     	ldp	x28, x27, [sp, #64]
     a28: 910283ff     	add	sp, sp, #160
     a2c: d65f03c0     	ret
     a30: f9000274     	str	x20, [x19]
     a34: 94000000     	bl	0xa34 <__ZN102_$LT$core..iter..adapters..map..Map$LT$I$C$F$GT$$u20$as$u20$core..iter..traits..iterator..Iterator$GT$4fold17hdaa256cf1fbfe45bE+0x12c>

0000000000000a38 <__ZN102_$LT$core..iter..adapters..map..Map$LT$I$C$F$GT$$u20$as$u20$core..iter..traits..iterator..Iterator$GT$4fold17hdd47c9d55c759ef1E>:
     a38: a9402448     	ldp	x8, x9, [x2]
     a3c: eb01001f     	cmp	x0, x1
     a40: 540004c0     	b.eq	0xad8 <__ZN102_$LT$core..iter..adapters..map..Map$LT$I$C$F$GT$$u20$as$u20$core..iter..traits..iterator..Iterator$GT$4fold17hdd47c9d55c759ef1E+0xa0>
     a44: f940084a     	ldr	x10, [x2, #16]
     a48: cb00002c     	sub	x12, x1, x0
     a4c: d344fd8b     	lsr	x11, x12, #4
     a50: f104019f     	cmp	x12, #256
     a54: 540002a3     	b.lo	0xaa8 <__ZN102_$LT$core..iter..adapters..map..Map$LT$I$C$F$GT$$u20$as$u20$core..iter..traits..iterator..Iterator$GT$4fold17hdd47c9d55c759ef1E+0x70>
     a58: d100056d     	sub	x13, x11, #1
     a5c: d37ced2e     	lsl	x14, x9, #4
     a60: d37cedaf     	lsl	x15, x13, #4
     a64: 8b0e0150     	add	x16, x10, x14
     a68: 8b0f0211     	add	x17, x16, x15
     a6c: 91002201     	add	x1, x16, #8
     a70: 8b0f002f     	add	x15, x1, x15
     a74: eb10023f     	cmp	x17, x16
     a78: fa4121e0     	ccmp	x15, x1, #0, hs
     a7c: d37cfdad     	lsr	x13, x13, #60
     a80: fa4029a0     	ccmp	x13, #0, #0, hs
     a84: 54000121     	b.ne	0xaa8 <__ZN102_$LT$core..iter..adapters..map..Map$LT$I$C$F$GT$$u20$as$u20$core..iter..traits..iterator..Iterator$GT$4fold17hdd47c9d55c759ef1E+0x70>
     a88: 8b09114d     	add	x13, x10, x9, lsl #4
     a8c: 927ced8c     	and	x12, x12, #0xfffffffffffffff0
     a90: 8b0c000f     	add	x15, x0, x12
     a94: eb0f01bf     	cmp	x13, x15
     a98: 54000242     	b.hs	0xae0 <__ZN102_$LT$core..iter..adapters..map..Map$LT$I$C$F$GT$$u20$as$u20$core..iter..traits..iterator..Iterator$GT$4fold17hdd47c9d55c759ef1E+0xa8>
     a9c: 8b0c01ac     	add	x12, x13, x12
     aa0: eb00019f     	cmp	x12, x0
     aa4: 540001e9     	b.ls	0xae0 <__ZN102_$LT$core..iter..adapters..map..Map$LT$I$C$F$GT$$u20$as$u20$core..iter..traits..iterator..Iterator$GT$4fold17hdd47c9d55c759ef1E+0xa8>
     aa8: d280000c     	mov	x12, #0
     aac: cb0c016b     	sub	x11, x11, x12
     ab0: 8b0c100c     	add	x12, x0, x12, lsl #4
     ab4: d2c0100d     	mov	x13, #549755813888
     ab8: f2e8190d     	movk	x13, #16584, lsl #48
     abc: 4e080da0     	dup.2d	v0, x13
     ac0: 3cc10581     	ldr	q1, [x12], #16
     ac4: 6e60dc21     	fmul.2d	v1, v1, v0
     ac8: 3ca97941     	str	q1, [x10, x9, lsl #4]
     acc: 91000529     	add	x9, x9, #1
     ad0: f100056b     	subs	x11, x11, #1
     ad4: 54ffff61     	b.ne	0xac0 <__ZN102_$LT$core..iter..adapters..map..Map$LT$I$C$F$GT$$u20$as$u20$core..iter..traits..iterator..Iterator$GT$4fold17hdd47c9d55c759ef1E+0x88>
     ad8: f9000109     	str	x9, [x8]
     adc: d65f03c0     	ret
     ae0: 927ee56c     	and	x12, x11, #0xffffffffffffffc
     ae4: 8b0c0129     	add	x9, x9, x12
     ae8: 9100800d     	add	x13, x0, #32
     aec: 8b0a01ce     	add	x14, x14, x10
     af0: 910081ce     	add	x14, x14, #32
     af4: d2c0100f     	mov	x15, #549755813888
     af8: f2e8190f     	movk	x15, #16584, lsl #48
     afc: 4e080de0     	dup.2d	v0, x15
     b00: aa0c03ef     	mov	x15, x12
     b04: ad7f09a1     	ldp	q1, q2, [x13, #-32]
     b08: acc211a3     	ldp	q3, q4, [x13], #64
     b0c: 6e60dc42     	fmul.2d	v2, v2, v0
     b10: 6e60dc21     	fmul.2d	v1, v1, v0
     b14: ad3f09c1     	stp	q1, q2, [x14, #-32]
     b18: 6e60dc81     	fmul.2d	v1, v4, v0
     b1c: 6e60dc62     	fmul.2d	v2, v3, v0
     b20: ac8205c2     	stp	q2, q1, [x14], #64
     b24: f10011ef     	subs	x15, x15, #4
     b28: 54fffee1     	b.ne	0xb04 <__ZN102_$LT$core..iter..adapters..map..Map$LT$I$C$F$GT$$u20$as$u20$core..iter..traits..iterator..Iterator$GT$4fold17hdd47c9d55c759ef1E+0xcc>
     b2c: eb0c017f     	cmp	x11, x12
     b30: 54fffd40     	b.eq	0xad8 <__ZN102_$LT$core..iter..adapters..map..Map$LT$I$C$F$GT$$u20$as$u20$core..iter..traits..iterator..Iterator$GT$4fold17hdd47c9d55c759ef1E+0xa0>
     b34: 17ffffde     	b	0xaac <__ZN102_$LT$core..iter..adapters..map..Map$LT$I$C$F$GT$$u20$as$u20$core..iter..traits..iterator..Iterator$GT$4fold17hdd47c9d55c759ef1E+0x74>

0000000000000b38 <__ZN102_$LT$core..iter..adapters..map..Map$LT$I$C$F$GT$$u20$as$u20$core..iter..traits..iterator..Iterator$GT$4fold17h26e14e617baa452eE>:
     b38: d105c3ff     	sub	sp, sp, #368
     b3c: a9116ffc     	stp	x28, x27, [sp, #272]
     b40: a91267fa     	stp	x26, x25, [sp, #288]
     b44: a9135ff8     	stp	x24, x23, [sp, #304]
     b48: a91457f6     	stp	x22, x21, [sp, #320]
     b4c: a9154ff4     	stp	x20, x19, [sp, #336]
     b50: a9167bfd     	stp	x29, x30, [sp, #352]
     b54: 910583fd     	add	x29, sp, #352
     b58: a944a00b     	ldp	x11, x8, [x0, #72]
     b5c: a9402829     	ldp	x9, x10, [x1]
     b60: f90013e9     	str	x9, [sp, #32]
     b64: eb0b0108     	subs	x8, x8, x11
     b68: a9052fe8     	stp	x8, x11, [sp, #80]
     b6c: 54000161     	b.ne	0xb98 <__ZN102_$LT$core..iter..adapters..map..Map$LT$I$C$F$GT$$u20$as$u20$core..iter..traits..iterator..Iterator$GT$4fold17h26e14e617baa452eE+0x60>
     b70: f94013e8     	ldr	x8, [sp, #32]
     b74: f900010a     	str	x10, [x8]
     b78: a9567bfd     	ldp	x29, x30, [sp, #352]
     b7c: a9554ff4     	ldp	x20, x19, [sp, #336]
     b80: a95457f6     	ldp	x22, x21, [sp, #320]
     b84: a9535ff8     	ldp	x24, x23, [sp, #304]
     b88: a95267fa     	ldp	x26, x25, [sp, #288]
     b8c: a9516ffc     	ldp	x28, x27, [sp, #272]
     b90: 9105c3ff     	add	sp, sp, #368
     b94: d65f03c0     	ret
     b98: d280001a     	mov	x26, #0
     b9c: 910243e8     	add	x8, sp, #144
     ba0: 91002109     	add	x9, x8, #8
     ba4: d101c3a8     	sub	x8, x29, #112
     ba8: 91002108     	add	x8, x8, #8
     bac: a900a7e8     	stp	x8, x9, [sp, #8]
     bb0: f9400009     	ldr	x9, [x0]
     bb4: f9400808     	ldr	x8, [x0, #16]
     bb8: a90427e8     	stp	x8, x9, [sp, #64]
     bbc: f9401009     	ldr	x9, [x0, #32]
     bc0: f9401808     	ldr	x8, [x0, #48]
     bc4: a90323e9     	stp	x9, x8, [sp, #48]
     bc8: 52800108     	mov	w8, #8
     bcc: f9000fe8     	str	x8, [sp, #24]
     bd0: f9400828     	ldr	x8, [x1, #16]
     bd4: f90017e8     	str	x8, [sp, #40]
     bd8: 14000016     	b	0xc30 <__ZN102_$LT$core..iter..adapters..map..Map$LT$I$C$F$GT$$u20$as$u20$core..iter..traits..iterator..Iterator$GT$4fold17h26e14e617baa452eE+0xf8>
     bdc: d37df2c1     	lsl	x1, x22, #3
     be0: aa1903e0     	mov	x0, x25
     be4: 52800102     	mov	w2, #8
     be8: 94000000     	bl	0xbe8 <__ZN102_$LT$core..iter..adapters..map..Map$LT$I$C$F$GT$$u20$as$u20$core..iter..traits..iterator..Iterator$GT$4fold17h26e14e617baa452eE+0xb0>
     bec: f94033ea     	ldr	x10, [sp, #96]
     bf0: 9100075a     	add	x26, x26, #1
     bf4: f94017e8     	ldr	x8, [sp, #40]
     bf8: 8b0a1508     	add	x8, x8, x10, lsl #5
     bfc: 3cd703a0     	ldur	q0, [x29, #-144]
     c00: 3d800100     	str	q0, [x8]
     c04: f85803a9     	ldur	x9, [x29, #-128]
     c08: f9000909     	str	x9, [x8, #16]
     c0c: 39006113     	strb	w19, [x8, #24]
     c10: b940b3e9     	ldr	w9, [sp, #176]
     c14: b8019109     	stur	w9, [x8, #25]
     c18: b84b33e9     	ldur	w9, [sp, #179]
     c1c: b9001d09     	str	w9, [x8, #28]
     c20: 9100054a     	add	x10, x10, #1
     c24: f9402be8     	ldr	x8, [sp, #80]
     c28: eb08035f     	cmp	x26, x8
     c2c: 54fffa20     	b.eq	0xb70 <__ZN102_$LT$core..iter..adapters..map..Map$LT$I$C$F$GT$$u20$as$u20$core..iter..traits..iterator..Iterator$GT$4fold17h26e14e617baa452eE+0x38>
     c30: f9402fe8     	ldr	x8, [sp, #88]
     c34: 8b080357     	add	x23, x26, x8
     c38: f94027e8     	ldr	x8, [sp, #72]
     c3c: 8b171508     	add	x8, x8, x23, lsl #5
     c40: 39406113     	ldrb	w19, [x8, #24]
     c44: a940d116     	ldp	x22, x20, [x8, #8]
     c48: a90653ea     	stp	x10, x20, [sp, #96]
     c4c: b40001b4     	cbz	x20, 0xc80 <__ZN102_$LT$core..iter..adapters..map..Map$LT$I$C$F$GT$$u20$as$u20$core..iter..traits..iterator..Iterator$GT$4fold17h26e14e617baa452eE+0x148>
     c50: d37df295     	lsl	x21, x20, #3
     c54: d37cfe88     	lsr	x8, x20, #60
     c58: b5001fa8     	cbnz	x8, 0x104c <__ZN102_$LT$core..iter..adapters..map..Map$LT$I$C$F$GT$$u20$as$u20$core..iter..traits..iterator..Iterator$GT$4fold17h26e14e617baa452eE+0x514>
     c5c: 90000008     	adrp	x8, 0x0 <__ZN102_$LT$core..iter..adapters..map..Map$LT$I$C$F$GT$$u20$as$u20$core..iter..traits..iterator..Iterator$GT$4fold17h26e14e617baa452eE+0x124>
     c60: f9400108     	ldr	x8, [x8]
     c64: 3940011f     	ldrb	wzr, [x8]
     c68: aa1503e0     	mov	x0, x21
     c6c: 52800101     	mov	w1, #8
     c70: 94000000     	bl	0xc70 <__ZN102_$LT$core..iter..adapters..map..Map$LT$I$C$F$GT$$u20$as$u20$core..iter..traits..iterator..Iterator$GT$4fold17h26e14e617baa452eE+0x138>
     c74: b4001ee0     	cbz	x0, 0x1050 <__ZN102_$LT$core..iter..adapters..map..Map$LT$I$C$F$GT$$u20$as$u20$core..iter..traits..iterator..Iterator$GT$4fold17h26e14e617baa452eE+0x518>
     c78: aa0003f9     	mov	x25, x0
     c7c: 14000003     	b	0xc88 <__ZN102_$LT$core..iter..adapters..map..Map$LT$I$C$F$GT$$u20$as$u20$core..iter..traits..iterator..Iterator$GT$4fold17h26e14e617baa452eE+0x150>
     c80: d2800015     	mov	x21, #0
     c84: 52800119     	mov	w25, #8
     c88: f9401fe8     	ldr	x8, [sp, #56]
     c8c: 8b0802fb     	add	x27, x23, x8
     c90: aa1903e0     	mov	x0, x25
     c94: aa1603e1     	mov	x1, x22
     c98: aa1503e2     	mov	x2, x21
     c9c: 94000000     	bl	0xc9c <__ZN102_$LT$core..iter..adapters..map..Map$LT$I$C$F$GT$$u20$as$u20$core..iter..traits..iterator..Iterator$GT$4fold17h26e14e617baa452eE+0x164>
     ca0: f94023e8     	ldr	x8, [sp, #64]
     ca4: 8b1b1508     	add	x8, x8, x27, lsl #5
     ca8: 39406118     	ldrb	w24, [x8, #24]
     cac: a940f117     	ldp	x23, x28, [x8, #8]
     cb0: b40001dc     	cbz	x28, 0xce8 <__ZN102_$LT$core..iter..adapters..map..Map$LT$I$C$F$GT$$u20$as$u20$core..iter..traits..iterator..Iterator$GT$4fold17h26e14e617baa452eE+0x1b0>
     cb4: d37df396     	lsl	x22, x28, #3
     cb8: d37cff88     	lsr	x8, x28, #60
     cbc: b5001dc8     	cbnz	x8, 0x1074 <__ZN102_$LT$core..iter..adapters..map..Map$LT$I$C$F$GT$$u20$as$u20$core..iter..traits..iterator..Iterator$GT$4fold17h26e14e617baa452eE+0x53c>
     cc0: 90000008     	adrp	x8, 0x0 <__ZN102_$LT$core..iter..adapters..map..Map$LT$I$C$F$GT$$u20$as$u20$core..iter..traits..iterator..Iterator$GT$4fold17h26e14e617baa452eE+0x188>
     cc4: f9400108     	ldr	x8, [x8]
     cc8: 3940011f     	ldrb	wzr, [x8]
     ccc: aa1603e0     	mov	x0, x22
     cd0: 52800101     	mov	w1, #8
     cd4: 94000000     	bl	0xcd4 <__ZN102_$LT$core..iter..adapters..map..Map$LT$I$C$F$GT$$u20$as$u20$core..iter..traits..iterator..Iterator$GT$4fold17h26e14e617baa452eE+0x19c>
     cd8: b4001d00     	cbz	x0, 0x1078 <__ZN102_$LT$core..iter..adapters..map..Map$LT$I$C$F$GT$$u20$as$u20$core..iter..traits..iterator..Iterator$GT$4fold17h26e14e617baa452eE+0x540>
     cdc: aa0003f5     	mov	x21, x0
     ce0: aa1a03f4     	mov	x20, x26
     ce4: 14000004     	b	0xcf4 <__ZN102_$LT$core..iter..adapters..map..Map$LT$I$C$F$GT$$u20$as$u20$core..iter..traits..iterator..Iterator$GT$4fold17h26e14e617baa452eE+0x1bc>
     ce8: aa1a03f4     	mov	x20, x26
     cec: d2800016     	mov	x22, #0
     cf0: 52800115     	mov	w21, #8
     cf4: f9401be8     	ldr	x8, [sp, #48]
     cf8: 8b1b151a     	add	x26, x8, x27, lsl #5
     cfc: aa1503e0     	mov	x0, x21
     d00: aa1703e1     	mov	x1, x23
     d04: aa1603e2     	mov	x2, x22
     d08: 94000000     	bl	0xd08 <__ZN102_$LT$core..iter..adapters..map..Map$LT$I$C$F$GT$$u20$as$u20$core..iter..traits..iterator..Iterator$GT$4fold17h26e14e617baa452eE+0x1d0>
     d0c: a90957fc     	stp	x28, x21, [sp, #144]
     d10: f90053fc     	str	x28, [sp, #160]
     d14: 3902a3f8     	strb	w24, [sp, #168]
     d18: 3940635b     	ldrb	w27, [x26, #24]
     d1c: a940eb57     	ldp	x23, x26, [x26, #8]
     d20: b40001ba     	cbz	x26, 0xd54 <__ZN102_$LT$core..iter..adapters..map..Map$LT$I$C$F$GT$$u20$as$u20$core..iter..traits..iterator..Iterator$GT$4fold17h26e14e617baa452eE+0x21c>
     d24: d37df356     	lsl	x22, x26, #3
     d28: d37cff48     	lsr	x8, x26, #60
     d2c: b50019a8     	cbnz	x8, 0x1060 <__ZN102_$LT$core..iter..adapters..map..Map$LT$I$C$F$GT$$u20$as$u20$core..iter..traits..iterator..Iterator$GT$4fold17h26e14e617baa452eE+0x528>
     d30: 90000008     	adrp	x8, 0x0 <__ZN102_$LT$core..iter..adapters..map..Map$LT$I$C$F$GT$$u20$as$u20$core..iter..traits..iterator..Iterator$GT$4fold17h26e14e617baa452eE+0x1f8>
     d34: f9400108     	ldr	x8, [x8]
     d38: 3940011f     	ldrb	wzr, [x8]
     d3c: aa1603e0     	mov	x0, x22
     d40: 52800101     	mov	w1, #8
     d44: 94000000     	bl	0xd44 <__ZN102_$LT$core..iter..adapters..map..Map$LT$I$C$F$GT$$u20$as$u20$core..iter..traits..iterator..Iterator$GT$4fold17h26e14e617baa452eE+0x20c>
     d48: b40018e0     	cbz	x0, 0x1064 <__ZN102_$LT$core..iter..adapters..map..Map$LT$I$C$F$GT$$u20$as$u20$core..iter..traits..iterator..Iterator$GT$4fold17h26e14e617baa452eE+0x52c>
     d4c: aa0003f8     	mov	x24, x0
     d50: 14000003     	b	0xd5c <__ZN102_$LT$core..iter..adapters..map..Map$LT$I$C$F$GT$$u20$as$u20$core..iter..traits..iterator..Iterator$GT$4fold17h26e14e617baa452eE+0x224>
     d54: d2800016     	mov	x22, #0
     d58: 52800118     	mov	w24, #8
     d5c: aa1803e0     	mov	x0, x24
     d60: aa1703e1     	mov	x1, x23
     d64: aa1603e2     	mov	x2, x22
     d68: 94000000     	bl	0xd68 <__ZN102_$LT$core..iter..adapters..map..Map$LT$I$C$F$GT$$u20$as$u20$core..iter..traits..iterator..Iterator$GT$4fold17h26e14e617baa452eE+0x230>
     d6c: a90b63fa     	stp	x26, x24, [sp, #176]
     d70: f90063fa     	str	x26, [sp, #192]
     d74: 390323fb     	strb	w27, [sp, #200]
     d78: 9101c3e0     	add	x0, sp, #112
     d7c: 910243e1     	add	x1, sp, #144
     d80: 9102c3e2     	add	x2, sp, #176
     d84: 94000000     	bl	0xd84 <__ZN102_$LT$core..iter..adapters..map..Map$LT$I$C$F$GT$$u20$as$u20$core..iter..traits..iterator..Iterator$GT$4fold17h26e14e617baa452eE+0x24c>
     d88: 394223e8     	ldrb	w8, [sp, #136]
     d8c: 7100051f     	cmp	w8, #1
     d90: aa1403fa     	mov	x26, x20
     d94: f94037f6     	ldr	x22, [sp, #104]
     d98: 54000101     	b.ne	0xdb8 <__ZN102_$LT$core..iter..adapters..map..Map$LT$I$C$F$GT$$u20$as$u20$core..iter..traits..iterator..Iterator$GT$4fold17h26e14e617baa452eE+0x280>
     d9c: a93767b6     	stp	x22, x25, [x29, #-144]
     da0: f81803b6     	stur	x22, [x29, #-128]
     da4: f9403be8     	ldr	x8, [sp, #112]
     da8: b4fff228     	cbz	x8, 0xbec <__ZN102_$LT$core..iter..adapters..map..Map$LT$I$C$F$GT$$u20$as$u20$core..iter..traits..iterator..Iterator$GT$4fold17h26e14e617baa452eE+0xb4>
     dac: f9403fe0     	ldr	x0, [sp, #120]
     db0: d37df101     	lsl	x1, x8, #3
     db4: 17ffff8c     	b	0xbe4 <__ZN102_$LT$core..iter..adapters..map..Map$LT$I$C$F$GT$$u20$as$u20$core..iter..traits..iterator..Iterator$GT$4fold17h26e14e617baa452eE+0xac>
     db8: 34000213     	cbz	w19, 0xdf8 <__ZN102_$LT$core..iter..adapters..map..Map$LT$I$C$F$GT$$u20$as$u20$core..iter..traits..iterator..Iterator$GT$4fold17h26e14e617baa452eE+0x2c0>
     dbc: 7100067f     	cmp	w19, #1
     dc0: 54000461     	b.ne	0xe4c <__ZN102_$LT$core..iter..adapters..map..Map$LT$I$C$F$GT$$u20$as$u20$core..iter..traits..iterator..Iterator$GT$4fold17h26e14e617baa452eE+0x314>
     dc4: 52800049     	mov	w9, #2
     dc8: 4b080133     	sub	w19, w9, w8
     dcc: 3dc01fe0     	ldr	q0, [sp, #112]
     dd0: 3c9703a0     	stur	q0, [x29, #-144]
     dd4: f94043e8     	ldr	x8, [sp, #128]
     dd8: f81803a8     	stur	x8, [x29, #-128]
     ddc: 9101c3e9     	add	x9, sp, #112
     de0: b8419128     	ldur	w8, [x9, #25]
     de4: b900b3e8     	str	w8, [sp, #176]
     de8: b841c128     	ldur	w8, [x9, #28]
     dec: b80b33e8     	stur	w8, [sp, #179]
     df0: b5ffef76     	cbnz	x22, 0xbdc <__ZN102_$LT$core..iter..adapters..map..Map$LT$I$C$F$GT$$u20$as$u20$core..iter..traits..iterator..Iterator$GT$4fold17h26e14e617baa452eE+0xa4>
     df4: 17ffff7e     	b	0xbec <__ZN102_$LT$core..iter..adapters..map..Map$LT$I$C$F$GT$$u20$as$u20$core..iter..traits..iterator..Iterator$GT$4fold17h26e14e617baa452eE+0xb4>
     df8: 340002c8     	cbz	w8, 0xe50 <__ZN102_$LT$core..iter..adapters..map..Map$LT$I$C$F$GT$$u20$as$u20$core..iter..traits..iterator..Iterator$GT$4fold17h26e14e617baa452eE+0x318>
     dfc: a93967b6     	stp	x22, x25, [x29, #-112]
     e00: f81a03b6     	stur	x22, [x29, #-96]
     e04: 3dc01fe0     	ldr	q0, [sp, #112]
     e08: 3d8027e0     	str	q0, [sp, #144]
     e0c: f94043e8     	ldr	x8, [sp, #128]
     e10: f90053e8     	str	x8, [sp, #160]
     e14: f9404bf4     	ldr	x20, [sp, #144]
     e18: eb1402df     	cmp	x22, x20
     e1c: 540005a2     	b.hs	0xed0 <__ZN102_$LT$core..iter..adapters..map..Map$LT$I$C$F$GT$$u20$as$u20$core..iter..traits..iterator..Iterator$GT$4fold17h26e14e617baa452eE+0x398>
     e20: 3dc01fe0     	ldr	q0, [sp, #112]
     e24: 3d802fe0     	str	q0, [sp, #176]
     e28: f94043e8     	ldr	x8, [sp, #128]
     e2c: f90063e8     	str	x8, [sp, #192]
     e30: d10243a8     	sub	x8, x29, #144
     e34: 9102c3e0     	add	x0, sp, #176
     e38: d101c3a1     	sub	x1, x29, #112
     e3c: 94000000     	bl	0xe3c <__ZN102_$LT$core..iter..adapters..map..Map$LT$I$C$F$GT$$u20$as$u20$core..iter..traits..iterator..Iterator$GT$4fold17h26e14e617baa452eE+0x304>
     e40: d101c3a8     	sub	x8, x29, #112
     e44: b50005d6     	cbnz	x22, 0xefc <__ZN102_$LT$core..iter..adapters..map..Map$LT$I$C$F$GT$$u20$as$u20$core..iter..traits..iterator..Iterator$GT$4fold17h26e14e617baa452eE+0x3c4>
     e48: 14000031     	b	0xf0c <__ZN102_$LT$core..iter..adapters..map..Map$LT$I$C$F$GT$$u20$as$u20$core..iter..traits..iterator..Iterator$GT$4fold17h26e14e617baa452eE+0x3d4>
     e4c: 34fffd88     	cbz	w8, 0xdfc <__ZN102_$LT$core..iter..adapters..map..Map$LT$I$C$F$GT$$u20$as$u20$core..iter..traits..iterator..Iterator$GT$4fold17h26e14e617baa452eE+0x2c4>
     e50: f94043e8     	ldr	x8, [sp, #128]
     e54: eb0802df     	cmp	x22, x8
     e58: 1a9f07e9     	cset	w9, ne
     e5c: 5a9f212c     	csinv	w12, w9, wzr, hs
     e60: 340005ec     	cbz	w12, 0xf1c <__ZN102_$LT$core..iter..adapters..map..Map$LT$I$C$F$GT$$u20$as$u20$core..iter..traits..iterator..Iterator$GT$4fold17h26e14e617baa452eE+0x3e4>
     e64: 12001d88     	and	w8, w12, #0xff
     e68: 7103fd1f     	cmp	w8, #255
     e6c: 54000780     	b.eq	0xf5c <__ZN102_$LT$core..iter..adapters..map..Map$LT$I$C$F$GT$$u20$as$u20$core..iter..traits..iterator..Iterator$GT$4fold17h26e14e617baa452eE+0x424>
     e70: 7100051f     	cmp	w8, #1
     e74: 54000c41     	b.ne	0xffc <__ZN102_$LT$core..iter..adapters..map..Map$LT$I$C$F$GT$$u20$as$u20$core..iter..traits..iterator..Iterator$GT$4fold17h26e14e617baa452eE+0x4c4>
     e78: a90967f6     	stp	x22, x25, [sp, #144]
     e7c: f90053f6     	str	x22, [sp, #160]
     e80: 3dc01fe0     	ldr	q0, [sp, #112]
     e84: 3d802fe0     	str	q0, [sp, #176]
     e88: f94043e8     	ldr	x8, [sp, #128]
     e8c: f90063e8     	str	x8, [sp, #192]
     e90: d101c3a8     	sub	x8, x29, #112
     e94: 910243e0     	add	x0, sp, #144
     e98: 9102c3e1     	add	x1, sp, #176
     e9c: 94000000     	bl	0xe9c <__ZN102_$LT$core..iter..adapters..map..Map$LT$I$C$F$GT$$u20$as$u20$core..iter..traits..iterator..Iterator$GT$4fold17h26e14e617baa452eE+0x364>
     ea0: f9405be8     	ldr	x8, [sp, #176]
     ea4: b40000a8     	cbz	x8, 0xeb8 <__ZN102_$LT$core..iter..adapters..map..Map$LT$I$C$F$GT$$u20$as$u20$core..iter..traits..iterator..Iterator$GT$4fold17h26e14e617baa452eE+0x380>
     ea8: f9405fe0     	ldr	x0, [sp, #184]
     eac: d37df101     	lsl	x1, x8, #3
     eb0: 52800102     	mov	w2, #8
     eb4: 94000000     	bl	0xeb4 <__ZN102_$LT$core..iter..adapters..map..Map$LT$I$C$F$GT$$u20$as$u20$core..iter..traits..iterator..Iterator$GT$4fold17h26e14e617baa452eE+0x37c>
     eb8: 7100067f     	cmp	w19, #1
     ebc: 540007e0     	b.eq	0xfb8 <__ZN102_$LT$core..iter..adapters..map..Map$LT$I$C$F$GT$$u20$as$u20$core..iter..traits..iterator..Iterator$GT$4fold17h26e14e617baa452eE+0x480>
     ec0: f85a03a8     	ldur	x8, [x29, #-96]
     ec4: f100011f     	cmp	x8, #0
     ec8: 1a9f1673     	csinc	w19, w19, wzr, ne
     ecc: 14000046     	b	0xfe4 <__ZN102_$LT$core..iter..adapters..map..Map$LT$I$C$F$GT$$u20$as$u20$core..iter..traits..iterator..Iterator$GT$4fold17h26e14e617baa452eE+0x4ac>
     ed0: 3cd903a0     	ldur	q0, [x29, #-112]
     ed4: 3d802fe0     	str	q0, [sp, #176]
     ed8: f85a03a8     	ldur	x8, [x29, #-96]
     edc: f90063e8     	str	x8, [sp, #192]
     ee0: d10243a8     	sub	x8, x29, #144
     ee4: 9102c3e0     	add	x0, sp, #176
     ee8: 910243e1     	add	x1, sp, #144
     eec: 94000000     	bl	0xeec <__ZN102_$LT$core..iter..adapters..map..Map$LT$I$C$F$GT$$u20$as$u20$core..iter..traits..iterator..Iterator$GT$4fold17h26e14e617baa452eE+0x3b4>
     ef0: 910243e8     	add	x8, sp, #144
     ef4: aa1403f6     	mov	x22, x20
     ef8: b40000b4     	cbz	x20, 0xf0c <__ZN102_$LT$core..iter..adapters..map..Map$LT$I$C$F$GT$$u20$as$u20$core..iter..traits..iterator..Iterator$GT$4fold17h26e14e617baa452eE+0x3d4>
     efc: f9400500     	ldr	x0, [x8, #8]
     f00: d37df2c1     	lsl	x1, x22, #3
     f04: 52800102     	mov	w2, #8
     f08: 94000000     	bl	0xf08 <__ZN102_$LT$core..iter..adapters..map..Map$LT$I$C$F$GT$$u20$as$u20$core..iter..traits..iterator..Iterator$GT$4fold17h26e14e617baa452eE+0x3d0>
     f0c: f85803a8     	ldur	x8, [x29, #-128]
     f10: f100011f     	cmp	x8, #0
     f14: 1a9f1673     	csinc	w19, w19, wzr, ne
     f18: 17ffff35     	b	0xbec <__ZN102_$LT$core..iter..adapters..map..Map$LT$I$C$F$GT$$u20$as$u20$core..iter..traits..iterator..Iterator$GT$4fold17h26e14e617baa452eE+0xb4>
     f1c: f9403fe9     	ldr	x9, [sp, #120]
     f20: d37df108     	lsl	x8, x8, #3
     f24: d1002129     	sub	x9, x9, #8
     f28: d100232a     	sub	x10, x25, #8
     f2c: d37df2cb     	lsl	x11, x22, #3
     f30: b400084b     	cbz	x11, 0x1038 <__ZN102_$LT$core..iter..adapters..map..Map$LT$I$C$F$GT$$u20$as$u20$core..iter..traits..iterator..Iterator$GT$4fold17h26e14e617baa452eE+0x500>
     f34: b4fffa28     	cbz	x8, 0xe78 <__ZN102_$LT$core..iter..adapters..map..Map$LT$I$C$F$GT$$u20$as$u20$core..iter..traits..iterator..Iterator$GT$4fold17h26e14e617baa452eE+0x340>
     f38: f86b694c     	ldr	x12, [x10, x11]
     f3c: f868692d     	ldr	x13, [x9, x8]
     f40: eb0c01bf     	cmp	x13, x12
     f44: 1a9f07ec     	cset	w12, ne
     f48: 5a9f918c     	csinv	w12, w12, wzr, ls
     f4c: d1002108     	sub	x8, x8, #8
     f50: d100216b     	sub	x11, x11, #8
     f54: 34fffeec     	cbz	w12, 0xf30 <__ZN102_$LT$core..iter..adapters..map..Map$LT$I$C$F$GT$$u20$as$u20$core..iter..traits..iterator..Iterator$GT$4fold17h26e14e617baa452eE+0x3f8>
     f58: 17ffffc3     	b	0xe64 <__ZN102_$LT$core..iter..adapters..map..Map$LT$I$C$F$GT$$u20$as$u20$core..iter..traits..iterator..Iterator$GT$4fold17h26e14e617baa452eE+0x32c>
     f5c: 3dc01fe0     	ldr	q0, [sp, #112]
     f60: 3d8027e0     	str	q0, [sp, #144]
     f64: f94043e8     	ldr	x8, [sp, #128]
     f68: f90053e8     	str	x8, [sp, #160]
     f6c: a90b67f6     	stp	x22, x25, [sp, #176]
     f70: f90063f6     	str	x22, [sp, #192]
     f74: d101c3a8     	sub	x8, x29, #112
     f78: 910243e0     	add	x0, sp, #144
     f7c: 9102c3e1     	add	x1, sp, #176
     f80: 94000000     	bl	0xf80 <__ZN102_$LT$core..iter..adapters..map..Map$LT$I$C$F$GT$$u20$as$u20$core..iter..traits..iterator..Iterator$GT$4fold17h26e14e617baa452eE+0x448>
     f84: f9405be8     	ldr	x8, [sp, #176]
     f88: b40000a8     	cbz	x8, 0xf9c <__ZN102_$LT$core..iter..adapters..map..Map$LT$I$C$F$GT$$u20$as$u20$core..iter..traits..iterator..Iterator$GT$4fold17h26e14e617baa452eE+0x464>
     f8c: f9405fe0     	ldr	x0, [sp, #184]
     f90: d37df101     	lsl	x1, x8, #3
     f94: 52800102     	mov	w2, #8
     f98: 94000000     	bl	0xf98 <__ZN102_$LT$core..iter..adapters..map..Map$LT$I$C$F$GT$$u20$as$u20$core..iter..traits..iterator..Iterator$GT$4fold17h26e14e617baa452eE+0x460>
     f9c: 370000f3     	tbnz	w19, #0, 0xfb8 <__ZN102_$LT$core..iter..adapters..map..Map$LT$I$C$F$GT$$u20$as$u20$core..iter..traits..iterator..Iterator$GT$4fold17h26e14e617baa452eE+0x480>
     fa0: 52800048     	mov	w8, #2
     fa4: 4b130108     	sub	w8, w8, w19
     fa8: f85a03a9     	ldur	x9, [x29, #-96]
     fac: f100013f     	cmp	x9, #0
     fb0: 1a9f1513     	csinc	w19, w8, wzr, ne
     fb4: 1400000c     	b	0xfe4 <__ZN102_$LT$core..iter..adapters..map..Map$LT$I$C$F$GT$$u20$as$u20$core..iter..traits..iterator..Iterator$GT$4fold17h26e14e617baa452eE+0x4ac>
     fb8: f81a03bf     	stur	xzr, [x29, #-96]
     fbc: f85903a8     	ldur	x8, [x29, #-112]
     fc0: f100111f     	cmp	x8, #4
     fc4: 540000e3     	b.lo	0xfe0 <__ZN102_$LT$core..iter..adapters..map..Map$LT$I$C$F$GT$$u20$as$u20$core..iter..traits..iterator..Iterator$GT$4fold17h26e14e617baa452eE+0x4a8>
     fc8: d37df101     	lsl	x1, x8, #3
     fcc: f85983a0     	ldur	x0, [x29, #-104]
     fd0: 52800102     	mov	w2, #8
     fd4: 94000000     	bl	0xfd4 <__ZN102_$LT$core..iter..adapters..map..Map$LT$I$C$F$GT$$u20$as$u20$core..iter..traits..iterator..Iterator$GT$4fold17h26e14e617baa452eE+0x49c>
     fd8: 52800108     	mov	w8, #8
     fdc: a93923bf     	stp	xzr, x8, [x29, #-112]
     fe0: 52800033     	mov	w19, #1
     fe4: f94033ea     	ldr	x10, [sp, #96]
     fe8: 3cd903a0     	ldur	q0, [x29, #-112]
     fec: 3c9703a0     	stur	q0, [x29, #-144]
     ff0: f85a03a8     	ldur	x8, [x29, #-96]
     ff4: f81803a8     	stur	x8, [x29, #-128]
     ff8: 17fffefe     	b	0xbf0 <__ZN102_$LT$core..iter..adapters..map..Map$LT$I$C$F$GT$$u20$as$u20$core..iter..traits..iterator..Iterator$GT$4fold17h26e14e617baa452eE+0xb8>
     ffc: f81803bf     	stur	xzr, [x29, #-128]
    1000: 90000008     	adrp	x8, 0x1000 <__ZN102_$LT$core..iter..adapters..map..Map$LT$I$C$F$GT$$u20$as$u20$core..iter..traits..iterator..Iterator$GT$4fold17h26e14e617baa452eE+0x4c8>
    1004: 91000108     	add	x8, x8, #0
    1008: 3dc00100     	ldr	q0, [x8]
    100c: 3c9703a0     	stur	q0, [x29, #-144]
    1010: b900b3ff     	str	wzr, [sp, #176]
    1014: b80b33ff     	stur	wzr, [sp, #179]
    1018: f9403be8     	ldr	x8, [sp, #112]
    101c: b4000148     	cbz	x8, 0x1044 <__ZN102_$LT$core..iter..adapters..map..Map$LT$I$C$F$GT$$u20$as$u20$core..iter..traits..iterator..Iterator$GT$4fold17h26e14e617baa452eE+0x50c>
    1020: f9403fe0     	ldr	x0, [sp, #120]
    1024: d37df101     	lsl	x1, x8, #3
    1028: 52800102     	mov	w2, #8
    102c: 94000000     	bl	0x102c <__ZN102_$LT$core..iter..adapters..map..Map$LT$I$C$F$GT$$u20$as$u20$core..iter..traits..iterator..Iterator$GT$4fold17h26e14e617baa452eE+0x4f4>
    1030: 52800033     	mov	w19, #1
    1034: 17ffff6f     	b	0xdf0 <__ZN102_$LT$core..iter..adapters..map..Map$LT$I$C$F$GT$$u20$as$u20$core..iter..traits..iterator..Iterator$GT$4fold17h26e14e617baa452eE+0x2b8>
    1038: f100011f     	cmp	x8, #0
    103c: 5a9f03ec     	csetm	w12, ne
    1040: 17ffff89     	b	0xe64 <__ZN102_$LT$core..iter..adapters..map..Map$LT$I$C$F$GT$$u20$as$u20$core..iter..traits..iterator..Iterator$GT$4fold17h26e14e617baa452eE+0x32c>
    1044: 52800033     	mov	w19, #1
    1048: 17ffff6a     	b	0xdf0 <__ZN102_$LT$core..iter..adapters..map..Map$LT$I$C$F$GT$$u20$as$u20$core..iter..traits..iterator..Iterator$GT$4fold17h26e14e617baa452eE+0x2b8>
    104c: f9000fff     	str	xzr, [sp, #24]
    1050: f9400fe0     	ldr	x0, [sp, #24]
    1054: aa1503e1     	mov	x1, x21
    1058: 94000000     	bl	0x1058 <__ZN102_$LT$core..iter..adapters..map..Map$LT$I$C$F$GT$$u20$as$u20$core..iter..traits..iterator..Iterator$GT$4fold17h26e14e617baa452eE+0x520>
    105c: 1400000a     	b	0x1084 <__ZN102_$LT$core..iter..adapters..map..Map$LT$I$C$F$GT$$u20$as$u20$core..iter..traits..iterator..Iterator$GT$4fold17h26e14e617baa452eE+0x54c>
    1060: f9000fff     	str	xzr, [sp, #24]
    1064: f9400fe0     	ldr	x0, [sp, #24]
    1068: aa1603e1     	mov	x1, x22
    106c: 94000000     	bl	0x106c <__ZN102_$LT$core..iter..adapters..map..Map$LT$I$C$F$GT$$u20$as$u20$core..iter..traits..iterator..Iterator$GT$4fold17h26e14e617baa452eE+0x534>
    1070: 14000005     	b	0x1084 <__ZN102_$LT$core..iter..adapters..map..Map$LT$I$C$F$GT$$u20$as$u20$core..iter..traits..iterator..Iterator$GT$4fold17h26e14e617baa452eE+0x54c>
    1074: f9000fff     	str	xzr, [sp, #24]
    1078: f9400fe0     	ldr	x0, [sp, #24]
    107c: aa1603e1     	mov	x1, x22
    1080: 94000000     	bl	0x1080 <__ZN102_$LT$core..iter..adapters..map..Map$LT$I$C$F$GT$$u20$as$u20$core..iter..traits..iterator..Iterator$GT$4fold17h26e14e617baa452eE+0x548>
    1084: d4200020     	brk	#0x1
    1088: 14000001     	b	0x108c <__ZN102_$LT$core..iter..adapters..map..Map$LT$I$C$F$GT$$u20$as$u20$core..iter..traits..iterator..Iterator$GT$4fold17h26e14e617baa452eE+0x554>
    108c: aa0003f3     	mov	x19, x0
    1090: f9405be8     	ldr	x8, [sp, #176]
    1094: b40004e8     	cbz	x8, 0x1130 <__ZN102_$LT$core..iter..adapters..map..Map$LT$I$C$F$GT$$u20$as$u20$core..iter..traits..iterator..Iterator$GT$4fold17h26e14e617baa452eE+0x5f8>
    1098: f9405fe0     	ldr	x0, [sp, #184]
    109c: d37df101     	lsl	x1, x8, #3
    10a0: 1400001c     	b	0x1110 <__ZN102_$LT$core..iter..adapters..map..Map$LT$I$C$F$GT$$u20$as$u20$core..iter..traits..iterator..Iterator$GT$4fold17h26e14e617baa452eE+0x5d8>
    10a4: aa0003f3     	mov	x19, x0
    10a8: aa1603f4     	mov	x20, x22
    10ac: f94007e8     	ldr	x8, [sp, #8]
    10b0: f9000be8     	str	x8, [sp, #16]
    10b4: b5000096     	cbnz	x22, 0x10c4 <__ZN102_$LT$core..iter..adapters..map..Map$LT$I$C$F$GT$$u20$as$u20$core..iter..traits..iterator..Iterator$GT$4fold17h26e14e617baa452eE+0x58c>
    10b8: 1400001e     	b	0x1130 <__ZN102_$LT$core..iter..adapters..map..Map$LT$I$C$F$GT$$u20$as$u20$core..iter..traits..iterator..Iterator$GT$4fold17h26e14e617baa452eE+0x5f8>
    10bc: aa0003f3     	mov	x19, x0
    10c0: b4000394     	cbz	x20, 0x1130 <__ZN102_$LT$core..iter..adapters..map..Map$LT$I$C$F$GT$$u20$as$u20$core..iter..traits..iterator..Iterator$GT$4fold17h26e14e617baa452eE+0x5f8>
    10c4: f9400be8     	ldr	x8, [sp, #16]
    10c8: f9400100     	ldr	x0, [x8]
    10cc: d37df281     	lsl	x1, x20, #3
    10d0: 14000010     	b	0x1110 <__ZN102_$LT$core..iter..adapters..map..Map$LT$I$C$F$GT$$u20$as$u20$core..iter..traits..iterator..Iterator$GT$4fold17h26e14e617baa452eE+0x5d8>
    10d4: aa0003f3     	mov	x19, x0
    10d8: 14000009     	b	0x10fc <__ZN102_$LT$core..iter..adapters..map..Map$LT$I$C$F$GT$$u20$as$u20$core..iter..traits..iterator..Iterator$GT$4fold17h26e14e617baa452eE+0x5c4>
    10dc: aa0003f3     	mov	x19, x0
    10e0: 14000007     	b	0x10fc <__ZN102_$LT$core..iter..adapters..map..Map$LT$I$C$F$GT$$u20$as$u20$core..iter..traits..iterator..Iterator$GT$4fold17h26e14e617baa452eE+0x5c4>
    10e4: aa0003f3     	mov	x19, x0
    10e8: b40000bc     	cbz	x28, 0x10fc <__ZN102_$LT$core..iter..adapters..map..Map$LT$I$C$F$GT$$u20$as$u20$core..iter..traits..iterator..Iterator$GT$4fold17h26e14e617baa452eE+0x5c4>
    10ec: d37df381     	lsl	x1, x28, #3
    10f0: aa1503e0     	mov	x0, x21
    10f4: 52800102     	mov	w2, #8
    10f8: 94000000     	bl	0x10f8 <__ZN102_$LT$core..iter..adapters..map..Map$LT$I$C$F$GT$$u20$as$u20$core..iter..traits..iterator..Iterator$GT$4fold17h26e14e617baa452eE+0x5c0>
    10fc: f94037e8     	ldr	x8, [sp, #104]
    1100: b4000188     	cbz	x8, 0x1130 <__ZN102_$LT$core..iter..adapters..map..Map$LT$I$C$F$GT$$u20$as$u20$core..iter..traits..iterator..Iterator$GT$4fold17h26e14e617baa452eE+0x5f8>
    1104: f94037e8     	ldr	x8, [sp, #104]
    1108: d37df101     	lsl	x1, x8, #3
    110c: aa1903e0     	mov	x0, x25
    1110: 52800102     	mov	w2, #8
    1114: 94000000     	bl	0x1114 <__ZN102_$LT$core..iter..adapters..map..Map$LT$I$C$F$GT$$u20$as$u20$core..iter..traits..iterator..Iterator$GT$4fold17h26e14e617baa452eE+0x5dc>
    1118: f94013e8     	ldr	x8, [sp, #32]
    111c: f94033e9     	ldr	x9, [sp, #96]
    1120: f9000109     	str	x9, [x8]
    1124: aa1303e0     	mov	x0, x19
    1128: 94000000     	bl	0x1128 <__ZN102_$LT$core..iter..adapters..map..Map$LT$I$C$F$GT$$u20$as$u20$core..iter..traits..iterator..Iterator$GT$4fold17h26e14e617baa452eE+0x5f0>
    112c: aa0003f3     	mov	x19, x0
    1130: f94013e8     	ldr	x8, [sp, #32]
    1134: f94033e9     	ldr	x9, [sp, #96]
    1138: f9000109     	str	x9, [x8]
    113c: aa1303e0     	mov	x0, x19
    1140: 94000000     	bl	0x1140 <__ZN102_$LT$core..iter..adapters..map..Map$LT$I$C$F$GT$$u20$as$u20$core..iter..traits..iterator..Iterator$GT$4fold17h26e14e617baa452eE+0x608>

0000000000001144 <__ZN102_$LT$core..iter..adapters..map..Map$LT$I$C$F$GT$$u20$as$u20$core..iter..traits..iterator..Iterator$GT$4fold17hc36345c4012344cfE>:
    1144: d10283ff     	sub	sp, sp, #160
    1148: a9046ffc     	stp	x28, x27, [sp, #64]
    114c: a90567fa     	stp	x26, x25, [sp, #80]
    1150: a9065ff8     	stp	x24, x23, [sp, #96]
    1154: a90757f6     	stp	x22, x21, [sp, #112]
    1158: a9084ff4     	stp	x20, x19, [sp, #128]
    115c: a9097bfd     	stp	x29, x30, [sp, #144]
    1160: 910243fd     	add	x29, sp, #144
    1164: a9405454     	ldp	x20, x21, [x2]
    1168: eb01001f     	cmp	x0, x1
    116c: 54000740     	b.eq	0x1254 <__ZN102_$LT$core..iter..adapters..map..Map$LT$I$C$F$GT$$u20$as$u20$core..iter..traits..iterator..Iterator$GT$4fold17hc36345c4012344cfE+0x110>
    1170: aa0003f3     	mov	x19, x0
    1174: f9400848     	ldr	x8, [x2, #16]
    1178: cb000029     	sub	x9, x1, x0
    117c: d341fd37     	lsr	x23, x9, #1
    1180: 910083e9     	add	x9, sp, #32
    1184: 91002136     	add	x22, x9, #8
    1188: 8b151508     	add	x8, x8, x21, lsl #5
    118c: 91006518     	add	x24, x8, #25
    1190: 90000019     	adrp	x25, 0x1000 <__ZN102_$LT$core..iter..adapters..map..Map$LT$I$C$F$GT$$u20$as$u20$core..iter..traits..iterator..Iterator$GT$4fold17hc36345c4012344cfE+0x4c>
    1194: 91000339     	add	x25, x25, #0
    1198: 9000001a     	adrp	x26, 0x1000 <__ZN102_$LT$core..iter..adapters..map..Map$LT$I$C$F$GT$$u20$as$u20$core..iter..traits..iterator..Iterator$GT$4fold17hc36345c4012344cfE+0x54>
    119c: 9100035a     	add	x26, x26, #0
    11a0: 5280003b     	mov	w27, #1
    11a4: 14000010     	b	0x11e4 <__ZN102_$LT$core..iter..adapters..map..Map$LT$I$C$F$GT$$u20$as$u20$core..iter..traits..iterator..Iterator$GT$4fold17hc36345c4012344cfE+0xa0>
    11a8: f9000bff     	str	xzr, [sp, #16]
    11ac: 3dc00320     	ldr	q0, [x25]
    11b0: 3d8003e0     	str	q0, [sp]
    11b4: 52800028     	mov	w8, #1
    11b8: 3dc003e0     	ldr	q0, [sp]
    11bc: 3c9e7300     	stur	q0, [x24, #-25]
    11c0: f9400be9     	ldr	x9, [sp, #16]
    11c4: f81f7309     	stur	x9, [x24, #-9]
    11c8: 381ff308     	sturb	w8, [x24, #-1]
    11cc: b900031f     	str	wzr, [x24]
    11d0: b800331f     	stur	wzr, [x24, #3]
    11d4: 910006b5     	add	x21, x21, #1
    11d8: 91008318     	add	x24, x24, #32
    11dc: f10006f7     	subs	x23, x23, #1
    11e0: 540003a0     	b.eq	0x1254 <__ZN102_$LT$core..iter..adapters..map..Map$LT$I$C$F$GT$$u20$as$u20$core..iter..traits..iterator..Iterator$GT$4fold17hc36345c4012344cfE+0x110>
    11e4: 7880267c     	ldrsh	x28, [x19], #2
    11e8: b7f801dc     	tbnz	x28, #63, 0x1220 <__ZN102_$LT$core..iter..adapters..map..Map$LT$I$C$F$GT$$u20$as$u20$core..iter..traits..iterator..Iterator$GT$4fold17hc36345c4012344cfE+0xdc>
    11ec: 34fffdfc     	cbz	w28, 0x11a8 <__ZN102_$LT$core..iter..adapters..map..Map$LT$I$C$F$GT$$u20$as$u20$core..iter..traits..iterator..Iterator$GT$4fold17hc36345c4012344cfE+0x64>
    11f0: f9001bff     	str	xzr, [sp, #48]
    11f4: 3dc00340     	ldr	q0, [x26]
    11f8: 3d800be0     	str	q0, [sp, #32]
    11fc: 910083e0     	add	x0, sp, #32
    1200: 94000000     	bl	0x1200 <__ZN102_$LT$core..iter..adapters..map..Map$LT$I$C$F$GT$$u20$as$u20$core..iter..traits..iterator..Iterator$GT$4fold17hc36345c4012344cfE+0xbc>
    1204: f94017e8     	ldr	x8, [sp, #40]
    1208: f900011c     	str	x28, [x8]
    120c: f9000bfb     	str	x27, [sp, #16]
    1210: 3dc00be0     	ldr	q0, [sp, #32]
    1214: 3d8003e0     	str	q0, [sp]
    1218: 52800048     	mov	w8, #2
    121c: 17ffffe7     	b	0x11b8 <__ZN102_$LT$core..iter..adapters..map..Map$LT$I$C$F$GT$$u20$as$u20$core..iter..traits..iterator..Iterator$GT$4fold17hc36345c4012344cfE+0x74>
    1220: f9001bff     	str	xzr, [sp, #48]
    1224: 3dc00340     	ldr	q0, [x26]
    1228: 3d800be0     	str	q0, [sp, #32]
    122c: 910083e0     	add	x0, sp, #32
    1230: 94000000     	bl	0x1230 <__ZN102_$LT$core..iter..adapters..map..Map$LT$I$C$F$GT$$u20$as$u20$core..iter..traits..iterator..Iterator$GT$4fold17hc36345c4012344cfE+0xec>
    1234: 52800008     	mov	w8, #0
    1238: cb1c03e9     	neg	x9, x28
    123c: f94017ea     	ldr	x10, [sp, #40]
    1240: f9000149     	str	x9, [x10]
    1244: f9000bfb     	str	x27, [sp, #16]
    1248: 3dc00be0     	ldr	q0, [sp, #32]
    124c: 3d8003e0     	str	q0, [sp]
    1250: 17ffffda     	b	0x11b8 <__ZN102_$LT$core..iter..adapters..map..Map$LT$I$C$F$GT$$u20$as$u20$core..iter..traits..iterator..Iterator$GT$4fold17hc36345c4012344cfE+0x74>
    1254: f9000295     	str	x21, [x20]
    1258: a9497bfd     	ldp	x29, x30, [sp, #144]
    125c: a9484ff4     	ldp	x20, x19, [sp, #128]
    1260: a94757f6     	ldp	x22, x21, [sp, #112]
    1264: a9465ff8     	ldp	x24, x23, [sp, #96]
    1268: a94567fa     	ldp	x26, x25, [sp, #80]
    126c: a9446ffc     	ldp	x28, x27, [sp, #64]
    1270: 910283ff     	add	sp, sp, #160
    1274: d65f03c0     	ret
    1278: 14000001     	b	0x127c <__ZN102_$LT$core..iter..adapters..map..Map$LT$I$C$F$GT$$u20$as$u20$core..iter..traits..iterator..Iterator$GT$4fold17hc36345c4012344cfE+0x138>
    127c: aa0003f3     	mov	x19, x0
    1280: f94013e8     	ldr	x8, [sp, #32]
    1284: b40000a8     	cbz	x8, 0x1298 <__ZN102_$LT$core..iter..adapters..map..Map$LT$I$C$F$GT$$u20$as$u20$core..iter..traits..iterator..Iterator$GT$4fold17hc36345c4012344cfE+0x154>
    1288: f94002c0     	ldr	x0, [x22]
    128c: d37df101     	lsl	x1, x8, #3
    1290: 52800102     	mov	w2, #8
    1294: 94000000     	bl	0x1294 <__ZN102_$LT$core..iter..adapters..map..Map$LT$I$C$F$GT$$u20$as$u20$core..iter..traits..iterator..Iterator$GT$4fold17hc36345c4012344cfE+0x150>
    1298: f9000295     	str	x21, [x20]
    129c: aa1303e0     	mov	x0, x19
    12a0: 94000000     	bl	0x12a0 <__ZN102_$LT$core..iter..adapters..map..Map$LT$I$C$F$GT$$u20$as$u20$core..iter..traits..iterator..Iterator$GT$4fold17hc36345c4012344cfE+0x15c>

00000000000012a4 <__ZN102_$LT$core..iter..adapters..map..Map$LT$I$C$F$GT$$u20$as$u20$core..iter..traits..iterator..Iterator$GT$4fold17h80ab2831877a5011E>:
    12a4: a942300b     	ldp	x11, x12, [x0, #32]
    12a8: a9402428     	ldp	x8, x9, [x1]
    12ac: eb0b018f     	subs	x15, x12, x11
    12b0: 540004c0     	b.eq	0x1348 <__ZN102_$LT$core..iter..adapters..map..Map$LT$I$C$F$GT$$u20$as$u20$core..iter..traits..iterator..Iterator$GT$4fold17h80ab2831877a5011E+0xa4>
    12b4: f940000d     	ldr	x13, [x0]
    12b8: f940080e     	ldr	x14, [x0, #16]
    12bc: f940082a     	ldr	x10, [x1, #16]
    12c0: f10031ff     	cmp	x15, #12
    12c4: 540001a3     	b.lo	0x12f8 <__ZN102_$LT$core..iter..adapters..map..Map$LT$I$C$F$GT$$u20$as$u20$core..iter..traits..iterator..Iterator$GT$4fold17h80ab2831877a5011E+0x54>
    12c8: aa2b03f0     	mvn	x16, x11
    12cc: 8b100190     	add	x16, x12, x16
    12d0: 8b091151     	add	x17, x10, x9, lsl #4
    12d4: d37cee00     	lsl	x0, x16, #4
    12d8: 91002221     	add	x1, x17, #8
    12dc: 8b000022     	add	x2, x1, x0
    12e0: 8b000220     	add	x0, x17, x0
    12e4: eb11001f     	cmp	x0, x17
    12e8: fa412040     	ccmp	x2, x1, #0, hs
    12ec: d37cfe10     	lsr	x16, x16, #60
    12f0: fa402a00     	ccmp	x16, #0, #0, hs
    12f4: 540002e0     	b.eq	0x1350 <__ZN102_$LT$core..iter..adapters..map..Map$LT$I$C$F$GT$$u20$as$u20$core..iter..traits..iterator..Iterator$GT$4fold17h80ab2831877a5011E+0xac>
    12f8: d2800010     	mov	x16, #0
    12fc: 8b0b020f     	add	x15, x16, x11
    1300: cb0c01eb     	sub	x11, x15, x12
    1304: d37cedef     	lsl	x15, x15, #4
    1308: 8b0e01ec     	add	x12, x15, x14
    130c: 9100218c     	add	x12, x12, #8
    1310: 8b0f01ad     	add	x13, x13, x15
    1314: 6d7f8580     	ldp	d0, d1, [x12, #-8]
    1318: 3cc105a2     	ldr	q2, [x13], #16
    131c: 4fc19041     	fmul.2d	v1, v2, v1[0]
    1320: 6e014021     	ext.16b	v1, v1, v1, #8
    1324: 4fc09040     	fmul.2d	v0, v2, v0[0]
    1328: 4ee1d402     	fsub.2d	v2, v0, v1
    132c: 4e61d400     	fadd.2d	v0, v0, v1
    1330: 6e184402     	mov.d	v2[1], v0[1]
    1334: 3ca97942     	str	q2, [x10, x9, lsl #4]
    1338: 91000529     	add	x9, x9, #1
    133c: 9100418c     	add	x12, x12, #16
    1340: b100056b     	adds	x11, x11, #1
    1344: 54fffe83     	b.lo	0x1314 <__ZN102_$LT$core..iter..adapters..map..Map$LT$I$C$F$GT$$u20$as$u20$core..iter..traits..iterator..Iterator$GT$4fold17h80ab2831877a5011E+0x70>
    1348: f9000109     	str	x9, [x8]
    134c: d65f03c0     	ret
    1350: d2800010     	mov	x16, #0
    1354: d37ced61     	lsl	x1, x11, #4
    1358: 8b0c0120     	add	x0, x9, x12
    135c: cb0b0000     	sub	x0, x0, x11
    1360: 8b001142     	add	x2, x10, x0, lsl #4
    1364: d37ced80     	lsl	x0, x12, #4
    1368: 8b0001a3     	add	x3, x13, x0
    136c: 8b0101c4     	add	x4, x14, x1
    1370: 8b0001c0     	add	x0, x14, x0
    1374: eb00023f     	cmp	x17, x0
    1378: fa423082     	ccmp	x4, x2, #2, lo
    137c: 1a9f27e0     	cset	w0, lo
    1380: 8b0101a4     	add	x4, x13, x1
    1384: eb02009f     	cmp	x4, x2
    1388: fa433222     	ccmp	x17, x3, #2, lo
    138c: 54fffb83     	b.lo	0x12fc <__ZN102_$LT$core..iter..adapters..map..Map$LT$I$C$F$GT$$u20$as$u20$core..iter..traits..iterator..Iterator$GT$4fold17h80ab2831877a5011E+0x58>
    1390: 3707fb60     	tbnz	w0, #0, 0x12fc <__ZN102_$LT$core..iter..adapters..map..Map$LT$I$C$F$GT$$u20$as$u20$core..iter..traits..iterator..Iterator$GT$4fold17h80ab2831877a5011E+0x58>
    1394: 927ff9f0     	and	x16, x15, #0xfffffffffffffffe
    1398: 8b100129     	add	x9, x9, x16
    139c: 8b0101c0     	add	x0, x14, x1
    13a0: 8b0101a1     	add	x1, x13, x1
    13a4: aa1003e2     	mov	x2, x16
    13a8: 4cdf8c20     	ld2.2d	{ v0, v1 }, [x1], #32
    13ac: 4cdf8c02     	ld2.2d	{ v2, v3 }, [x0], #32
    13b0: 6e62dc04     	fmul.2d	v4, v0, v2
    13b4: 6e63dc25     	fmul.2d	v5, v1, v3
    13b8: 4ee5d484     	fsub.2d	v4, v4, v5
    13bc: 6e63dc06     	fmul.2d	v6, v0, v3
    13c0: 6e62dc20     	fmul.2d	v0, v1, v2
    13c4: 4e66d405     	fadd.2d	v5, v0, v6
    13c8: 4c9f8e24     	st2.2d	{ v4, v5 }, [x17], #32
    13cc: f1000842     	subs	x2, x2, #2
    13d0: 54fffec1     	b.ne	0x13a8 <__ZN102_$LT$core..iter..adapters..map..Map$LT$I$C$F$GT$$u20$as$u20$core..iter..traits..iterator..Iterator$GT$4fold17h80ab2831877a5011E+0x104>
    13d4: eb1001ff     	cmp	x15, x16
    13d8: 54fff921     	b.ne	0x12fc <__ZN102_$LT$core..iter..adapters..map..Map$LT$I$C$F$GT$$u20$as$u20$core..iter..traits..iterator..Iterator$GT$4fold17h80ab2831877a5011E+0x58>
    13dc: 17ffffdb     	b	0x1348 <__ZN102_$LT$core..iter..adapters..map..Map$LT$I$C$F$GT$$u20$as$u20$core..iter..traits..iterator..Iterator$GT$4fold17h80ab2831877a5011E+0xa4>

00000000000013e0 <__ZN102_$LT$core..iter..adapters..map..Map$LT$I$C$F$GT$$u20$as$u20$core..iter..traits..iterator..Iterator$GT$4fold17h35ede993c96f072bE>:
    13e0: d10283ff     	sub	sp, sp, #160
    13e4: a9046ffc     	stp	x28, x27, [sp, #64]
    13e8: a90567fa     	stp	x26, x25, [sp, #80]
    13ec: a9065ff8     	stp	x24, x23, [sp, #96]
    13f0: a90757f6     	stp	x22, x21, [sp, #112]
    13f4: a9084ff4     	stp	x20, x19, [sp, #128]
    13f8: a9097bfd     	stp	x29, x30, [sp, #144]
    13fc: 910243fd     	add	x29, sp, #144
    1400: a9402013     	ldp	x19, x8, [x0]
    1404: a9405434     	ldp	x20, x21, [x1]
    1408: eb08027f     	cmp	x19, x8
    140c: 54000860     	b.eq	0x1518 <__ZN102_$LT$core..iter..adapters..map..Map$LT$I$C$F$GT$$u20$as$u20$core..iter..traits..iterator..Iterator$GT$4fold17h35ede993c96f072bE+0x138>
    1410: f9400816     	ldr	x22, [x0, #16]
    1414: f9400829     	ldr	x9, [x1, #16]
    1418: cb130108     	sub	x8, x8, x19
    141c: d345fd17     	lsr	x23, x8, #5
    1420: 910043f8     	add	x24, sp, #16
    1424: 8b151128     	add	x8, x9, x21, lsl #4
    1428: 91002119     	add	x25, x8, #8
    142c: d2f0001a     	mov	x26, #-9223372036854775808
    1430: 14000008     	b	0x1450 <__ZN102_$LT$core..iter..adapters..map..Map$LT$I$C$F$GT$$u20$as$u20$core..iter..traits..iterator..Iterator$GT$4fold17h35ede993c96f072bE+0x70>
    1434: 9e620360     	scvtf	d0, x27
    1438: fc1f8320     	stur	d0, [x25, #-8]
    143c: f801073f     	str	xzr, [x25], #16
    1440: 910006b5     	add	x21, x21, #1
    1444: 91008273     	add	x19, x19, #32
    1448: f10006f7     	subs	x23, x23, #1
    144c: 54000660     	b.eq	0x1518 <__ZN102_$LT$core..iter..adapters..map..Map$LT$I$C$F$GT$$u20$as$u20$core..iter..traits..iterator..Iterator$GT$4fold17h35ede993c96f072bE+0x138>
    1450: f94002c2     	ldr	x2, [x22]
    1454: 910043e0     	add	x0, sp, #16
    1458: aa1303e1     	mov	x1, x19
    145c: 94000000     	bl	0x145c <__ZN102_$LT$core..iter..adapters..map..Map$LT$I$C$F$GT$$u20$as$u20$core..iter..traits..iterator..Iterator$GT$4fold17h35ede993c96f072bE+0x7c>
    1460: 3940a3e8     	ldrb	w8, [sp, #40]
    1464: 34000128     	cbz	w8, 0x1488 <__ZN102_$LT$core..iter..adapters..map..Map$LT$I$C$F$GT$$u20$as$u20$core..iter..traits..iterator..Iterator$GT$4fold17h35ede993c96f072bE+0xa8>
    1468: 7100051f     	cmp	w8, #1
    146c: 540000a0     	b.eq	0x1480 <__ZN102_$LT$core..iter..adapters..map..Map$LT$I$C$F$GT$$u20$as$u20$core..iter..traits..iterator..Iterator$GT$4fold17h35ede993c96f072bE+0xa0>
    1470: f94013e8     	ldr	x8, [sp, #32]
    1474: f100051f     	cmp	x8, #1
    1478: 54000360     	b.eq	0x14e4 <__ZN102_$LT$core..iter..adapters..map..Map$LT$I$C$F$GT$$u20$as$u20$core..iter..traits..iterator..Iterator$GT$4fold17h35ede993c96f072bE+0x104>
    147c: b5000228     	cbnz	x8, 0x14c0 <__ZN102_$LT$core..iter..adapters..map..Map$LT$I$C$F$GT$$u20$as$u20$core..iter..traits..iterator..Iterator$GT$4fold17h35ede993c96f072bE+0xe0>
    1480: d280001b     	mov	x27, #0
    1484: 14000009     	b	0x14a8 <__ZN102_$LT$core..iter..adapters..map..Map$LT$I$C$F$GT$$u20$as$u20$core..iter..traits..iterator..Iterator$GT$4fold17h35ede993c96f072bE+0xc8>
    1488: f94013e9     	ldr	x9, [sp, #32]
    148c: b40000c9     	cbz	x9, 0x14a4 <__ZN102_$LT$core..iter..adapters..map..Map$LT$I$C$F$GT$$u20$as$u20$core..iter..traits..iterator..Iterator$GT$4fold17h35ede993c96f072bE+0xc4>
    1490: f100053f     	cmp	x9, #1
    1494: 54000161     	b.ne	0x14c0 <__ZN102_$LT$core..iter..adapters..map..Map$LT$I$C$F$GT$$u20$as$u20$core..iter..traits..iterator..Iterator$GT$4fold17h35ede993c96f072bE+0xe0>
    1498: f9400fe0     	ldr	x0, [sp, #24]
    149c: f9400009     	ldr	x9, [x0]
    14a0: b7f802e9     	tbnz	x9, #63, 0x14fc <__ZN102_$LT$core..iter..adapters..map..Map$LT$I$C$F$GT$$u20$as$u20$core..iter..traits..iterator..Iterator$GT$4fold17h35ede993c96f072bE+0x11c>
    14a4: cb0903fb     	neg	x27, x9
    14a8: a94103e8     	ldp	x8, x0, [sp, #16]
    14ac: b4fffc48     	cbz	x8, 0x1434 <__ZN102_$LT$core..iter..adapters..map..Map$LT$I$C$F$GT$$u20$as$u20$core..iter..traits..iterator..Iterator$GT$4fold17h35ede993c96f072bE+0x54>
    14b0: d37df101     	lsl	x1, x8, #3
    14b4: 52800102     	mov	w2, #8
    14b8: 94000000     	bl	0x14b8 <__ZN102_$LT$core..iter..adapters..map..Map$LT$I$C$F$GT$$u20$as$u20$core..iter..traits..iterator..Iterator$GT$4fold17h35ede993c96f072bE+0xd8>
    14bc: 17ffffde     	b	0x1434 <__ZN102_$LT$core..iter..adapters..map..Map$LT$I$C$F$GT$$u20$as$u20$core..iter..traits..iterator..Iterator$GT$4fold17h35ede993c96f072bE+0x54>
    14c0: a94103e8     	ldp	x8, x0, [sp, #16]
    14c4: 3cc10300     	ldur	q0, [x24, #16]
    14c8: 3d800fe0     	str	q0, [sp, #48]
    14cc: 3dc00fe0     	ldr	q0, [sp, #48]
    14d0: 3d8003e0     	str	q0, [sp]
    14d4: eb1a011f     	cmp	x8, x26
    14d8: 54000321     	b.ne	0x153c <__ZN102_$LT$core..iter..adapters..map..Map$LT$I$C$F$GT$$u20$as$u20$core..iter..traits..iterator..Iterator$GT$4fold17h35ede993c96f072bE+0x15c>
    14dc: aa0003fb     	mov	x27, x0
    14e0: 17ffffd5     	b	0x1434 <__ZN102_$LT$core..iter..adapters..map..Map$LT$I$C$F$GT$$u20$as$u20$core..iter..traits..iterator..Iterator$GT$4fold17h35ede993c96f072bE+0x54>
    14e4: a94103e8     	ldp	x8, x0, [sp, #16]
    14e8: f940001b     	ldr	x27, [x0]
    14ec: 3cc10300     	ldur	q0, [x24, #16]
    14f0: 3d800fe0     	str	q0, [sp, #48]
    14f4: b6fffddb     	tbz	x27, #63, 0x14ac <__ZN102_$LT$core..iter..adapters..map..Map$LT$I$C$F$GT$$u20$as$u20$core..iter..traits..iterator..Iterator$GT$4fold17h35ede993c96f072bE+0xcc>
    14f8: 17fffff5     	b	0x14cc <__ZN102_$LT$core..iter..adapters..map..Map$LT$I$C$F$GT$$u20$as$u20$core..iter..traits..iterator..Iterator$GT$4fold17h35ede993c96f072bE+0xec>
    14fc: f9400be8     	ldr	x8, [sp, #16]
    1500: 3cc10300     	ldur	q0, [x24, #16]
    1504: 3d800fe0     	str	q0, [sp, #48]
    1508: d2f0001b     	mov	x27, #-9223372036854775808
    150c: eb1b013f     	cmp	x9, x27
    1510: 54fffce0     	b.eq	0x14ac <__ZN102_$LT$core..iter..adapters..map..Map$LT$I$C$F$GT$$u20$as$u20$core..iter..traits..iterator..Iterator$GT$4fold17h35ede993c96f072bE+0xcc>
    1514: 17ffffee     	b	0x14cc <__ZN102_$LT$core..iter..adapters..map..Map$LT$I$C$F$GT$$u20$as$u20$core..iter..traits..iterator..Iterator$GT$4fold17h35ede993c96f072bE+0xec>
    1518: f9000295     	str	x21, [x20]
    151c: a9497bfd     	ldp	x29, x30, [sp, #144]
    1520: a9484ff4     	ldp	x20, x19, [sp, #128]
    1524: a94757f6     	ldp	x22, x21, [sp, #112]
    1528: a9465ff8     	ldp	x24, x23, [sp, #96]
    152c: a94567fa     	ldp	x26, x25, [sp, #80]
    1530: a9446ffc     	ldp	x28, x27, [sp, #64]
    1534: 910283ff     	add	sp, sp, #160
    1538: d65f03c0     	ret
    153c: a90103e8     	stp	x8, x0, [sp, #16]
    1540: 3dc003e0     	ldr	q0, [sp]
    1544: 3d800be0     	str	q0, [sp, #32]
    1548: 90000000     	adrp	x0, 0x1000 <__ZN102_$LT$core..iter..adapters..map..Map$LT$I$C$F$GT$$u20$as$u20$core..iter..traits..iterator..Iterator$GT$4fold17h35ede993c96f072bE+0x168>
    154c: 91000000     	add	x0, x0, #0
    1550: 90000003     	adrp	x3, 0x1000 <__ZN102_$LT$core..iter..adapters..map..Map$LT$I$C$F$GT$$u20$as$u20$core..iter..traits..iterator..Iterator$GT$4fold17h35ede993c96f072bE+0x170>
    1554: 91000063     	add	x3, x3, #0
    1558: 90000004     	adrp	x4, 0x1000 <__ZN102_$LT$core..iter..adapters..map..Map$LT$I$C$F$GT$$u20$as$u20$core..iter..traits..iterator..Iterator$GT$4fold17h35ede993c96f072bE+0x178>
    155c: 91000084     	add	x4, x4, #0
    1560: 910043e2     	add	x2, sp, #16
    1564: 52800561     	mov	w1, #43
    1568: 94000000     	bl	0x1568 <__ZN102_$LT$core..iter..adapters..map..Map$LT$I$C$F$GT$$u20$as$u20$core..iter..traits..iterator..Iterator$GT$4fold17h35ede993c96f072bE+0x188>
    156c: d4200020     	brk	#0x1
    1570: aa0003f3     	mov	x19, x0
    1574: f9400be8     	ldr	x8, [sp, #16]
    1578: b4000128     	cbz	x8, 0x159c <__ZN102_$LT$core..iter..adapters..map..Map$LT$I$C$F$GT$$u20$as$u20$core..iter..traits..iterator..Iterator$GT$4fold17h35ede993c96f072bE+0x1bc>
    157c: f9400fe0     	ldr	x0, [sp, #24]
    1580: d37df101     	lsl	x1, x8, #3
    1584: 52800102     	mov	w2, #8
    1588: 94000000     	bl	0x1588 <__ZN102_$LT$core..iter..adapters..map..Map$LT$I$C$F$GT$$u20$as$u20$core..iter..traits..iterator..Iterator$GT$4fold17h35ede993c96f072bE+0x1a8>
    158c: f9000295     	str	x21, [x20]
    1590: aa1303e0     	mov	x0, x19
    1594: 94000000     	bl	0x1594 <__ZN102_$LT$core..iter..adapters..map..Map$LT$I$C$F$GT$$u20$as$u20$core..iter..traits..iterator..Iterator$GT$4fold17h35ede993c96f072bE+0x1b4>
    1598: aa0003f3     	mov	x19, x0
    159c: f9000295     	str	x21, [x20]
    15a0: aa1303e0     	mov	x0, x19
    15a4: 94000000     	bl	0x15a4 <__ZN102_$LT$core..iter..adapters..map..Map$LT$I$C$F$GT$$u20$as$u20$core..iter..traits..iterator..Iterator$GT$4fold17h35ede993c96f072bE+0x1c4>

00000000000015a8 <__ZN102_$LT$core..iter..adapters..map..Map$LT$I$C$F$GT$$u20$as$u20$core..iter..traits..iterator..Iterator$GT$4fold17h3f8b6fa4ad1c3b40E>:
    15a8: d10283ff     	sub	sp, sp, #160
    15ac: a9046ffc     	stp	x28, x27, [sp, #64]
    15b0: a90567fa     	stp	x26, x25, [sp, #80]
    15b4: a9065ff8     	stp	x24, x23, [sp, #96]
    15b8: a90757f6     	stp	x22, x21, [sp, #112]
    15bc: a9084ff4     	stp	x20, x19, [sp, #128]
    15c0: a9097bfd     	stp	x29, x30, [sp, #144]
    15c4: 910243fd     	add	x29, sp, #144
    15c8: a9402013     	ldp	x19, x8, [x0]
    15cc: a9405434     	ldp	x20, x21, [x1]
    15d0: eb08027f     	cmp	x19, x8
    15d4: 54000860     	b.eq	0x16e0 <__ZN102_$LT$core..iter..adapters..map..Map$LT$I$C$F$GT$$u20$as$u20$core..iter..traits..iterator..Iterator$GT$4fold17h3f8b6fa4ad1c3b40E+0x138>
    15d8: f9400816     	ldr	x22, [x0, #16]
    15dc: f9400829     	ldr	x9, [x1, #16]
    15e0: cb130108     	sub	x8, x8, x19
    15e4: d345fd17     	lsr	x23, x8, #5
    15e8: 910043f8     	add	x24, sp, #16
    15ec: 8b151128     	add	x8, x9, x21, lsl #4
    15f0: 91002119     	add	x25, x8, #8
    15f4: d2f0001a     	mov	x26, #-9223372036854775808
    15f8: 14000008     	b	0x1618 <__ZN102_$LT$core..iter..adapters..map..Map$LT$I$C$F$GT$$u20$as$u20$core..iter..traits..iterator..Iterator$GT$4fold17h3f8b6fa4ad1c3b40E+0x70>
    15fc: 9e620360     	scvtf	d0, x27
    1600: fc1f8320     	stur	d0, [x25, #-8]
    1604: f801073f     	str	xzr, [x25], #16
    1608: 910006b5     	add	x21, x21, #1
    160c: 91008273     	add	x19, x19, #32
    1610: f10006f7     	subs	x23, x23, #1
    1614: 54000660     	b.eq	0x16e0 <__ZN102_$LT$core..iter..adapters..map..Map$LT$I$C$F$GT$$u20$as$u20$core..iter..traits..iterator..Iterator$GT$4fold17h3f8b6fa4ad1c3b40E+0x138>
    1618: f94002c2     	ldr	x2, [x22]
    161c: 910043e0     	add	x0, sp, #16
    1620: aa1303e1     	mov	x1, x19
    1624: 94000000     	bl	0x1624 <__ZN102_$LT$core..iter..adapters..map..Map$LT$I$C$F$GT$$u20$as$u20$core..iter..traits..iterator..Iterator$GT$4fold17h3f8b6fa4ad1c3b40E+0x7c>
    1628: 3940a3e8     	ldrb	w8, [sp, #40]
    162c: 34000128     	cbz	w8, 0x1650 <__ZN102_$LT$core..iter..adapters..map..Map$LT$I$C$F$GT$$u20$as$u20$core..iter..traits..iterator..Iterator$GT$4fold17h3f8b6fa4ad1c3b40E+0xa8>
    1630: 7100051f     	cmp	w8, #1
    1634: 540000a0     	b.eq	0x1648 <__ZN102_$LT$core..iter..adapters..map..Map$LT$I$C$F$GT$$u20$as$u20$core..iter..traits..iterator..Iterator$GT$4fold17h3f8b6fa4ad1c3b40E+0xa0>
    1638: f94013e8     	ldr	x8, [sp, #32]
    163c: f100051f     	cmp	x8, #1
    1640: 54000360     	b.eq	0x16ac <__ZN102_$LT$core..iter..adapters..map..Map$LT$I$C$F$GT$$u20$as$u20$core..iter..traits..iterator..Iterator$GT$4fold17h3f8b6fa4ad1c3b40E+0x104>
    1644: b5000228     	cbnz	x8, 0x1688 <__ZN102_$LT$core..iter..adapters..map..Map$LT$I$C$F$GT$$u20$as$u20$core..iter..traits..iterator..Iterator$GT$4fold17h3f8b6fa4ad1c3b40E+0xe0>
    1648: d280001b     	mov	x27, #0
    164c: 14000009     	b	0x1670 <__ZN102_$LT$core..iter..adapters..map..Map$LT$I$C$F$GT$$u20$as$u20$core..iter..traits..iterator..Iterator$GT$4fold17h3f8b6fa4ad1c3b40E+0xc8>
    1650: f94013e9     	ldr	x9, [sp, #32]
    1654: b40000c9     	cbz	x9, 0x166c <__ZN102_$LT$core..iter..adapters..map..Map$LT$I$C$F$GT$$u20$as$u20$core..iter..traits..iterator..Iterator$GT$4fold17h3f8b6fa4ad1c3b40E+0xc4>
    1658: f100053f     	cmp	x9, #1
    165c: 54000161     	b.ne	0x1688 <__ZN102_$LT$core..iter..adapters..map..Map$LT$I$C$F$GT$$u20$as$u20$core..iter..traits..iterator..Iterator$GT$4fold17h3f8b6fa4ad1c3b40E+0xe0>
    1660: f9400fe0     	ldr	x0, [sp, #24]
    1664: f9400009     	ldr	x9, [x0]
    1668: b7f802e9     	tbnz	x9, #63, 0x16c4 <__ZN102_$LT$core..iter..adapters..map..Map$LT$I$C$F$GT$$u20$as$u20$core..iter..traits..iterator..Iterator$GT$4fold17h3f8b6fa4ad1c3b40E+0x11c>
    166c: cb0903fb     	neg	x27, x9
    1670: a94103e8     	ldp	x8, x0, [sp, #16]
    1674: b4fffc48     	cbz	x8, 0x15fc <__ZN102_$LT$core..iter..adapters..map..Map$LT$I$C$F$GT$$u20$as$u20$core..iter..traits..iterator..Iterator$GT$4fold17h3f8b6fa4ad1c3b40E+0x54>
    1678: d37df101     	lsl	x1, x8, #3
    167c: 52800102     	mov	w2, #8
    1680: 94000000     	bl	0x1680 <__ZN102_$LT$core..iter..adapters..map..Map$LT$I$C$F$GT$$u20$as$u20$core..iter..traits..iterator..Iterator$GT$4fold17h3f8b6fa4ad1c3b40E+0xd8>
    1684: 17ffffde     	b	0x15fc <__ZN102_$LT$core..iter..adapters..map..Map$LT$I$C$F$GT$$u20$as$u20$core..iter..traits..iterator..Iterator$GT$4fold17h3f8b6fa4ad1c3b40E+0x54>
    1688: a94103e8     	ldp	x8, x0, [sp, #16]
    168c: 3cc10300     	ldur	q0, [x24, #16]
    1690: 3d800fe0     	str	q0, [sp, #48]
    1694: 3dc00fe0     	ldr	q0, [sp, #48]
    1698: 3d8003e0     	str	q0, [sp]
    169c: eb1a011f     	cmp	x8, x26
    16a0: 54000321     	b.ne	0x1704 <__ZN102_$LT$core..iter..adapters..map..Map$LT$I$C$F$GT$$u20$as$u20$core..iter..traits..iterator..Iterator$GT$4fold17h3f8b6fa4ad1c3b40E+0x15c>
    16a4: aa0003fb     	mov	x27, x0
    16a8: 17ffffd5     	b	0x15fc <__ZN102_$LT$core..iter..adapters..map..Map$LT$I$C$F$GT$$u20$as$u20$core..iter..traits..iterator..Iterator$GT$4fold17h3f8b6fa4ad1c3b40E+0x54>
    16ac: a94103e8     	ldp	x8, x0, [sp, #16]
    16b0: f940001b     	ldr	x27, [x0]
    16b4: 3cc10300     	ldur	q0, [x24, #16]
    16b8: 3d800fe0     	str	q0, [sp, #48]
    16bc: b6fffddb     	tbz	x27, #63, 0x1674 <__ZN102_$LT$core..iter..adapters..map..Map$LT$I$C$F$GT$$u20$as$u20$core..iter..traits..iterator..Iterator$GT$4fold17h3f8b6fa4ad1c3b40E+0xcc>
    16c0: 17fffff5     	b	0x1694 <__ZN102_$LT$core..iter..adapters..map..Map$LT$I$C$F$GT$$u20$as$u20$core..iter..traits..iterator..Iterator$GT$4fold17h3f8b6fa4ad1c3b40E+0xec>
    16c4: f9400be8     	ldr	x8, [sp, #16]
    16c8: 3cc10300     	ldur	q0, [x24, #16]
    16cc: 3d800fe0     	str	q0, [sp, #48]
    16d0: d2f0001b     	mov	x27, #-9223372036854775808
    16d4: eb1b013f     	cmp	x9, x27
    16d8: 54fffce0     	b.eq	0x1674 <__ZN102_$LT$core..iter..adapters..map..Map$LT$I$C$F$GT$$u20$as$u20$core..iter..traits..iterator..Iterator$GT$4fold17h3f8b6fa4ad1c3b40E+0xcc>
    16dc: 17ffffee     	b	0x1694 <__ZN102_$LT$core..iter..adapters..map..Map$LT$I$C$F$GT$$u20$as$u20$core..iter..traits..iterator..Iterator$GT$4fold17h3f8b6fa4ad1c3b40E+0xec>
    16e0: f9000295     	str	x21, [x20]
    16e4: a9497bfd     	ldp	x29, x30, [sp, #144]
    16e8: a9484ff4     	ldp	x20, x19, [sp, #128]
    16ec: a94757f6     	ldp	x22, x21, [sp, #112]
    16f0: a9465ff8     	ldp	x24, x23, [sp, #96]
    16f4: a94567fa     	ldp	x26, x25, [sp, #80]
    16f8: a9446ffc     	ldp	x28, x27, [sp, #64]
    16fc: 910283ff     	add	sp, sp, #160
    1700: d65f03c0     	ret
    1704: a90103e8     	stp	x8, x0, [sp, #16]
    1708: 3dc003e0     	ldr	q0, [sp]
    170c: 3d800be0     	str	q0, [sp, #32]
    1710: 90000000     	adrp	x0, 0x1000 <__ZN102_$LT$core..iter..adapters..map..Map$LT$I$C$F$GT$$u20$as$u20$core..iter..traits..iterator..Iterator$GT$4fold17h3f8b6fa4ad1c3b40E+0x168>
    1714: 91000000     	add	x0, x0, #0
    1718: 90000003     	adrp	x3, 0x1000 <__ZN102_$LT$core..iter..adapters..map..Map$LT$I$C$F$GT$$u20$as$u20$core..iter..traits..iterator..Iterator$GT$4fold17h3f8b6fa4ad1c3b40E+0x170>
    171c: 91000063     	add	x3, x3, #0
    1720: 90000004     	adrp	x4, 0x1000 <__ZN102_$LT$core..iter..adapters..map..Map$LT$I$C$F$GT$$u20$as$u20$core..iter..traits..iterator..Iterator$GT$4fold17h3f8b6fa4ad1c3b40E+0x178>
    1724: 91000084     	add	x4, x4, #0
    1728: 910043e2     	add	x2, sp, #16
    172c: 52800561     	mov	w1, #43
    1730: 94000000     	bl	0x1730 <__ZN102_$LT$core..iter..adapters..map..Map$LT$I$C$F$GT$$u20$as$u20$core..iter..traits..iterator..Iterator$GT$4fold17h3f8b6fa4ad1c3b40E+0x188>
    1734: d4200020     	brk	#0x1
    1738: aa0003f3     	mov	x19, x0
    173c: f9400be8     	ldr	x8, [sp, #16]
    1740: b4000128     	cbz	x8, 0x1764 <__ZN102_$LT$core..iter..adapters..map..Map$LT$I$C$F$GT$$u20$as$u20$core..iter..traits..iterator..Iterator$GT$4fold17h3f8b6fa4ad1c3b40E+0x1bc>
    1744: f9400fe0     	ldr	x0, [sp, #24]
    1748: d37df101     	lsl	x1, x8, #3
    174c: 52800102     	mov	w2, #8
    1750: 94000000     	bl	0x1750 <__ZN102_$LT$core..iter..adapters..map..Map$LT$I$C$F$GT$$u20$as$u20$core..iter..traits..iterator..Iterator$GT$4fold17h3f8b6fa4ad1c3b40E+0x1a8>
    1754: f9000295     	str	x21, [x20]
    1758: aa1303e0     	mov	x0, x19
    175c: 94000000     	bl	0x175c <__ZN102_$LT$core..iter..adapters..map..Map$LT$I$C$F$GT$$u20$as$u20$core..iter..traits..iterator..Iterator$GT$4fold17h3f8b6fa4ad1c3b40E+0x1b4>
    1760: aa0003f3     	mov	x19, x0
    1764: f9000295     	str	x21, [x20]
    1768: aa1303e0     	mov	x0, x19
    176c: 94000000     	bl	0x176c <__ZN102_$LT$core..iter..adapters..map..Map$LT$I$C$F$GT$$u20$as$u20$core..iter..traits..iterator..Iterator$GT$4fold17h3f8b6fa4ad1c3b40E+0x1c4>

0000000000001770 <__ZN102_$LT$core..iter..adapters..map..Map$LT$I$C$F$GT$$u20$as$u20$core..iter..traits..iterator..Iterator$GT$4fold17h584edbca5df13fdaE>:
    1770: a942300b     	ldp	x11, x12, [x0, #32]
    1774: a9402428     	ldp	x8, x9, [x1]
    1778: eb0b018f     	subs	x15, x12, x11
    177c: 54000440     	b.eq	0x1804 <__ZN102_$LT$core..iter..adapters..map..Map$LT$I$C$F$GT$$u20$as$u20$core..iter..traits..iterator..Iterator$GT$4fold17h584edbca5df13fdaE+0x94>
    1780: f940000d     	ldr	x13, [x0]
    1784: f940080e     	ldr	x14, [x0, #16]
    1788: f940082a     	ldr	x10, [x1, #16]
    178c: f10021ff     	cmp	x15, #8
    1790: 54000143     	b.lo	0x17b8 <__ZN102_$LT$core..iter..adapters..map..Map$LT$I$C$F$GT$$u20$as$u20$core..iter..traits..iterator..Iterator$GT$4fold17h584edbca5df13fdaE+0x48>
    1794: 8b090951     	add	x17, x10, x9, lsl #2
    1798: d37ef561     	lsl	x1, x11, #2
    179c: 8b0d0030     	add	x16, x1, x13
    17a0: cb100230     	sub	x16, x17, x16
    17a4: 8b0e0020     	add	x0, x1, x14
    17a8: cb000220     	sub	x0, x17, x0
    17ac: f100421f     	cmp	x16, #16
    17b0: fa502800     	ccmp	x0, #16, #0, hs
    17b4: 540002c2     	b.hs	0x180c <__ZN102_$LT$core..iter..adapters..map..Map$LT$I$C$F$GT$$u20$as$u20$core..iter..traits..iterator..Iterator$GT$4fold17h584edbca5df13fdaE+0x9c>
    17b8: d2800010     	mov	x16, #0
    17bc: 8b0b020f     	add	x15, x16, x11
    17c0: cb0c01eb     	sub	x11, x15, x12
    17c4: d37ef5ef     	lsl	x15, x15, #2
    17c8: 8b0f01cc     	add	x12, x14, x15
    17cc: 8b0f01ad     	add	x13, x13, x15
    17d0: 528390ae     	mov	w14, #7301
    17d4: 72b554ee     	movk	w14, #43687, lsl #16
    17d8: 5286002f     	mov	w15, #12289
    17dc: b84045b0     	ldr	w16, [x13], #4
    17e0: b8404591     	ldr	w17, [x12], #4
    17e4: 1b107e30     	mul	w16, w17, w16
    17e8: 9bae7e11     	umull	x17, w16, w14
    17ec: d36dfe31     	lsr	x17, x17, #45
    17f0: 1b0fc230     	msub	w16, w17, w15, w16
    17f4: b8297950     	str	w16, [x10, x9, lsl #2]
    17f8: 91000529     	add	x9, x9, #1
    17fc: b100056b     	adds	x11, x11, #1
    1800: 54fffee3     	b.lo	0x17dc <__ZN102_$LT$core..iter..adapters..map..Map$LT$I$C$F$GT$$u20$as$u20$core..iter..traits..iterator..Iterator$GT$4fold17h584edbca5df13fdaE+0x6c>
    1804: f9000109     	str	x9, [x8]
    1808: d65f03c0     	ret
    180c: 927ef5f0     	and	x16, x15, #0xfffffffffffffffc
    1810: 8b100129     	add	x9, x9, x16
    1814: 8b0101c0     	add	x0, x14, x1
    1818: 8b0101a1     	add	x1, x13, x1
    181c: 528390a2     	mov	w2, #7301
    1820: 72b554e2     	movk	w2, #43687, lsl #16
    1824: 4e040c40     	dup.4s	v0, w2
    1828: 52860022     	mov	w2, #12289
    182c: 4e040c41     	dup.4s	v1, w2
    1830: aa1003e2     	mov	x2, x16
    1834: 3cc10422     	ldr	q2, [x1], #16
    1838: 3cc10403     	ldr	q3, [x0], #16
    183c: 4ea29c62     	mul.4s	v2, v3, v2
    1840: 6ea0c043     	umull2.2d	v3, v2, v0
    1844: 2ea0c044     	umull.2d	v4, v2, v0
    1848: 4e835883     	uzp2.4s	v3, v4, v3
    184c: 6f330463     	ushr.4s	v3, v3, #13
    1850: 6ea19462     	mls.4s	v2, v3, v1
    1854: 3c810622     	str	q2, [x17], #16
    1858: f1001042     	subs	x2, x2, #4
    185c: 54fffec1     	b.ne	0x1834 <__ZN102_$LT$core..iter..adapters..map..Map$LT$I$C$F$GT$$u20$as$u20$core..iter..traits..iterator..Iterator$GT$4fold17h584edbca5df13fdaE+0xc4>
    1860: eb1001ff     	cmp	x15, x16
    1864: 54fffd00     	b.eq	0x1804 <__ZN102_$LT$core..iter..adapters..map..Map$LT$I$C$F$GT$$u20$as$u20$core..iter..traits..iterator..Iterator$GT$4fold17h584edbca5df13fdaE+0x94>
    1868: 17ffffd5     	b	0x17bc <__ZN102_$LT$core..iter..adapters..map..Map$LT$I$C$F$GT$$u20$as$u20$core..iter..traits..iterator..Iterator$GT$4fold17h584edbca5df13fdaE+0x4c>

000000000000186c <__ZN102_$LT$core..iter..adapters..map..Map$LT$I$C$F$GT$$u20$as$u20$core..iter..traits..iterator..Iterator$GT$4fold17hbd932bf87de8ae29E>:
    186c: a9402448     	ldp	x8, x9, [x2]
    1870: eb01001f     	cmp	x0, x1
    1874: 54000e00     	b.eq	0x1a34 <__ZN102_$LT$core..iter..adapters..map..Map$LT$I$C$F$GT$$u20$as$u20$core..iter..traits..iterator..Iterator$GT$4fold17hbd932bf87de8ae29E+0x1c8>
    1878: f940084a     	ldr	x10, [x2, #16]
    187c: cb00002c     	sub	x12, x1, x0
    1880: d344fd8b     	lsr	x11, x12, #4
    1884: f102019f     	cmp	x12, #128
    1888: 54000b83     	b.lo	0x19f8 <__ZN102_$LT$core..iter..adapters..map..Map$LT$I$C$F$GT$$u20$as$u20$core..iter..traits..iterator..Iterator$GT$4fold17hbd932bf87de8ae29E+0x18c>
    188c: 8b09054d     	add	x13, x10, x9, lsl #1
    1890: 8b4c0dae     	add	x14, x13, x12, lsr #3
    1894: 8b0c000c     	add	x12, x0, x12
    1898: d100218c     	sub	x12, x12, #8
    189c: eb0c01bf     	cmp	x13, x12
    18a0: fa4031c0     	ccmp	x14, x0, #0, lo
    18a4: 54000aa8     	b.hi	0x19f8 <__ZN102_$LT$core..iter..adapters..map..Map$LT$I$C$F$GT$$u20$as$u20$core..iter..traits..iterator..Iterator$GT$4fold17hbd932bf87de8ae29E+0x18c>
    18a8: 927de16c     	and	x12, x11, #0xffffffffffffff8
    18ac: 8b0c0129     	add	x9, x9, x12
    18b0: 9101000e     	add	x14, x0, #64
    18b4: 528fffef     	mov	w15, #32767
    18b8: 128ffff0     	mov	w16, #-32768
    18bc: 90000011     	adrp	x17, 0x1000 <__ZN102_$LT$core..iter..adapters..map..Map$LT$I$C$F$GT$$u20$as$u20$core..iter..traits..iterator..Iterator$GT$4fold17hbd932bf87de8ae29E+0x50>
    18c0: 3dc00220     	ldr	q0, [x17]
    18c4: aa0c03f1     	mov	x17, x12
    18c8: d100c1c1     	sub	x1, x14, #48
    18cc: d10041c2     	sub	x2, x14, #16
    18d0: 910041c3     	add	x3, x14, #16
    18d4: 9100c1c4     	add	x4, x14, #48
    18d8: fc5c01c1     	ldur	d1, [x14, #-64]
    18dc: fd4001c2     	ldr	d2, [x14]
    18e0: fd4011c3     	ldr	d3, [x14, #32]
    18e4: 4d408483     	ld1.d	{ v3 }[1], [x4]
    18e8: 4d408462     	ld1.d	{ v2 }[1], [x3]
    18ec: fc5e01c4     	ldur	d4, [x14, #-32]
    18f0: 4d408444     	ld1.d	{ v4 }[1], [x2]
    18f4: 4d408421     	ld1.d	{ v1 }[1], [x1]
    18f8: 6e618821     	frinta.2d	v1, v1
    18fc: 6e618884     	frinta.2d	v4, v4
    1900: 6e618842     	frinta.2d	v2, v2
    1904: 6e618863     	frinta.2d	v3, v3
    1908: 5e180465     	mov	d5, v3[1]
    190c: 1e7800a1     	fcvtzs	w1, d5
    1910: 6b0f003f     	cmp	w1, w15
    1914: 1a8fb021     	csel	w1, w1, w15, lt
    1918: 3140203f     	cmn	w1, #8, lsl #12         ; =32768
    191c: 1a90c021     	csel	w1, w1, w16, gt
    1920: 1e780062     	fcvtzs	w2, d3
    1924: 6b0f005f     	cmp	w2, w15
    1928: 1a8fb042     	csel	w2, w2, w15, lt
    192c: 3140205f     	cmn	w2, #8, lsl #12         ; =32768
    1930: 5e180443     	mov	d3, v2[1]
    1934: 1e780063     	fcvtzs	w3, d3
    1938: 1a90c042     	csel	w2, w2, w16, gt
    193c: 1e270053     	fmov	s19, w2
    1940: 6b0f007f     	cmp	w3, w15
    1944: 1a8fb062     	csel	w2, w3, w15, lt
    1948: 3140205f     	cmn	w2, #8, lsl #12         ; =32768
    194c: 4e0c1c33     	mov.s	v19[1], w1
    1950: 1a90c041     	csel	w1, w2, w16, gt
    1954: 1e780042     	fcvtzs	w2, d2
    1958: 6b0f005f     	cmp	w2, w15
    195c: 1a8fb042     	csel	w2, w2, w15, lt
    1960: 3140205f     	cmn	w2, #8, lsl #12         ; =32768
    1964: 1a90c042     	csel	w2, w2, w16, gt
    1968: 5e180482     	mov	d2, v4[1]
    196c: 1e780043     	fcvtzs	w3, d2
    1970: 6b0f007f     	cmp	w3, w15
    1974: 1e270052     	fmov	s18, w2
    1978: 1a8fb062     	csel	w2, w3, w15, lt
    197c: 3140205f     	cmn	w2, #8, lsl #12         ; =32768
    1980: 1e780083     	fcvtzs	w3, d4
    1984: 4e0c1c32     	mov.s	v18[1], w1
    1988: 1a90c041     	csel	w1, w2, w16, gt
    198c: 6b0f007f     	cmp	w3, w15
    1990: 1a8fb062     	csel	w2, w3, w15, lt
    1994: 3140205f     	cmn	w2, #8, lsl #12         ; =32768
    1998: 1a90c042     	csel	w2, w2, w16, gt
    199c: 1e270051     	fmov	s17, w2
    19a0: 5e180422     	mov	d2, v1[1]
    19a4: 1e780042     	fcvtzs	w2, d2
    19a8: 6b0f005f     	cmp	w2, w15
    19ac: 4e0c1c31     	mov.s	v17[1], w1
    19b0: 1a8fb041     	csel	w1, w2, w15, lt
    19b4: 3140203f     	cmn	w1, #8, lsl #12         ; =32768
    19b8: 1a90c021     	csel	w1, w1, w16, gt
    19bc: 1e780022     	fcvtzs	w2, d1
    19c0: 6b0f005f     	cmp	w2, w15
    19c4: 1a8fb042     	csel	w2, w2, w15, lt
    19c8: 3140205f     	cmn	w2, #8, lsl #12         ; =32768
    19cc: 1a90c042     	csel	w2, w2, w16, gt
    19d0: 1e270050     	fmov	s16, w2
    19d4: 4e0c1c30     	mov.s	v16[1], w1
    19d8: 4e006201     	tbl.16b	v1, { v16, v17, v18, v19 }, v0
    19dc: 3c8105a1     	str	q1, [x13], #16
    19e0: 910201ce     	add	x14, x14, #128
    19e4: f1002231     	subs	x17, x17, #8
    19e8: 54fff701     	b.ne	0x18c8 <__ZN102_$LT$core..iter..adapters..map..Map$LT$I$C$F$GT$$u20$as$u20$core..iter..traits..iterator..Iterator$GT$4fold17hbd932bf87de8ae29E+0x5c>
    19ec: eb0c017f     	cmp	x11, x12
    19f0: 54000061     	b.ne	0x19fc <__ZN102_$LT$core..iter..adapters..map..Map$LT$I$C$F$GT$$u20$as$u20$core..iter..traits..iterator..Iterator$GT$4fold17hbd932bf87de8ae29E+0x190>
    19f4: 14000010     	b	0x1a34 <__ZN102_$LT$core..iter..adapters..map..Map$LT$I$C$F$GT$$u20$as$u20$core..iter..traits..iterator..Iterator$GT$4fold17hbd932bf87de8ae29E+0x1c8>
    19f8: d280000c     	mov	x12, #0
    19fc: cb0c016b     	sub	x11, x11, x12
    1a00: 528fffed     	mov	w13, #32767
    1a04: 128fffee     	mov	w14, #-32768
    1a08: 8b0c100c     	add	x12, x0, x12, lsl #4
    1a0c: fc410580     	ldr	d0, [x12], #16
    1a10: 1e64000f     	fcvtas	w15, d0
    1a14: 6b0d01ff     	cmp	w15, w13
    1a18: 1a8db1ef     	csel	w15, w15, w13, lt
    1a1c: 314021ff     	cmn	w15, #8, lsl #12        ; =32768
    1a20: 1a8ec1ef     	csel	w15, w15, w14, gt
    1a24: 7829794f     	strh	w15, [x10, x9, lsl #1]
    1a28: 91000529     	add	x9, x9, #1
    1a2c: f100056b     	subs	x11, x11, #1
    1a30: 54fffee1     	b.ne	0x1a0c <__ZN102_$LT$core..iter..adapters..map..Map$LT$I$C$F$GT$$u20$as$u20$core..iter..traits..iterator..Iterator$GT$4fold17hbd932bf87de8ae29E+0x1a0>
    1a34: f9000109     	str	x9, [x8]
    1a38: d65f03c0     	ret

0000000000001a3c <__ZN102_$LT$core..iter..adapters..map..Map$LT$I$C$F$GT$$u20$as$u20$core..iter..traits..iterator..Iterator$GT$4fold17hb071588e6fe5e016E>:
    1a3c: eb01001f     	cmp	x0, x1
    1a40: 540007a0     	b.eq	0x1b34 <__ZN102_$LT$core..iter..adapters..map..Map$LT$I$C$F$GT$$u20$as$u20$core..iter..traits..iterator..Iterator$GT$4fold17hb071588e6fe5e016E+0xf8>
    1a44: a9bf4ff4     	stp	x20, x19, [sp, #-16]!
    1a48: cb000029     	sub	x9, x1, x0
    1a4c: d342fd28     	lsr	x8, x9, #2
    1a50: f100413f     	cmp	x9, #16
    1a54: 54000062     	b.hs	0x1a60 <__ZN102_$LT$core..iter..adapters..map..Map$LT$I$C$F$GT$$u20$as$u20$core..iter..traits..iterator..Iterator$GT$4fold17hb071588e6fe5e016E+0x24>
    1a58: d2800009     	mov	x9, #0
    1a5c: 14000029     	b	0x1b00 <__ZN102_$LT$core..iter..adapters..map..Map$LT$I$C$F$GT$$u20$as$u20$core..iter..traits..iterator..Iterator$GT$4fold17hb071588e6fe5e016E+0xc4>
    1a60: d280000a     	mov	x10, #0
    1a64: d280000b     	mov	x11, #0
    1a68: d280000c     	mov	x12, #0
    1a6c: 927eed09     	and	x9, x8, #0x3ffffffffffffffc
    1a70: 9100200d     	add	x13, x0, #8
    1a74: 5283000e     	mov	w14, #6144
    1a78: 1286000f     	mov	w15, #-12289
    1a7c: aa0903f0     	mov	x16, x9
    1a80: 78df81b1     	ldursh	w17, [x13, #-8]
    1a84: 78dfc1a1     	ldursh	w1, [x13, #-4]
    1a88: 79c001a3     	ldrsh	w3, [x13]
    1a8c: 79c009a4     	ldrsh	w4, [x13, #4]
    1a90: 6b0e023f     	cmp	w17, w14
    1a94: 1a9fc1e5     	csel	w5, w15, wzr, gt
    1a98: 6b0e003f     	cmp	w1, w14
    1a9c: 1a9fc1e6     	csel	w6, w15, wzr, gt
    1aa0: 6b0e007f     	cmp	w3, w14
    1aa4: 1a9fc1e7     	csel	w7, w15, wzr, gt
    1aa8: 6b0e009f     	cmp	w4, w14
    1aac: 1a9fc1f3     	csel	w19, w15, wzr, gt
    1ab0: 0b1100b1     	add	w17, w5, w17
    1ab4: 0b0100c1     	add	w1, w6, w1
    1ab8: 0b0300e3     	add	w3, w7, w3
    1abc: 0b040264     	add	w4, w19, w4
    1ac0: 93403e31     	sxth	x17, w17
    1ac4: 93403c21     	sxth	x1, w1
    1ac8: 93403c63     	sxth	x3, w3
    1acc: 93403c84     	sxth	x4, w4
    1ad0: 9b310a22     	smaddl	x2, w17, w17, x2
    1ad4: 9b21282a     	smaddl	x10, w1, w1, x10
    1ad8: 9b232c6b     	smaddl	x11, w3, w3, x11
    1adc: 9b24308c     	smaddl	x12, w4, w4, x12
    1ae0: 910041ad     	add	x13, x13, #16
    1ae4: f1001210     	subs	x16, x16, #4
    1ae8: 54fffcc1     	b.ne	0x1a80 <__ZN102_$LT$core..iter..adapters..map..Map$LT$I$C$F$GT$$u20$as$u20$core..iter..traits..iterator..Iterator$GT$4fold17hb071588e6fe5e016E+0x44>
    1aec: 8b02014a     	add	x10, x10, x2
    1af0: 8b0b018b     	add	x11, x12, x11
    1af4: 8b0a0162     	add	x2, x11, x10
    1af8: eb09011f     	cmp	x8, x9
    1afc: 540001a0     	b.eq	0x1b30 <__ZN102_$LT$core..iter..adapters..map..Map$LT$I$C$F$GT$$u20$as$u20$core..iter..traits..iterator..Iterator$GT$4fold17hb071588e6fe5e016E+0xf4>
    1b00: cb090108     	sub	x8, x8, x9
    1b04: 5283000a     	mov	w10, #6144
    1b08: 1286000b     	mov	w11, #-12289
    1b0c: 8b090809     	add	x9, x0, x9, lsl #2
    1b10: 78c0452c     	ldrsh	w12, [x9], #4
    1b14: 6b0a019f     	cmp	w12, w10
    1b18: 1a9fc16d     	csel	w13, w11, wzr, gt
    1b1c: 0b0c01ac     	add	w12, w13, w12
    1b20: 93403d8c     	sxth	x12, w12
    1b24: 9b2c0982     	smaddl	x2, w12, w12, x2
    1b28: f1000508     	subs	x8, x8, #1
    1b2c: 54ffff21     	b.ne	0x1b10 <__ZN102_$LT$core..iter..adapters..map..Map$LT$I$C$F$GT$$u20$as$u20$core..iter..traits..iterator..Iterator$GT$4fold17hb071588e6fe5e016E+0xd4>
    1b30: a8c14ff4     	ldp	x20, x19, [sp], #16
    1b34: aa0203e0     	mov	x0, x2
    1b38: d65f03c0     	ret

0000000000001b3c <__ZN102_$LT$core..iter..adapters..map..Map$LT$I$C$F$GT$$u20$as$u20$core..iter..traits..iterator..Iterator$GT$4fold17hc7394aa9342c0640E>:
    1b3c: a940300b     	ldp	x11, x12, [x0]
    1b40: a9402428     	ldp	x8, x9, [x1]
    1b44: eb0c017f     	cmp	x11, x12
    1b48: 54000420     	b.eq	0x1bcc <__ZN102_$LT$core..iter..adapters..map..Map$LT$I$C$F$GT$$u20$as$u20$core..iter..traits..iterator..Iterator$GT$4fold17hc7394aa9342c0640E+0x90>
    1b4c: f940080a     	ldr	x10, [x0, #16]
    1b50: f940082d     	ldr	x13, [x1, #16]
    1b54: cb0b0190     	sub	x16, x12, x11
    1b58: d342fe0c     	lsr	x12, x16, #2
    1b5c: f101421f     	cmp	x16, #80
    1b60: 54000183     	b.lo	0x1b90 <__ZN102_$LT$core..iter..adapters..map..Map$LT$I$C$F$GT$$u20$as$u20$core..iter..traits..iterator..Iterator$GT$4fold17hc7394aa9342c0640E+0x54>
    1b64: d100058e     	sub	x14, x12, #1
    1b68: 8b0911af     	add	x15, x13, x9, lsl #4
    1b6c: d37cedd1     	lsl	x17, x14, #4
    1b70: 910021e0     	add	x0, x15, #8
    1b74: 8b110001     	add	x1, x0, x17
    1b78: 8b1101f1     	add	x17, x15, x17
    1b7c: eb0f023f     	cmp	x17, x15
    1b80: fa402020     	ccmp	x1, x0, #0, hs
    1b84: d37cfdce     	lsr	x14, x14, #60
    1b88: fa4029c0     	ccmp	x14, #0, #0, hs
    1b8c: 54000240     	b.eq	0x1bd4 <__ZN102_$LT$core..iter..adapters..map..Map$LT$I$C$F$GT$$u20$as$u20$core..iter..traits..iterator..Iterator$GT$4fold17hc7394aa9342c0640E+0x98>
    1b90: d280000e     	mov	x14, #0
    1b94: 8b0911ad     	add	x13, x13, x9, lsl #4
    1b98: 910021ad     	add	x13, x13, #8
    1b9c: cb0e018f     	sub	x15, x12, x14
    1ba0: 8b0e096b     	add	x11, x11, x14, lsl #2
    1ba4: 8b0c0129     	add	x9, x9, x12
    1ba8: cb0e0129     	sub	x9, x9, x14
    1bac: 78c0456c     	ldrsh	w12, [x11], #4
    1bb0: 1e620180     	scvtf	d0, w12
    1bb4: fd400141     	ldr	d1, [x10]
    1bb8: 1e600820     	fmul	d0, d1, d0
    1bbc: fc1f81a0     	stur	d0, [x13, #-8]
    1bc0: f80105bf     	str	xzr, [x13], #16
    1bc4: f10005ef     	subs	x15, x15, #1
    1bc8: 54ffff21     	b.ne	0x1bac <__ZN102_$LT$core..iter..adapters..map..Map$LT$I$C$F$GT$$u20$as$u20$core..iter..traits..iterator..Iterator$GT$4fold17hc7394aa9342c0640E+0x70>
    1bcc: f9000109     	str	x9, [x8]
    1bd0: d65f03c0     	ret
    1bd4: d280000e     	mov	x14, #0
    1bd8: 8b0c0131     	add	x17, x9, x12
    1bdc: 8b1111b1     	add	x17, x13, x17, lsl #4
    1be0: 927ef610     	and	x16, x16, #0xfffffffffffffffc
    1be4: 8b100160     	add	x0, x11, x16
    1be8: 91002150     	add	x16, x10, #8
    1bec: eb1001ff     	cmp	x15, x16
    1bf0: fa513142     	ccmp	x10, x17, #2, lo
    1bf4: 1a9f27f0     	cset	w16, lo
    1bf8: eb11017f     	cmp	x11, x17
    1bfc: fa4031e2     	ccmp	x15, x0, #2, lo
    1c00: 54fffca3     	b.lo	0x1b94 <__ZN102_$LT$core..iter..adapters..map..Map$LT$I$C$F$GT$$u20$as$u20$core..iter..traits..iterator..Iterator$GT$4fold17hc7394aa9342c0640E+0x58>
    1c04: 3707fc90     	tbnz	w16, #0, 0x1b94 <__ZN102_$LT$core..iter..adapters..map..Map$LT$I$C$F$GT$$u20$as$u20$core..iter..traits..iterator..Iterator$GT$4fold17hc7394aa9342c0640E+0x58>
    1c08: 927eed8e     	and	x14, x12, #0x3ffffffffffffffc
    1c0c: 8b0e0129     	add	x9, x9, x14
    1c10: 6f00e401     	movi.2d	v1, #0000000000000000
    1c14: aa0e03f0     	mov	x16, x14
    1c18: aa0b03f1     	mov	x17, x11
    1c1c: 3cc10622     	ldr	q2, [x17], #16
    1c20: fd400143     	ldr	d3, [x10]
    1c24: 0f305444     	shl.2s	v4, v2, #16
    1c28: 0f300484     	sshr.2s	v4, v4, #16
    1c2c: 0f20a484     	sshll.2d	v4, v4, #0
    1c30: 4e61d884     	scvtf.2d	v4, v4
    1c34: 6e024042     	ext.16b	v2, v2, v2, #8
    1c38: 0f305442     	shl.2s	v2, v2, #16
    1c3c: 0f300442     	sshr.2s	v2, v2, #16
    1c40: 0f20a442     	sshll.2d	v2, v2, #0
    1c44: 4e61d842     	scvtf.2d	v2, v2
    1c48: 4fc39040     	fmul.2d	v0, v2, v3[0]
    1c4c: 4fc39082     	fmul.2d	v2, v4, v3[0]
    1c50: 4ea11c23     	mov.16b	v3, v1
    1c54: 910101e0     	add	x0, x15, #64
    1c58: 4c9f8de2     	st2.2d	{ v2, v3 }, [x15], #32
    1c5c: 4c008de0     	st2.2d	{ v0, v1 }, [x15]
    1c60: aa0003ef     	mov	x15, x0
    1c64: f1001210     	subs	x16, x16, #4
    1c68: 54fffda1     	b.ne	0x1c1c <__ZN102_$LT$core..iter..adapters..map..Map$LT$I$C$F$GT$$u20$as$u20$core..iter..traits..iterator..Iterator$GT$4fold17hc7394aa9342c0640E+0xe0>
    1c6c: eb0e019f     	cmp	x12, x14
    1c70: 54fff921     	b.ne	0x1b94 <__ZN102_$LT$core..iter..adapters..map..Map$LT$I$C$F$GT$$u20$as$u20$core..iter..traits..iterator..Iterator$GT$4fold17hc7394aa9342c0640E+0x58>
    1c74: 17ffffd6     	b	0x1bcc <__ZN102_$LT$core..iter..adapters..map..Map$LT$I$C$F$GT$$u20$as$u20$core..iter..traits..iterator..Iterator$GT$4fold17hc7394aa9342c0640E+0x90>

0000000000001c78 <__ZN102_$LT$core..iter..adapters..map..Map$LT$I$C$F$GT$$u20$as$u20$core..iter..traits..iterator..Iterator$GT$4fold17h969fedb66e597117E>:
    1c78: a9402448     	ldp	x8, x9, [x2]
    1c7c: eb01001f     	cmp	x0, x1
    1c80: 54000520     	b.eq	0x1d24 <__ZN102_$LT$core..iter..adapters..map..Map$LT$I$C$F$GT$$u20$as$u20$core..iter..traits..iterator..Iterator$GT$4fold17h969fedb66e597117E+0xac>
    1c84: f940084b     	ldr	x11, [x2, #16]
    1c88: cb00002c     	sub	x12, x1, x0
    1c8c: d344fd8a     	lsr	x10, x12, #4
    1c90: f105019f     	cmp	x12, #320
    1c94: 540002a3     	b.lo	0x1ce8 <__ZN102_$LT$core..iter..adapters..map..Map$LT$I$C$F$GT$$u20$as$u20$core..iter..traits..iterator..Iterator$GT$4fold17h969fedb66e597117E+0x70>
    1c98: d100054d     	sub	x13, x10, #1
    1c9c: d37ced2e     	lsl	x14, x9, #4
    1ca0: d37cedaf     	lsl	x15, x13, #4
    1ca4: 8b0e0170     	add	x16, x11, x14
    1ca8: 8b0f0211     	add	x17, x16, x15
    1cac: 91002201     	add	x1, x16, #8
    1cb0: 8b0f002f     	add	x15, x1, x15
    1cb4: eb10023f     	cmp	x17, x16
    1cb8: fa4121e0     	ccmp	x15, x1, #0, hs
    1cbc: d37cfdad     	lsr	x13, x13, #60
    1cc0: fa4029a0     	ccmp	x13, #0, #0, hs
    1cc4: 54000121     	b.ne	0x1ce8 <__ZN102_$LT$core..iter..adapters..map..Map$LT$I$C$F$GT$$u20$as$u20$core..iter..traits..iterator..Iterator$GT$4fold17h969fedb66e597117E+0x70>
    1cc8: 8b09116d     	add	x13, x11, x9, lsl #4
    1ccc: 927ced8c     	and	x12, x12, #0xfffffffffffffff0
    1cd0: 8b0c000f     	add	x15, x0, x12
    1cd4: eb0f01bf     	cmp	x13, x15
    1cd8: 540002a2     	b.hs	0x1d2c <__ZN102_$LT$core..iter..adapters..map..Map$LT$I$C$F$GT$$u20$as$u20$core..iter..traits..iterator..Iterator$GT$4fold17h969fedb66e597117E+0xb4>
    1cdc: 8b0c01ac     	add	x12, x13, x12
    1ce0: eb00019f     	cmp	x12, x0
    1ce4: 54000249     	b.ls	0x1d2c <__ZN102_$LT$core..iter..adapters..map..Map$LT$I$C$F$GT$$u20$as$u20$core..iter..traits..iterator..Iterator$GT$4fold17h969fedb66e597117E+0xb4>
    1ce8: d280000c     	mov	x12, #0
    1cec: 8b0c100d     	add	x13, x0, x12, lsl #4
    1cf0: 8b09116e     	add	x14, x11, x9, lsl #4
    1cf4: 910021ab     	add	x11, x13, #8
    1cf8: 910021cd     	add	x13, x14, #8
    1cfc: cb0c014e     	sub	x14, x10, x12
    1d00: 8b0a0129     	add	x9, x9, x10
    1d04: cb0c0129     	sub	x9, x9, x12
    1d08: 6d7f8560     	ldp	d0, d1, [x11, #-8]
    1d0c: 1e614021     	fneg	d1, d1
    1d10: 6d3f85a0     	stp	d0, d1, [x13, #-8]
    1d14: 9100416b     	add	x11, x11, #16
    1d18: 910041ad     	add	x13, x13, #16
    1d1c: f10005ce     	subs	x14, x14, #1
    1d20: 54ffff41     	b.ne	0x1d08 <__ZN102_$LT$core..iter..adapters..map..Map$LT$I$C$F$GT$$u20$as$u20$core..iter..traits..iterator..Iterator$GT$4fold17h969fedb66e597117E+0x90>
    1d24: f9000109     	str	x9, [x8]
    1d28: d65f03c0     	ret
    1d2c: 927ee54c     	and	x12, x10, #0xffffffffffffffc
    1d30: 8b0c0129     	add	x9, x9, x12
    1d34: 9100800d     	add	x13, x0, #32
    1d38: 8b0b01ce     	add	x14, x14, x11
    1d3c: 910081ce     	add	x14, x14, #32
    1d40: aa0c03ef     	mov	x15, x12
    1d44: d10081b0     	sub	x16, x13, #32
    1d48: 4c408e00     	ld2.2d	{ v0, v1 }, [x16]
    1d4c: 4c408da2     	ld2.2d	{ v2, v3 }, [x13]
    1d50: 6ee0f821     	fneg.2d	v1, v1
    1d54: d10081d0     	sub	x16, x14, #32
    1d58: 4c008e00     	st2.2d	{ v0, v1 }, [x16]
    1d5c: 6ee0f863     	fneg.2d	v3, v3
    1d60: 4c008dc2     	st2.2d	{ v2, v3 }, [x14]
    1d64: 910101ad     	add	x13, x13, #64
    1d68: 910101ce     	add	x14, x14, #64
    1d6c: f10011ef     	subs	x15, x15, #4
    1d70: 54fffea1     	b.ne	0x1d44 <__ZN102_$LT$core..iter..adapters..map..Map$LT$I$C$F$GT$$u20$as$u20$core..iter..traits..iterator..Iterator$GT$4fold17h969fedb66e597117E+0xcc>
    1d74: eb0c015f     	cmp	x10, x12
    1d78: 54fffd60     	b.eq	0x1d24 <__ZN102_$LT$core..iter..adapters..map..Map$LT$I$C$F$GT$$u20$as$u20$core..iter..traits..iterator..Iterator$GT$4fold17h969fedb66e597117E+0xac>
    1d7c: 17ffffdc     	b	0x1cec <__ZN102_$LT$core..iter..adapters..map..Map$LT$I$C$F$GT$$u20$as$u20$core..iter..traits..iterator..Iterator$GT$4fold17h969fedb66e597117E+0x74>

0000000000001d80 <__ZN102_$LT$core..iter..adapters..map..Map$LT$I$C$F$GT$$u20$as$u20$core..iter..traits..iterator..Iterator$GT$4fold17hcd62e6328dafa229E>:
    1d80: a9402448     	ldp	x8, x9, [x2]
    1d84: eb01001f     	cmp	x0, x1
    1d88: 54000780     	b.eq	0x1e78 <__ZN102_$LT$core..iter..adapters..map..Map$LT$I$C$F$GT$$u20$as$u20$core..iter..traits..iterator..Iterator$GT$4fold17hcd62e6328dafa229E+0xf8>
    1d8c: f940084a     	ldr	x10, [x2, #16]
    1d90: cb00002c     	sub	x12, x1, x0
    1d94: d341fd8b     	lsr	x11, x12, #1
    1d98: f100419f     	cmp	x12, #16
    1d9c: 54000443     	b.lo	0x1e24 <__ZN102_$LT$core..iter..adapters..map..Map$LT$I$C$F$GT$$u20$as$u20$core..iter..traits..iterator..Iterator$GT$4fold17hcd62e6328dafa229E+0xa4>
    1da0: 8b09094d     	add	x13, x10, x9, lsl #2
    1da4: 8b0c05ac     	add	x12, x13, x12, lsl #1
    1da8: eb0101bf     	cmp	x13, x1
    1dac: fa403180     	ccmp	x12, x0, #0, lo
    1db0: 540003a8     	b.hi	0x1e24 <__ZN102_$LT$core..iter..adapters..map..Map$LT$I$C$F$GT$$u20$as$u20$core..iter..traits..iterator..Iterator$GT$4fold17hcd62e6328dafa229E+0xa4>
    1db4: 927ded6c     	and	x12, x11, #0x7ffffffffffffff8
    1db8: 5282aaae     	mov	w14, #5461
    1dbc: 4e020dc0     	dup.8h	v0, w14
    1dc0: 8b0c0129     	add	x9, x9, x12
    1dc4: 5286002e     	mov	w14, #12289
    1dc8: 4e020dc1     	dup.8h	v1, w14
    1dcc: aa0c03ee     	mov	x14, x12
    1dd0: aa0003ef     	mov	x15, x0
    1dd4: 3cc105e2     	ldr	q2, [x15], #16
    1dd8: 4e60a843     	cmlt.8h	v3, v2, #0
    1ddc: 4e211c64     	and.16b	v4, v3, v1
    1de0: 4f009423     	orr.8h	v3, #1
    1de4: 4e629c62     	mul.8h	v2, v3, v2
    1de8: 4e60c045     	smull2.4s	v5, v2, v0
    1dec: 0e60c046     	smull.4s	v6, v2, v0
    1df0: 4e4558c5     	uzp2.8h	v5, v6, v5
    1df4: 4f1604a5     	sshr.8h	v5, v5, #10
    1df8: 6f1114a5     	usra.8h	v5, v5, #15
    1dfc: 6e6194a2     	mls.8h	v2, v5, v1
    1e00: 4e639444     	mla.8h	v4, v2, v3
    1e04: 0f10a482     	sshll.4s	v2, v4, #0
    1e08: 4f10a483     	sshll2.4s	v3, v4, #0
    1e0c: ac810da2     	stp	q2, q3, [x13], #32
    1e10: f10021ce     	subs	x14, x14, #8
    1e14: 54fffe01     	b.ne	0x1dd4 <__ZN102_$LT$core..iter..adapters..map..Map$LT$I$C$F$GT$$u20$as$u20$core..iter..traits..iterator..Iterator$GT$4fold17hcd62e6328dafa229E+0x54>
    1e18: eb0c017f     	cmp	x11, x12
    1e1c: 54000061     	b.ne	0x1e28 <__ZN102_$LT$core..iter..adapters..map..Map$LT$I$C$F$GT$$u20$as$u20$core..iter..traits..iterator..Iterator$GT$4fold17hcd62e6328dafa229E+0xa8>
    1e20: 14000016     	b	0x1e78 <__ZN102_$LT$core..iter..adapters..map..Map$LT$I$C$F$GT$$u20$as$u20$core..iter..traits..iterator..Iterator$GT$4fold17hcd62e6328dafa229E+0xf8>
    1e24: d280000c     	mov	x12, #0
    1e28: cb0c016b     	sub	x11, x11, x12
    1e2c: 5282aaad     	mov	w13, #5461
    1e30: 5286002e     	mov	w14, #12289
    1e34: 8b0c040c     	add	x12, x0, x12, lsl #1
    1e38: 78c0258f     	ldrsh	w15, [x12], #2
    1e3c: 131f7df0     	asr	w16, w15, #31
    1e40: 32000210     	orr	w16, w16, #0x1
    1e44: 1b0f7e11     	mul	w17, w16, w15
    1e48: 13003e20     	sxth	w0, w17
    1e4c: 1b0d7c00     	mul	w0, w0, w13
    1e50: 131a7c01     	asr	w1, w0, #26
    1e54: 0b407c20     	add	w0, w1, w0, lsr #31
    1e58: 1b0ec411     	msub	w17, w0, w14, w17
    1e5c: 0a4f3dcf     	and	w15, w14, w15, lsr #15
    1e60: 1b103e2f     	madd	w15, w17, w16, w15
    1e64: 13003def     	sxth	w15, w15
    1e68: b829794f     	str	w15, [x10, x9, lsl #2]
    1e6c: 91000529     	add	x9, x9, #1
    1e70: f100056b     	subs	x11, x11, #1
    1e74: 54fffe21     	b.ne	0x1e38 <__ZN102_$LT$core..iter..adapters..map..Map$LT$I$C$F$GT$$u20$as$u20$core..iter..traits..iterator..Iterator$GT$4fold17hcd62e6328dafa229E+0xb8>
    1e78: f9000109     	str	x9, [x8]
    1e7c: d65f03c0     	ret

0000000000001e80 <__ZN102_$LT$core..iter..adapters..map..Map$LT$I$C$F$GT$$u20$as$u20$core..iter..traits..iterator..Iterator$GT$4fold17h706f491ede48f6d2E>:
    1e80: a9402448     	ldp	x8, x9, [x2]
    1e84: eb01001f     	cmp	x0, x1
    1e88: 540002a0     	b.eq	0x1edc <__ZN102_$LT$core..iter..adapters..map..Map$LT$I$C$F$GT$$u20$as$u20$core..iter..traits..iterator..Iterator$GT$4fold17h706f491ede48f6d2E+0x5c>
    1e8c: f940084a     	ldr	x10, [x2, #16]
    1e90: cb00002c     	sub	x12, x1, x0
    1e94: d343fd8b     	lsr	x11, x12, #3
    1e98: f101019f     	cmp	x12, #64
    1e9c: 540000c3     	b.lo	0x1eb4 <__ZN102_$LT$core..iter..adapters..map..Map$LT$I$C$F$GT$$u20$as$u20$core..iter..traits..iterator..Iterator$GT$4fold17h706f491ede48f6d2E+0x34>
    1ea0: d37df12c     	lsl	x12, x9, #3
    1ea4: 8b0a018e     	add	x14, x12, x10
    1ea8: cb0001cc     	sub	x12, x14, x0
    1eac: f101019f     	cmp	x12, #64
    1eb0: 540001a2     	b.hs	0x1ee4 <__ZN102_$LT$core..iter..adapters..map..Map$LT$I$C$F$GT$$u20$as$u20$core..iter..traits..iterator..Iterator$GT$4fold17h706f491ede48f6d2E+0x64>
    1eb4: d280000c     	mov	x12, #0
    1eb8: cb0c016b     	sub	x11, x11, x12
    1ebc: 8b0c0c0c     	add	x12, x0, x12, lsl #3
    1ec0: 1e6e1000     	fmov	d0, #1.00000000
    1ec4: fc408581     	ldr	d1, [x12], #8
    1ec8: 1e611801     	fdiv	d1, d0, d1
    1ecc: fc297941     	str	d1, [x10, x9, lsl #3]
    1ed0: 91000529     	add	x9, x9, #1
    1ed4: f100056b     	subs	x11, x11, #1
    1ed8: 54ffff61     	b.ne	0x1ec4 <__ZN102_$LT$core..iter..adapters..map..Map$LT$I$C$F$GT$$u20$as$u20$core..iter..traits..iterator..Iterator$GT$4fold17h706f491ede48f6d2E+0x44>
    1edc: f9000109     	str	x9, [x8]
    1ee0: d65f03c0     	ret
    1ee4: 927de56c     	and	x12, x11, #0x1ffffffffffffff8
    1ee8: 8b0c0129     	add	x9, x9, x12
    1eec: 9100800d     	add	x13, x0, #32
    1ef0: 910081ce     	add	x14, x14, #32
    1ef4: 6f03f600     	fmov.2d	v0, #1.00000000
    1ef8: aa0c03ef     	mov	x15, x12
    1efc: ad7f09a1     	ldp	q1, q2, [x13, #-32]
    1f00: acc211a3     	ldp	q3, q4, [x13], #64
    1f04: 6e61fc01     	fdiv.2d	v1, v0, v1
    1f08: 6e62fc02     	fdiv.2d	v2, v0, v2
    1f0c: 6e63fc03     	fdiv.2d	v3, v0, v3
    1f10: 6e64fc04     	fdiv.2d	v4, v0, v4
    1f14: ad3f09c1     	stp	q1, q2, [x14, #-32]
    1f18: ac8211c3     	stp	q3, q4, [x14], #64
    1f1c: f10021ef     	subs	x15, x15, #8
    1f20: 54fffee1     	b.ne	0x1efc <__ZN102_$LT$core..iter..adapters..map..Map$LT$I$C$F$GT$$u20$as$u20$core..iter..traits..iterator..Iterator$GT$4fold17h706f491ede48f6d2E+0x7c>
    1f24: eb0c017f     	cmp	x11, x12
    1f28: 54fffda0     	b.eq	0x1edc <__ZN102_$LT$core..iter..adapters..map..Map$LT$I$C$F$GT$$u20$as$u20$core..iter..traits..iterator..Iterator$GT$4fold17h706f491ede48f6d2E+0x5c>
    1f2c: 17ffffe3     	b	0x1eb8 <__ZN102_$LT$core..iter..adapters..map..Map$LT$I$C$F$GT$$u20$as$u20$core..iter..traits..iterator..Iterator$GT$4fold17h706f491ede48f6d2E+0x38>

0000000000001f30 <__ZN102_$LT$core..iter..adapters..map..Map$LT$I$C$F$GT$$u20$as$u20$core..iter..traits..iterator..Iterator$GT$4fold17h75fae9e6f61e5a73E>:
    1f30: a9402448     	ldp	x8, x9, [x2]
    1f34: eb01001f     	cmp	x0, x1
    1f38: 54000560     	b.eq	0x1fe4 <__ZN102_$LT$core..iter..adapters..map..Map$LT$I$C$F$GT$$u20$as$u20$core..iter..traits..iterator..Iterator$GT$4fold17h75fae9e6f61e5a73E+0xb4>
    1f3c: f940084a     	ldr	x10, [x2, #16]
    1f40: cb00002d     	sub	x13, x1, x0
    1f44: d344fdab     	lsr	x11, x13, #4
    1f48: f10281bf     	cmp	x13, #160
    1f4c: 54000263     	b.lo	0x1f98 <__ZN102_$LT$core..iter..adapters..map..Map$LT$I$C$F$GT$$u20$as$u20$core..iter..traits..iterator..Iterator$GT$4fold17h75fae9e6f61e5a73E+0x68>
    1f50: d100056e     	sub	x14, x11, #1
    1f54: 8b09114c     	add	x12, x10, x9, lsl #4
    1f58: d37cedcf     	lsl	x15, x14, #4
    1f5c: 91002190     	add	x16, x12, #8
    1f60: 8b0f0211     	add	x17, x16, x15
    1f64: 8b0f018f     	add	x15, x12, x15
    1f68: eb0c01ff     	cmp	x15, x12
    1f6c: fa502220     	ccmp	x17, x16, #0, hs
    1f70: d37cfdce     	lsr	x14, x14, #60
    1f74: fa4029c0     	ccmp	x14, #0, #0, hs
    1f78: 54000101     	b.ne	0x1f98 <__ZN102_$LT$core..iter..adapters..map..Map$LT$I$C$F$GT$$u20$as$u20$core..iter..traits..iterator..Iterator$GT$4fold17h75fae9e6f61e5a73E+0x68>
    1f7c: 927cedad     	and	x13, x13, #0xfffffffffffffff0
    1f80: 8b0d000e     	add	x14, x0, x13
    1f84: eb0e019f     	cmp	x12, x14
    1f88: 54000322     	b.hs	0x1fec <__ZN102_$LT$core..iter..adapters..map..Map$LT$I$C$F$GT$$u20$as$u20$core..iter..traits..iterator..Iterator$GT$4fold17h75fae9e6f61e5a73E+0xbc>
    1f8c: 8b0d018d     	add	x13, x12, x13
    1f90: eb0001bf     	cmp	x13, x0
    1f94: 540002c9     	b.ls	0x1fec <__ZN102_$LT$core..iter..adapters..map..Map$LT$I$C$F$GT$$u20$as$u20$core..iter..traits..iterator..Iterator$GT$4fold17h75fae9e6f61e5a73E+0xbc>
    1f98: d280000d     	mov	x13, #0
    1f9c: cb0d016b     	sub	x11, x11, x13
    1fa0: 8b0d100c     	add	x12, x0, x13, lsl #4
    1fa4: 6f00e400     	movi.2d	v0, #0000000000000000
    1fa8: 3cc10581     	ldr	q1, [x12], #16
    1fac: 6e61dc22     	fmul.2d	v2, v1, v1
    1fb0: 4e180443     	dup.2d	v3, v2[1]
    1fb4: 4e63d442     	fadd.2d	v2, v2, v3
    1fb8: 6e60dc23     	fmul.2d	v3, v1, v0
    1fbc: 6e034063     	ext.16b	v3, v3, v3, #8
    1fc0: 4e61d464     	fadd.2d	v4, v3, v1
    1fc4: 4ee1d461     	fsub.2d	v1, v3, v1
    1fc8: 6e184424     	mov.d	v4[1], v1[1]
    1fcc: 4e080441     	dup.2d	v1, v2[0]
    1fd0: 6e61fc81     	fdiv.2d	v1, v4, v1
    1fd4: 3ca97941     	str	q1, [x10, x9, lsl #4]
    1fd8: 91000529     	add	x9, x9, #1
    1fdc: f100056b     	subs	x11, x11, #1
    1fe0: 54fffe41     	b.ne	0x1fa8 <__ZN102_$LT$core..iter..adapters..map..Map$LT$I$C$F$GT$$u20$as$u20$core..iter..traits..iterator..Iterator$GT$4fold17h75fae9e6f61e5a73E+0x78>
    1fe4: f9000109     	str	x9, [x8]
    1fe8: d65f03c0     	ret
    1fec: 927fe96d     	and	x13, x11, #0xffffffffffffffe
    1ff0: 8b0d0129     	add	x9, x9, x13
    1ff4: 6f00e400     	movi.2d	v0, #0000000000000000
    1ff8: aa0d03ee     	mov	x14, x13
    1ffc: aa0003ef     	mov	x15, x0
    2000: 4cdf8de1     	ld2.2d	{ v1, v2 }, [x15], #32
    2004: 6e61dc23     	fmul.2d	v3, v1, v1
    2008: 6e62dc44     	fmul.2d	v4, v2, v2
    200c: 4e64d463     	fadd.2d	v3, v3, v4
    2010: 6e60dc44     	fmul.2d	v4, v2, v0
    2014: 4e64d424     	fadd.2d	v4, v1, v4
    2018: 6e60dc25     	fmul.2d	v5, v1, v0
    201c: 4ee2d4a1     	fsub.2d	v1, v5, v2
    2020: 6e63fc84     	fdiv.2d	v4, v4, v3
    2024: 6e63fc25     	fdiv.2d	v5, v1, v3
    2028: 4c9f8d84     	st2.2d	{ v4, v5 }, [x12], #32
    202c: f10009ce     	subs	x14, x14, #2
    2030: 54fffe81     	b.ne	0x2000 <__ZN102_$LT$core..iter..adapters..map..Map$LT$I$C$F$GT$$u20$as$u20$core..iter..traits..iterator..Iterator$GT$4fold17h75fae9e6f61e5a73E+0xd0>
    2034: eb0d017f     	cmp	x11, x13
    2038: 54fffd60     	b.eq	0x1fe4 <__ZN102_$LT$core..iter..adapters..map..Map$LT$I$C$F$GT$$u20$as$u20$core..iter..traits..iterator..Iterator$GT$4fold17h75fae9e6f61e5a73E+0xb4>
    203c: 17ffffd8     	b	0x1f9c <__ZN102_$LT$core..iter..adapters..map..Map$LT$I$C$F$GT$$u20$as$u20$core..iter..traits..iterator..Iterator$GT$4fold17h75fae9e6f61e5a73E+0x6c>

0000000000002040 <__ZN102_$LT$core..iter..adapters..map..Map$LT$I$C$F$GT$$u20$as$u20$core..iter..traits..iterator..Iterator$GT$4fold17hca19d9d2cdab9e86E>:
    2040: d103c3ff     	sub	sp, sp, #240
    2044: a9096ffc     	stp	x28, x27, [sp, #144]
    2048: a90a67fa     	stp	x26, x25, [sp, #160]
    204c: a90b5ff8     	stp	x24, x23, [sp, #176]
    2050: a90c57f6     	stp	x22, x21, [sp, #192]
    2054: a90d4ff4     	stp	x20, x19, [sp, #208]
    2058: a90e7bfd     	stp	x29, x30, [sp, #224]
    205c: 910383fd     	add	x29, sp, #224
    2060: a9422408     	ldp	x8, x9, [x0, #32]
    2064: a940642a     	ldp	x10, x25, [x1]
    2068: f9000bea     	str	x10, [sp, #16]
    206c: eb08013a     	subs	x26, x9, x8
    2070: 540009a0     	b.eq	0x21a4 <__ZN102_$LT$core..iter..adapters..map..Map$LT$I$C$F$GT$$u20$as$u20$core..iter..traits..iterator..Iterator$GT$4fold17hca19d9d2cdab9e86E+0x164>
    2074: d280001b     	mov	x27, #0
    2078: f9400009     	ldr	x9, [x0]
    207c: f940080a     	ldr	x10, [x0, #16]
    2080: f940082b     	ldr	x11, [x1, #16]
    2084: 8b19156b     	add	x11, x11, x25, lsl #5
    2088: d37be908     	lsl	x8, x8, #5
    208c: 8b08014a     	add	x10, x10, x8
    2090: a901abeb     	stp	x11, x10, [sp, #24]
    2094: 8b080128     	add	x8, x9, x8
    2098: f90017e8     	str	x8, [sp, #40]
    209c: 52800108     	mov	w8, #8
    20a0: f90007e8     	str	x8, [sp, #8]
    20a4: f94017e8     	ldr	x8, [sp, #40]
    20a8: 8b1b0108     	add	x8, x8, x27
    20ac: 39406117     	ldrb	w23, [x8, #24]
    20b0: a940f116     	ldp	x22, x28, [x8, #8]
    20b4: b40001bc     	cbz	x28, 0x20e8 <__ZN102_$LT$core..iter..adapters..map..Map$LT$I$C$F$GT$$u20$as$u20$core..iter..traits..iterator..Iterator$GT$4fold17hca19d9d2cdab9e86E+0xa8>
    20b8: d37df395     	lsl	x21, x28, #3
    20bc: d37cff88     	lsr	x8, x28, #60
    20c0: b5000868     	cbnz	x8, 0x21cc <__ZN102_$LT$core..iter..adapters..map..Map$LT$I$C$F$GT$$u20$as$u20$core..iter..traits..iterator..Iterator$GT$4fold17hca19d9d2cdab9e86E+0x18c>
    20c4: 90000008     	adrp	x8, 0x2000 <__ZN102_$LT$core..iter..adapters..map..Map$LT$I$C$F$GT$$u20$as$u20$core..iter..traits..iterator..Iterator$GT$4fold17hca19d9d2cdab9e86E+0x84>
    20c8: f9400108     	ldr	x8, [x8]
    20cc: 3940011f     	ldrb	wzr, [x8]
    20d0: aa1503e0     	mov	x0, x21
    20d4: 52800101     	mov	w1, #8
    20d8: 94000000     	bl	0x20d8 <__ZN102_$LT$core..iter..adapters..map..Map$LT$I$C$F$GT$$u20$as$u20$core..iter..traits..iterator..Iterator$GT$4fold17hca19d9d2cdab9e86E+0x98>
    20dc: b40007a0     	cbz	x0, 0x21d0 <__ZN102_$LT$core..iter..adapters..map..Map$LT$I$C$F$GT$$u20$as$u20$core..iter..traits..iterator..Iterator$GT$4fold17hca19d9d2cdab9e86E+0x190>
    20e0: aa0003f4     	mov	x20, x0
    20e4: 14000003     	b	0x20f0 <__ZN102_$LT$core..iter..adapters..map..Map$LT$I$C$F$GT$$u20$as$u20$core..iter..traits..iterator..Iterator$GT$4fold17hca19d9d2cdab9e86E+0xb0>
    20e8: d2800015     	mov	x21, #0
    20ec: 52800114     	mov	w20, #8
    20f0: aa1403e0     	mov	x0, x20
    20f4: aa1603e1     	mov	x1, x22
    20f8: aa1503e2     	mov	x2, x21
    20fc: 94000000     	bl	0x20fc <__ZN102_$LT$core..iter..adapters..map..Map$LT$I$C$F$GT$$u20$as$u20$core..iter..traits..iterator..Iterator$GT$4fold17hca19d9d2cdab9e86E+0xbc>
    2100: a90553fc     	stp	x28, x20, [sp, #80]
    2104: f90033fc     	str	x28, [sp, #96]
    2108: 3901a3f7     	strb	w23, [sp, #104]
    210c: f94013e8     	ldr	x8, [sp, #32]
    2110: 8b1b0108     	add	x8, x8, x27
    2114: 39406113     	ldrb	w19, [x8, #24]
    2118: a940e116     	ldp	x22, x24, [x8, #8]
    211c: b40001b8     	cbz	x24, 0x2150 <__ZN102_$LT$core..iter..adapters..map..Map$LT$I$C$F$GT$$u20$as$u20$core..iter..traits..iterator..Iterator$GT$4fold17hca19d9d2cdab9e86E+0x110>
    2120: d37df315     	lsl	x21, x24, #3
    2124: d37cff08     	lsr	x8, x24, #60
    2128: b50005c8     	cbnz	x8, 0x21e0 <__ZN102_$LT$core..iter..adapters..map..Map$LT$I$C$F$GT$$u20$as$u20$core..iter..traits..iterator..Iterator$GT$4fold17hca19d9d2cdab9e86E+0x1a0>
    212c: 90000008     	adrp	x8, 0x2000 <__ZN102_$LT$core..iter..adapters..map..Map$LT$I$C$F$GT$$u20$as$u20$core..iter..traits..iterator..Iterator$GT$4fold17hca19d9d2cdab9e86E+0xec>
    2130: f9400108     	ldr	x8, [x8]
    2134: 3940011f     	ldrb	wzr, [x8]
    2138: aa1503e0     	mov	x0, x21
    213c: 52800101     	mov	w1, #8
    2140: 94000000     	bl	0x2140 <__ZN102_$LT$core..iter..adapters..map..Map$LT$I$C$F$GT$$u20$as$u20$core..iter..traits..iterator..Iterator$GT$4fold17hca19d9d2cdab9e86E+0x100>
    2144: b4000500     	cbz	x0, 0x21e4 <__ZN102_$LT$core..iter..adapters..map..Map$LT$I$C$F$GT$$u20$as$u20$core..iter..traits..iterator..Iterator$GT$4fold17hca19d9d2cdab9e86E+0x1a4>
    2148: aa0003f7     	mov	x23, x0
    214c: 14000003     	b	0x2158 <__ZN102_$LT$core..iter..adapters..map..Map$LT$I$C$F$GT$$u20$as$u20$core..iter..traits..iterator..Iterator$GT$4fold17hca19d9d2cdab9e86E+0x118>
    2150: d2800015     	mov	x21, #0
    2154: 52800117     	mov	w23, #8
    2158: aa1703e0     	mov	x0, x23
    215c: aa1603e1     	mov	x1, x22
    2160: aa1503e2     	mov	x2, x21
    2164: 94000000     	bl	0x2164 <__ZN102_$LT$core..iter..adapters..map..Map$LT$I$C$F$GT$$u20$as$u20$core..iter..traits..iterator..Iterator$GT$4fold17hca19d9d2cdab9e86E+0x124>
    2168: a9075ff8     	stp	x24, x23, [sp, #112]
    216c: f90043f8     	str	x24, [sp, #128]
    2170: 390223f3     	strb	w19, [sp, #136]
    2174: 9100c3e0     	add	x0, sp, #48
    2178: 910143e1     	add	x1, sp, #80
    217c: 9101c3e2     	add	x2, sp, #112
    2180: 94000000     	bl	0x2180 <__ZN102_$LT$core..iter..adapters..map..Map$LT$I$C$F$GT$$u20$as$u20$core..iter..traits..iterator..Iterator$GT$4fold17hca19d9d2cdab9e86E+0x140>
    2184: f9400fe8     	ldr	x8, [sp, #24]
    2188: 8b1b0108     	add	x8, x8, x27
    218c: ad4187e0     	ldp	q0, q1, [sp, #48]
    2190: ad000500     	stp	q0, q1, [x8]
    2194: 91000739     	add	x25, x25, #1
    2198: 9100837b     	add	x27, x27, #32
    219c: f100075a     	subs	x26, x26, #1
    21a0: 54fff821     	b.ne	0x20a4 <__ZN102_$LT$core..iter..adapters..map..Map$LT$I$C$F$GT$$u20$as$u20$core..iter..traits..iterator..Iterator$GT$4fold17hca19d9d2cdab9e86E+0x64>
    21a4: f9400be8     	ldr	x8, [sp, #16]
    21a8: f9000119     	str	x25, [x8]
    21ac: a94e7bfd     	ldp	x29, x30, [sp, #224]
    21b0: a94d4ff4     	ldp	x20, x19, [sp, #208]
    21b4: a94c57f6     	ldp	x22, x21, [sp, #192]
    21b8: a94b5ff8     	ldp	x24, x23, [sp, #176]
    21bc: a94a67fa     	ldp	x26, x25, [sp, #160]
    21c0: a9496ffc     	ldp	x28, x27, [sp, #144]
    21c4: 9103c3ff     	add	sp, sp, #240
    21c8: d65f03c0     	ret
    21cc: f90007ff     	str	xzr, [sp, #8]
    21d0: f94007e0     	ldr	x0, [sp, #8]
    21d4: aa1503e1     	mov	x1, x21
    21d8: 94000000     	bl	0x21d8 <__ZN102_$LT$core..iter..adapters..map..Map$LT$I$C$F$GT$$u20$as$u20$core..iter..traits..iterator..Iterator$GT$4fold17hca19d9d2cdab9e86E+0x198>
    21dc: 14000005     	b	0x21f0 <__ZN102_$LT$core..iter..adapters..map..Map$LT$I$C$F$GT$$u20$as$u20$core..iter..traits..iterator..Iterator$GT$4fold17hca19d9d2cdab9e86E+0x1b0>
    21e0: f90007ff     	str	xzr, [sp, #8]
    21e4: f94007e0     	ldr	x0, [sp, #8]
    21e8: aa1503e1     	mov	x1, x21
    21ec: 94000000     	bl	0x21ec <__ZN102_$LT$core..iter..adapters..map..Map$LT$I$C$F$GT$$u20$as$u20$core..iter..traits..iterator..Iterator$GT$4fold17hca19d9d2cdab9e86E+0x1ac>
    21f0: d4200020     	brk	#0x1
    21f4: 1400000b     	b	0x2220 <__ZN102_$LT$core..iter..adapters..map..Map$LT$I$C$F$GT$$u20$as$u20$core..iter..traits..iterator..Iterator$GT$4fold17hca19d9d2cdab9e86E+0x1e0>
    21f8: aa0003f3     	mov	x19, x0
    21fc: b400015c     	cbz	x28, 0x2224 <__ZN102_$LT$core..iter..adapters..map..Map$LT$I$C$F$GT$$u20$as$u20$core..iter..traits..iterator..Iterator$GT$4fold17hca19d9d2cdab9e86E+0x1e4>
    2200: d37df381     	lsl	x1, x28, #3
    2204: aa1403e0     	mov	x0, x20
    2208: 52800102     	mov	w2, #8
    220c: 94000000     	bl	0x220c <__ZN102_$LT$core..iter..adapters..map..Map$LT$I$C$F$GT$$u20$as$u20$core..iter..traits..iterator..Iterator$GT$4fold17hca19d9d2cdab9e86E+0x1cc>
    2210: f9400be8     	ldr	x8, [sp, #16]
    2214: f9000119     	str	x25, [x8]
    2218: aa1303e0     	mov	x0, x19
    221c: 94000000     	bl	0x221c <__ZN102_$LT$core..iter..adapters..map..Map$LT$I$C$F$GT$$u20$as$u20$core..iter..traits..iterator..Iterator$GT$4fold17hca19d9d2cdab9e86E+0x1dc>
    2220: aa0003f3     	mov	x19, x0
    2224: f9400be8     	ldr	x8, [sp, #16]
    2228: f9000119     	str	x25, [x8]
    222c: aa1303e0     	mov	x0, x19
    2230: 94000000     	bl	0x2230 <__ZN102_$LT$core..iter..adapters..map..Map$LT$I$C$F$GT$$u20$as$u20$core..iter..traits..iterator..Iterator$GT$4fold17hca19d9d2cdab9e86E+0x1f0>

0000000000002234 <__ZN102_$LT$core..iter..adapters..map..Map$LT$I$C$F$GT$$u20$as$u20$core..iter..traits..iterator..Iterator$GT$4fold17h8a51c987703e0809E>:
    2234: d101c3ff     	sub	sp, sp, #112
    2238: a9016ffc     	stp	x28, x27, [sp, #16]
    223c: a90267fa     	stp	x26, x25, [sp, #32]
    2240: a9035ff8     	stp	x24, x23, [sp, #48]
    2244: a90457f6     	stp	x22, x21, [sp, #64]
    2248: a9054ff4     	stp	x20, x19, [sp, #80]
    224c: a9067bfd     	stp	x29, x30, [sp, #96]
    2250: 910183fd     	add	x29, sp, #96
    2254: a9406448     	ldp	x8, x25, [x2]
    2258: f90007e8     	str	x8, [sp, #8]
    225c: eb01001f     	cmp	x0, x1
    2260: 54000540     	b.eq	0x2308 <__ZN102_$LT$core..iter..adapters..map..Map$LT$I$C$F$GT$$u20$as$u20$core..iter..traits..iterator..Iterator$GT$4fold17h8a51c987703e0809E+0xd4>
    2264: aa0003f3     	mov	x19, x0
    2268: d280001a     	mov	x26, #0
    226c: f9400848     	ldr	x8, [x2, #16]
    2270: cb000029     	sub	x9, x1, x0
    2274: d345fd3b     	lsr	x27, x9, #5
    2278: 8b19151c     	add	x28, x8, x25, lsl #5
    227c: 52800108     	mov	w8, #8
    2280: f90003e8     	str	x8, [sp]
    2284: 14000011     	b	0x22c8 <__ZN102_$LT$core..iter..adapters..map..Map$LT$I$C$F$GT$$u20$as$u20$core..iter..traits..iterator..Iterator$GT$4fold17h8a51c987703e0809E+0x94>
    2288: d2800015     	mov	x21, #0
    228c: 52800117     	mov	w23, #8
    2290: aa1703e0     	mov	x0, x23
    2294: aa1603e1     	mov	x1, x22
    2298: aa1503e2     	mov	x2, x21
    229c: 94000000     	bl	0x229c <__ZN102_$LT$core..iter..adapters..map..Map$LT$I$C$F$GT$$u20$as$u20$core..iter..traits..iterator..Iterator$GT$4fold17h8a51c987703e0809E+0x68>
    22a0: 52800048     	mov	w8, #2
    22a4: 4b140108     	sub	w8, w8, w20
    22a8: 8b1a0389     	add	x9, x28, x26
    22ac: a9005d38     	stp	x24, x23, [x9]
    22b0: f9000938     	str	x24, [x9, #16]
    22b4: 39006128     	strb	w8, [x9, #24]
    22b8: 91000739     	add	x25, x25, #1
    22bc: 9100835a     	add	x26, x26, #32
    22c0: f100077b     	subs	x27, x27, #1
    22c4: 54000220     	b.eq	0x2308 <__ZN102_$LT$core..iter..adapters..map..Map$LT$I$C$F$GT$$u20$as$u20$core..iter..traits..iterator..Iterator$GT$4fold17h8a51c987703e0809E+0xd4>
    22c8: 8b1a0268     	add	x8, x19, x26
    22cc: 39406114     	ldrb	w20, [x8, #24]
    22d0: a940e116     	ldp	x22, x24, [x8, #8]
    22d4: b4fffdb8     	cbz	x24, 0x2288 <__ZN102_$LT$core..iter..adapters..map..Map$LT$I$C$F$GT$$u20$as$u20$core..iter..traits..iterator..Iterator$GT$4fold17h8a51c987703e0809E+0x54>
    22d8: d37df315     	lsl	x21, x24, #3
    22dc: d37cff08     	lsr	x8, x24, #60
    22e0: b5000288     	cbnz	x8, 0x2330 <__ZN102_$LT$core..iter..adapters..map..Map$LT$I$C$F$GT$$u20$as$u20$core..iter..traits..iterator..Iterator$GT$4fold17h8a51c987703e0809E+0xfc>
    22e4: 90000008     	adrp	x8, 0x2000 <__ZN102_$LT$core..iter..adapters..map..Map$LT$I$C$F$GT$$u20$as$u20$core..iter..traits..iterator..Iterator$GT$4fold17h8a51c987703e0809E+0xb0>
    22e8: f9400108     	ldr	x8, [x8]
    22ec: 3940011f     	ldrb	wzr, [x8]
    22f0: aa1503e0     	mov	x0, x21
    22f4: 52800101     	mov	w1, #8
    22f8: 94000000     	bl	0x22f8 <__ZN102_$LT$core..iter..adapters..map..Map$LT$I$C$F$GT$$u20$as$u20$core..iter..traits..iterator..Iterator$GT$4fold17h8a51c987703e0809E+0xc4>
    22fc: b40001c0     	cbz	x0, 0x2334 <__ZN102_$LT$core..iter..adapters..map..Map$LT$I$C$F$GT$$u20$as$u20$core..iter..traits..iterator..Iterator$GT$4fold17h8a51c987703e0809E+0x100>
    2300: aa0003f7     	mov	x23, x0
    2304: 17ffffe3     	b	0x2290 <__ZN102_$LT$core..iter..adapters..map..Map$LT$I$C$F$GT$$u20$as$u20$core..iter..traits..iterator..Iterator$GT$4fold17h8a51c987703e0809E+0x5c>
    2308: f94007e8     	ldr	x8, [sp, #8]
    230c: f9000119     	str	x25, [x8]
    2310: a9467bfd     	ldp	x29, x30, [sp, #96]
    2314: a9454ff4     	ldp	x20, x19, [sp, #80]
    2318: a94457f6     	ldp	x22, x21, [sp, #64]
    231c: a9435ff8     	ldp	x24, x23, [sp, #48]
    2320: a94267fa     	ldp	x26, x25, [sp, #32]
    2324: a9416ffc     	ldp	x28, x27, [sp, #16]
    2328: 9101c3ff     	add	sp, sp, #112
    232c: d65f03c0     	ret
    2330: f90003ff     	str	xzr, [sp]
    2334: f94003e0     	ldr	x0, [sp]
    2338: aa1503e1     	mov	x1, x21
    233c: 94000000     	bl	0x233c <__ZN102_$LT$core..iter..adapters..map..Map$LT$I$C$F$GT$$u20$as$u20$core..iter..traits..iterator..Iterator$GT$4fold17h8a51c987703e0809E+0x108>
    2340: d4200020     	brk	#0x1
    2344: f94007e8     	ldr	x8, [sp, #8]
    2348: f9000119     	str	x25, [x8]
    234c: 94000000     	bl	0x234c <__ZN102_$LT$core..iter..adapters..map..Map$LT$I$C$F$GT$$u20$as$u20$core..iter..traits..iterator..Iterator$GT$4fold17h8a51c987703e0809E+0x118>

0000000000002350 <__ZN102_$LT$core..iter..adapters..map..Map$LT$I$C$F$GT$$u20$as$u20$core..iter..traits..iterator..Iterator$GT$4fold17h8d790b776ee5ee00E>:
    2350: a9402448     	ldp	x8, x9, [x2]
    2354: eb01001f     	cmp	x0, x1
    2358: 54000240     	b.eq	0x23a0 <__ZN102_$LT$core..iter..adapters..map..Map$LT$I$C$F$GT$$u20$as$u20$core..iter..traits..iterator..Iterator$GT$4fold17h8d790b776ee5ee00E+0x50>
    235c: f940084b     	ldr	x11, [x2, #16]
    2360: cb00002a     	sub	x10, x1, x0
    2364: d341fd4a     	lsr	x10, x10, #1
    2368: 8b09116b     	add	x11, x11, x9, lsl #4
    236c: 9100216b     	add	x11, x11, #8
    2370: 8b0a0129     	add	x9, x9, x10
    2374: 78c0240c     	ldrsh	w12, [x0], #2
    2378: 7100019f     	cmp	w12, #0
    237c: 5a8c558d     	cneg	w13, w12, mi
    2380: 53073dae     	ubfx	w14, w13, #7, #9
    2384: 110025ce     	add	w14, w14, #9
    2388: 53087d8c     	lsr	w12, w12, #8
    238c: 330019ac     	bfxil	w12, w13, #0, #7
    2390: f81f816e     	stur	x14, [x11, #-8]
    2394: 3801056c     	strb	w12, [x11], #16
    2398: f100054a     	subs	x10, x10, #1
    239c: 54fffec1     	b.ne	0x2374 <__ZN102_$LT$core..iter..adapters..map..Map$LT$I$C$F$GT$$u20$as$u20$core..iter..traits..iterator..Iterator$GT$4fold17h8d790b776ee5ee00E+0x24>
    23a0: f9000109     	str	x9, [x8]
    23a4: d65f03c0     	ret

00000000000023a8 <__ZN102_$LT$core..iter..adapters..map..Map$LT$I$C$F$GT$$u20$as$u20$core..iter..traits..iterator..Iterator$GT$4fold17h9bac6e7c46280bb7E>:
    23a8: a9402448     	ldp	x8, x9, [x2]
    23ac: eb01001f     	cmp	x0, x1
    23b0: 54000500     	b.eq	0x2450 <__ZN102_$LT$core..iter..adapters..map..Map$LT$I$C$F$GT$$u20$as$u20$core..iter..traits..iterator..Iterator$GT$4fold17h9bac6e7c46280bb7E+0xa8>
    23b4: f940084a     	ldr	x10, [x2, #16]
    23b8: cb00002c     	sub	x12, x1, x0
    23bc: d344fd8b     	lsr	x11, x12, #4
    23c0: f103019f     	cmp	x12, #192
    23c4: 540002a3     	b.lo	0x2418 <__ZN102_$LT$core..iter..adapters..map..Map$LT$I$C$F$GT$$u20$as$u20$core..iter..traits..iterator..Iterator$GT$4fold17h9bac6e7c46280bb7E+0x70>
    23c8: d100056d     	sub	x13, x11, #1
    23cc: d37ced2e     	lsl	x14, x9, #4
    23d0: d37cedaf     	lsl	x15, x13, #4
    23d4: 8b0e0150     	add	x16, x10, x14
    23d8: 8b0f0211     	add	x17, x16, x15
    23dc: 91002201     	add	x1, x16, #8
    23e0: 8b0f002f     	add	x15, x1, x15
    23e4: eb10023f     	cmp	x17, x16
    23e8: fa4121e0     	ccmp	x15, x1, #0, hs
    23ec: d37cfdad     	lsr	x13, x13, #60
    23f0: fa4029a0     	ccmp	x13, #0, #0, hs
    23f4: 54000121     	b.ne	0x2418 <__ZN102_$LT$core..iter..adapters..map..Map$LT$I$C$F$GT$$u20$as$u20$core..iter..traits..iterator..Iterator$GT$4fold17h9bac6e7c46280bb7E+0x70>
    23f8: 8b09114d     	add	x13, x10, x9, lsl #4
    23fc: 927ced8c     	and	x12, x12, #0xfffffffffffffff0
    2400: 8b0c000f     	add	x15, x0, x12
    2404: eb0f01bf     	cmp	x13, x15
    2408: 54000282     	b.hs	0x2458 <__ZN102_$LT$core..iter..adapters..map..Map$LT$I$C$F$GT$$u20$as$u20$core..iter..traits..iterator..Iterator$GT$4fold17h9bac6e7c46280bb7E+0xb0>
    240c: 8b0c01ac     	add	x12, x13, x12
    2410: eb00019f     	cmp	x12, x0
    2414: 54000229     	b.ls	0x2458 <__ZN102_$LT$core..iter..adapters..map..Map$LT$I$C$F$GT$$u20$as$u20$core..iter..traits..iterator..Iterator$GT$4fold17h9bac6e7c46280bb7E+0xb0>
    2418: d280000c     	mov	x12, #0
    241c: cb0c016b     	sub	x11, x11, x12
    2420: 8b0c100c     	add	x12, x0, x12, lsl #4
    2424: 3cc10580     	ldr	q0, [x12], #16
    2428: 6e60dc01     	fmul.2d	v1, v0, v0
    242c: 4fc09000     	fmul.2d	v0, v0, v0[0]
    2430: 4e180421     	dup.2d	v1, v1[1]
    2434: 4e61d401     	fadd.2d	v1, v0, v1
    2438: 4ee0d400     	fsub.2d	v0, v0, v0
    243c: 6e184401     	mov.d	v1[1], v0[1]
    2440: 3ca97941     	str	q1, [x10, x9, lsl #4]
    2444: 91000529     	add	x9, x9, #1
    2448: f100056b     	subs	x11, x11, #1
    244c: 54fffec1     	b.ne	0x2424 <__ZN102_$LT$core..iter..adapters..map..Map$LT$I$C$F$GT$$u20$as$u20$core..iter..traits..iterator..Iterator$GT$4fold17h9bac6e7c46280bb7E+0x7c>
    2450: f9000109     	str	x9, [x8]
    2454: d65f03c0     	ret
    2458: 927ee56c     	and	x12, x11, #0xffffffffffffffc
    245c: 8b0c0129     	add	x9, x9, x12
    2460: 9100800d     	add	x13, x0, #32
    2464: 8b0a01ce     	add	x14, x14, x10
    2468: 910081ce     	add	x14, x14, #32
    246c: aa0c03ef     	mov	x15, x12
    2470: d10081b0     	sub	x16, x13, #32
    2474: 4c408e00     	ld2.2d	{ v0, v1 }, [x16]
    2478: 4c408da2     	ld2.2d	{ v2, v3 }, [x13]
    247c: 6e60dc04     	fmul.2d	v4, v0, v0
    2480: 6e62dc45     	fmul.2d	v5, v2, v2
    2484: 6e61dc26     	fmul.2d	v6, v1, v1
    2488: 6e63dc67     	fmul.2d	v7, v3, v3
    248c: 4e66d490     	fadd.2d	v16, v4, v6
    2490: 6e61dc00     	fmul.2d	v0, v0, v1
    2494: 4ee0d411     	fsub.2d	v17, v0, v0
    2498: 4e67d4a0     	fadd.2d	v0, v5, v7
    249c: d10081d0     	sub	x16, x14, #32
    24a0: 4c008e10     	st2.2d	{ v16, v17 }, [x16]
    24a4: 6e63dc42     	fmul.2d	v2, v2, v3
    24a8: 4ee2d441     	fsub.2d	v1, v2, v2
    24ac: 4c008dc0     	st2.2d	{ v0, v1 }, [x14]
    24b0: 910101ad     	add	x13, x13, #64
    24b4: 910101ce     	add	x14, x14, #64
    24b8: f10011ef     	subs	x15, x15, #4
    24bc: 54fffda1     	b.ne	0x2470 <__ZN102_$LT$core..iter..adapters..map..Map$LT$I$C$F$GT$$u20$as$u20$core..iter..traits..iterator..Iterator$GT$4fold17h9bac6e7c46280bb7E+0xc8>
    24c0: eb0c017f     	cmp	x11, x12
    24c4: 54fffc60     	b.eq	0x2450 <__ZN102_$LT$core..iter..adapters..map..Map$LT$I$C$F$GT$$u20$as$u20$core..iter..traits..iterator..Iterator$GT$4fold17h9bac6e7c46280bb7E+0xa8>
    24c8: 17ffffd5     	b	0x241c <__ZN102_$LT$core..iter..adapters..map..Map$LT$I$C$F$GT$$u20$as$u20$core..iter..traits..iterator..Iterator$GT$4fold17h9bac6e7c46280bb7E+0x74>

00000000000024cc <__ZN102_$LT$core..iter..adapters..map..Map$LT$I$C$F$GT$$u20$as$u20$core..iter..traits..iterator..Iterator$GT$4fold17hb43fab7be4ccf1e8E>:
    24cc: f940040a     	ldr	x10, [x0, #8]
    24d0: a9402029     	ldp	x9, x8, [x1]
    24d4: b40005ea     	cbz	x10, 0x2590 <__ZN102_$LT$core..iter..adapters..map..Map$LT$I$C$F$GT$$u20$as$u20$core..iter..traits..iterator..Iterator$GT$4fold17hb43fab7be4ccf1e8E+0xc4>
    24d8: f940080b     	ldr	x11, [x0, #16]
    24dc: f940082c     	ldr	x12, [x1, #16]
    24e0: b40005cb     	cbz	x11, 0x2598 <__ZN102_$LT$core..iter..adapters..map..Map$LT$I$C$F$GT$$u20$as$u20$core..iter..traits..iterator..Iterator$GT$4fold17hb43fab7be4ccf1e8E+0xcc>
    24e4: f940000d     	ldr	x13, [x0]
    24e8: 14000006     	b	0x2500 <__ZN102_$LT$core..iter..adapters..map..Map$LT$I$C$F$GT$$u20$as$u20$core..iter..traits..iterator..Iterator$GT$4fold17hb43fab7be4ccf1e8E+0x34>
    24ec: 78287990     	strh	w16, [x12, x8, lsl #1]
    24f0: 91000508     	add	x8, x8, #1
    24f4: 8b0e05ad     	add	x13, x13, x14, lsl #1
    24f8: eb0e014a     	subs	x10, x10, x14
    24fc: 540004a0     	b.eq	0x2590 <__ZN102_$LT$core..iter..adapters..map..Map$LT$I$C$F$GT$$u20$as$u20$core..iter..traits..iterator..Iterator$GT$4fold17hb43fab7be4ccf1e8E+0xc4>
    2500: eb0b015f     	cmp	x10, x11
    2504: 9a8b314e     	csel	x14, x10, x11, lo
    2508: f10081df     	cmp	x14, #32
    250c: 54000082     	b.hs	0x251c <__ZN102_$LT$core..iter..adapters..map..Map$LT$I$C$F$GT$$u20$as$u20$core..iter..traits..iterator..Iterator$GT$4fold17hb43fab7be4ccf1e8E+0x50>
    2510: 52800010     	mov	w16, #0
    2514: d280000f     	mov	x15, #0
    2518: 14000017     	b	0x2574 <__ZN102_$LT$core..iter..adapters..map..Map$LT$I$C$F$GT$$u20$as$u20$core..iter..traits..iterator..Iterator$GT$4fold17hb43fab7be4ccf1e8E+0xa8>
    251c: 927be9cf     	and	x15, x14, #0xffffffffffffffe0
    2520: 910081b0     	add	x16, x13, #32
    2524: 6f00e400     	movi.2d	v0, #0000000000000000
    2528: aa0f03f1     	mov	x17, x15
    252c: 6f00e401     	movi.2d	v1, #0000000000000000
    2530: 6f00e402     	movi.2d	v2, #0000000000000000
    2534: 6f00e403     	movi.2d	v3, #0000000000000000
    2538: ad7f1604     	ldp	q4, q5, [x16, #-32]
    253c: acc21e06     	ldp	q6, q7, [x16], #64
    2540: 4e608480     	add.8h	v0, v4, v0
    2544: 4e6184a1     	add.8h	v1, v5, v1
    2548: 4e6284c2     	add.8h	v2, v6, v2
    254c: 4e6384e3     	add.8h	v3, v7, v3
    2550: f1008231     	subs	x17, x17, #32
    2554: 54ffff21     	b.ne	0x2538 <__ZN102_$LT$core..iter..adapters..map..Map$LT$I$C$F$GT$$u20$as$u20$core..iter..traits..iterator..Iterator$GT$4fold17hb43fab7be4ccf1e8E+0x6c>
    2558: 4e608420     	add.8h	v0, v1, v0
    255c: 4e608440     	add.8h	v0, v2, v0
    2560: 4e608460     	add.8h	v0, v3, v0
    2564: 4e71b800     	addv.8h	h0, v0
    2568: 1e260010     	fmov	w16, s0
    256c: eb0f01df     	cmp	x14, x15
    2570: 54fffbe0     	b.eq	0x24ec <__ZN102_$LT$core..iter..adapters..map..Map$LT$I$C$F$GT$$u20$as$u20$core..iter..traits..iterator..Iterator$GT$4fold17hb43fab7be4ccf1e8E+0x20>
    2574: cb0f01d1     	sub	x17, x14, x15
    2578: 8b0f05af     	add	x15, x13, x15, lsl #1
    257c: 784025e0     	ldrh	w0, [x15], #2
    2580: 0b100010     	add	w16, w0, w16
    2584: f1000631     	subs	x17, x17, #1
    2588: 54ffffa1     	b.ne	0x257c <__ZN102_$LT$core..iter..adapters..map..Map$LT$I$C$F$GT$$u20$as$u20$core..iter..traits..iterator..Iterator$GT$4fold17hb43fab7be4ccf1e8E+0xb0>
    258c: 17ffffd8     	b	0x24ec <__ZN102_$LT$core..iter..adapters..map..Map$LT$I$C$F$GT$$u20$as$u20$core..iter..traits..iterator..Iterator$GT$4fold17hb43fab7be4ccf1e8E+0x20>
    2590: f9000128     	str	x8, [x9]
    2594: d65f03c0     	ret
    2598: 8b080588     	add	x8, x12, x8, lsl #1
    259c: 7800251f     	strh	wzr, [x8], #2
    25a0: 17ffffff     	b	0x259c <__ZN102_$LT$core..iter..adapters..map..Map$LT$I$C$F$GT$$u20$as$u20$core..iter..traits..iterator..Iterator$GT$4fold17hb43fab7be4ccf1e8E+0xd0>

00000000000025a4 <__ZN102_$LT$core..iter..adapters..map..Map$LT$I$C$F$GT$$u20$as$u20$core..iter..traits..iterator..Iterator$GT$4fold17hba37f041bd031881E>:
    25a4: 6dba23e9     	stp	d9, d8, [sp, #-96]!
    25a8: a90167fa     	stp	x26, x25, [sp, #16]
    25ac: a9025ff8     	stp	x24, x23, [sp, #32]
    25b0: a90357f6     	stp	x22, x21, [sp, #48]
    25b4: a9044ff4     	stp	x20, x19, [sp, #64]
    25b8: a9057bfd     	stp	x29, x30, [sp, #80]
    25bc: 910143fd     	add	x29, sp, #80
    25c0: 29442408     	ldp	w8, w9, [x0, #32]
    25c4: a9405835     	ldp	x21, x22, [x1]
    25c8: 6b080137     	subs	w23, w9, w8
    25cc: 5400026d     	b.le	0x2618 <__ZN102_$LT$core..iter..adapters..map..Map$LT$I$C$F$GT$$u20$as$u20$core..iter..traits..iterator..Iterator$GT$4fold17hba37f041bd031881E+0x74>
    25d0: a9406418     	ldp	x24, x25, [x0]
    25d4: a9415013     	ldp	x19, x20, [x0, #16]
    25d8: d2953f88     	mov	x8, #43516
    25dc: f2ba5e28     	movk	x8, #54001, lsl #16
    25e0: f2cc49a8     	movk	x8, #25165, lsl #32
    25e4: f2f7ea08     	movk	x8, #48976, lsl #48
    25e8: 9e670108     	fmov	d8, x8
    25ec: f940083a     	ldr	x26, [x1, #16]
    25f0: fd400300     	ldr	d0, [x24]
    25f4: fd400321     	ldr	d1, [x25]
    25f8: 1e682822     	fadd	d2, d1, d8
    25fc: aa1303e0     	mov	x0, x19
    2600: aa1403e1     	mov	x1, x20
    2604: 94000000     	bl	0x2604 <__ZN102_$LT$core..iter..adapters..map..Map$LT$I$C$F$GT$$u20$as$u20$core..iter..traits..iterator..Iterator$GT$4fold17hba37f041bd031881E+0x60>
    2608: 78367b40     	strh	w0, [x26, x22, lsl #1]
    260c: 910006d6     	add	x22, x22, #1
    2610: 710006f7     	subs	w23, w23, #1
    2614: 54fffee1     	b.ne	0x25f0 <__ZN102_$LT$core..iter..adapters..map..Map$LT$I$C$F$GT$$u20$as$u20$core..iter..traits..iterator..Iterator$GT$4fold17hba37f041bd031881E+0x4c>
    2618: f90002b6     	str	x22, [x21]
    261c: a9457bfd     	ldp	x29, x30, [sp, #80]
    2620: a9444ff4     	ldp	x20, x19, [sp, #64]
    2624: a94357f6     	ldp	x22, x21, [sp, #48]
    2628: a9425ff8     	ldp	x24, x23, [sp, #32]
    262c: a94167fa     	ldp	x26, x25, [sp, #16]
    2630: 6cc623e9     	ldp	d9, d8, [sp], #96
    2634: d65f03c0     	ret
    2638: f90002b6     	str	x22, [x21]
    263c: 94000000     	bl	0x263c <__ZN102_$LT$core..iter..adapters..map..Map$LT$I$C$F$GT$$u20$as$u20$core..iter..traits..iterator..Iterator$GT$4fold17hba37f041bd031881E+0x98>

0000000000002640 <__ZN102_$LT$core..iter..adapters..map..Map$LT$I$C$F$GT$$u20$as$u20$core..iter..traits..iterator..Iterator$GT$4fold17hc4e19001760904afE>:
    2640: d10283ff     	sub	sp, sp, #160
    2644: a9046ffc     	stp	x28, x27, [sp, #64]
    2648: a90567fa     	stp	x26, x25, [sp, #80]
    264c: a9065ff8     	stp	x24, x23, [sp, #96]
    2650: a90757f6     	stp	x22, x21, [sp, #112]
    2654: a9084ff4     	stp	x20, x19, [sp, #128]
    2658: a9097bfd     	stp	x29, x30, [sp, #144]
    265c: 910243fd     	add	x29, sp, #144
    2660: a9402013     	ldp	x19, x8, [x0]
    2664: a9405434     	ldp	x20, x21, [x1]
    2668: eb08027f     	cmp	x19, x8
    266c: 54000860     	b.eq	0x2778 <__ZN102_$LT$core..iter..adapters..map..Map$LT$I$C$F$GT$$u20$as$u20$core..iter..traits..iterator..Iterator$GT$4fold17hc4e19001760904afE+0x138>
    2670: f9400816     	ldr	x22, [x0, #16]
    2674: f9400829     	ldr	x9, [x1, #16]
    2678: cb130108     	sub	x8, x8, x19
    267c: d345fd17     	lsr	x23, x8, #5
    2680: 910043f8     	add	x24, sp, #16
    2684: 8b151128     	add	x8, x9, x21, lsl #4
    2688: 91002119     	add	x25, x8, #8
    268c: d2f0001a     	mov	x26, #-9223372036854775808
    2690: 14000008     	b	0x26b0 <__ZN102_$LT$core..iter..adapters..map..Map$LT$I$C$F$GT$$u20$as$u20$core..iter..traits..iterator..Iterator$GT$4fold17hc4e19001760904afE+0x70>
    2694: 9e620360     	scvtf	d0, x27
    2698: fc1f8320     	stur	d0, [x25, #-8]
    269c: f801073f     	str	xzr, [x25], #16
    26a0: 910006b5     	add	x21, x21, #1
    26a4: 91008273     	add	x19, x19, #32
    26a8: f10006f7     	subs	x23, x23, #1
    26ac: 54000660     	b.eq	0x2778 <__ZN102_$LT$core..iter..adapters..map..Map$LT$I$C$F$GT$$u20$as$u20$core..iter..traits..iterator..Iterator$GT$4fold17hc4e19001760904afE+0x138>
    26b0: f94002c2     	ldr	x2, [x22]
    26b4: 910043e0     	add	x0, sp, #16
    26b8: aa1303e1     	mov	x1, x19
    26bc: 94000000     	bl	0x26bc <__ZN102_$LT$core..iter..adapters..map..Map$LT$I$C$F$GT$$u20$as$u20$core..iter..traits..iterator..Iterator$GT$4fold17hc4e19001760904afE+0x7c>
    26c0: 3940a3e8     	ldrb	w8, [sp, #40]
    26c4: 34000128     	cbz	w8, 0x26e8 <__ZN102_$LT$core..iter..adapters..map..Map$LT$I$C$F$GT$$u20$as$u20$core..iter..traits..iterator..Iterator$GT$4fold17hc4e19001760904afE+0xa8>
    26c8: 7100051f     	cmp	w8, #1
    26cc: 540000a0     	b.eq	0x26e0 <__ZN102_$LT$core..iter..adapters..map..Map$LT$I$C$F$GT$$u20$as$u20$core..iter..traits..iterator..Iterator$GT$4fold17hc4e19001760904afE+0xa0>
    26d0: f94013e8     	ldr	x8, [sp, #32]
    26d4: f100051f     	cmp	x8, #1
    26d8: 54000360     	b.eq	0x2744 <__ZN102_$LT$core..iter..adapters..map..Map$LT$I$C$F$GT$$u20$as$u20$core..iter..traits..iterator..Iterator$GT$4fold17hc4e19001760904afE+0x104>
    26dc: b5000228     	cbnz	x8, 0x2720 <__ZN102_$LT$core..iter..adapters..map..Map$LT$I$C$F$GT$$u20$as$u20$core..iter..traits..iterator..Iterator$GT$4fold17hc4e19001760904afE+0xe0>
    26e0: d280001b     	mov	x27, #0
    26e4: 14000009     	b	0x2708 <__ZN102_$LT$core..iter..adapters..map..Map$LT$I$C$F$GT$$u20$as$u20$core..iter..traits..iterator..Iterator$GT$4fold17hc4e19001760904afE+0xc8>
    26e8: f94013e9     	ldr	x9, [sp, #32]
    26ec: b40000c9     	cbz	x9, 0x2704 <__ZN102_$LT$core..iter..adapters..map..Map$LT$I$C$F$GT$$u20$as$u20$core..iter..traits..iterator..Iterator$GT$4fold17hc4e19001760904afE+0xc4>
    26f0: f100053f     	cmp	x9, #1
    26f4: 54000161     	b.ne	0x2720 <__ZN102_$LT$core..iter..adapters..map..Map$LT$I$C$F$GT$$u20$as$u20$core..iter..traits..iterator..Iterator$GT$4fold17hc4e19001760904afE+0xe0>
    26f8: f9400fe0     	ldr	x0, [sp, #24]
    26fc: f9400009     	ldr	x9, [x0]
    2700: b7f802e9     	tbnz	x9, #63, 0x275c <__ZN102_$LT$core..iter..adapters..map..Map$LT$I$C$F$GT$$u20$as$u20$core..iter..traits..iterator..Iterator$GT$4fold17hc4e19001760904afE+0x11c>
    2704: cb0903fb     	neg	x27, x9
    2708: a94103e8     	ldp	x8, x0, [sp, #16]
    270c: b4fffc48     	cbz	x8, 0x2694 <__ZN102_$LT$core..iter..adapters..map..Map$LT$I$C$F$GT$$u20$as$u20$core..iter..traits..iterator..Iterator$GT$4fold17hc4e19001760904afE+0x54>
    2710: d37df101     	lsl	x1, x8, #3
    2714: 52800102     	mov	w2, #8
    2718: 94000000     	bl	0x2718 <__ZN102_$LT$core..iter..adapters..map..Map$LT$I$C$F$GT$$u20$as$u20$core..iter..traits..iterator..Iterator$GT$4fold17hc4e19001760904afE+0xd8>
    271c: 17ffffde     	b	0x2694 <__ZN102_$LT$core..iter..adapters..map..Map$LT$I$C$F$GT$$u20$as$u20$core..iter..traits..iterator..Iterator$GT$4fold17hc4e19001760904afE+0x54>
    2720: a94103e8     	ldp	x8, x0, [sp, #16]
    2724: 3cc10300     	ldur	q0, [x24, #16]
    2728: 3d800fe0     	str	q0, [sp, #48]
    272c: 3dc00fe0     	ldr	q0, [sp, #48]
    2730: 3d8003e0     	str	q0, [sp]
    2734: eb1a011f     	cmp	x8, x26
    2738: 54000321     	b.ne	0x279c <__ZN102_$LT$core..iter..adapters..map..Map$LT$I$C$F$GT$$u20$as$u20$core..iter..traits..iterator..Iterator$GT$4fold17hc4e19001760904afE+0x15c>
    273c: aa0003fb     	mov	x27, x0
    2740: 17ffffd5     	b	0x2694 <__ZN102_$LT$core..iter..adapters..map..Map$LT$I$C$F$GT$$u20$as$u20$core..iter..traits..iterator..Iterator$GT$4fold17hc4e19001760904afE+0x54>
    2744: a94103e8     	ldp	x8, x0, [sp, #16]
    2748: f940001b     	ldr	x27, [x0]
    274c: 3cc10300     	ldur	q0, [x24, #16]
    2750: 3d800fe0     	str	q0, [sp, #48]
    2754: b6fffddb     	tbz	x27, #63, 0x270c <__ZN102_$LT$core..iter..adapters..map..Map$LT$I$C$F$GT$$u20$as$u20$core..iter..traits..iterator..Iterator$GT$4fold17hc4e19001760904afE+0xcc>
    2758: 17fffff5     	b	0x272c <__ZN102_$LT$core..iter..adapters..map..Map$LT$I$C$F$GT$$u20$as$u20$core..iter..traits..iterator..Iterator$GT$4fold17hc4e19001760904afE+0xec>
    275c: f9400be8     	ldr	x8, [sp, #16]
    2760: 3cc10300     	ldur	q0, [x24, #16]
    2764: 3d800fe0     	str	q0, [sp, #48]
    2768: d2f0001b     	mov	x27, #-9223372036854775808
    276c: eb1b013f     	cmp	x9, x27
    2770: 54fffce0     	b.eq	0x270c <__ZN102_$LT$core..iter..adapters..map..Map$LT$I$C$F$GT$$u20$as$u20$core..iter..traits..iterator..Iterator$GT$4fold17hc4e19001760904afE+0xcc>
    2774: 17ffffee     	b	0x272c <__ZN102_$LT$core..iter..adapters..map..Map$LT$I$C$F$GT$$u20$as$u20$core..iter..traits..iterator..Iterator$GT$4fold17hc4e19001760904afE+0xec>
    2778: f9000295     	str	x21, [x20]
    277c: a9497bfd     	ldp	x29, x30, [sp, #144]
    2780: a9484ff4     	ldp	x20, x19, [sp, #128]
    2784: a94757f6     	ldp	x22, x21, [sp, #112]
    2788: a9465ff8     	ldp	x24, x23, [sp, #96]
    278c: a94567fa     	ldp	x26, x25, [sp, #80]
    2790: a9446ffc     	ldp	x28, x27, [sp, #64]
    2794: 910283ff     	add	sp, sp, #160
    2798: d65f03c0     	ret
    279c: a90103e8     	stp	x8, x0, [sp, #16]
    27a0: 3dc003e0     	ldr	q0, [sp]
    27a4: 3d800be0     	str	q0, [sp, #32]
    27a8: 90000000     	adrp	x0, 0x2000 <__ZN102_$LT$core..iter..adapters..map..Map$LT$I$C$F$GT$$u20$as$u20$core..iter..traits..iterator..Iterator$GT$4fold17hc4e19001760904afE+0x168>
    27ac: 91000000     	add	x0, x0, #0
    27b0: 90000003     	adrp	x3, 0x2000 <__ZN102_$LT$core..iter..adapters..map..Map$LT$I$C$F$GT$$u20$as$u20$core..iter..traits..iterator..Iterator$GT$4fold17hc4e19001760904afE+0x170>
    27b4: 91000063     	add	x3, x3, #0
    27b8: 90000004     	adrp	x4, 0x2000 <__ZN102_$LT$core..iter..adapters..map..Map$LT$I$C$F$GT$$u20$as$u20$core..iter..traits..iterator..Iterator$GT$4fold17hc4e19001760904afE+0x178>
    27bc: 91000084     	add	x4, x4, #0
    27c0: 910043e2     	add	x2, sp, #16
    27c4: 52800561     	mov	w1, #43
    27c8: 94000000     	bl	0x27c8 <__ZN102_$LT$core..iter..adapters..map..Map$LT$I$C$F$GT$$u20$as$u20$core..iter..traits..iterator..Iterator$GT$4fold17hc4e19001760904afE+0x188>
    27cc: d4200020     	brk	#0x1
    27d0: aa0003f3     	mov	x19, x0
    27d4: f9400be8     	ldr	x8, [sp, #16]
    27d8: b4000128     	cbz	x8, 0x27fc <__ZN102_$LT$core..iter..adapters..map..Map$LT$I$C$F$GT$$u20$as$u20$core..iter..traits..iterator..Iterator$GT$4fold17hc4e19001760904afE+0x1bc>
    27dc: f9400fe0     	ldr	x0, [sp, #24]
    27e0: d37df101     	lsl	x1, x8, #3
    27e4: 52800102     	mov	w2, #8
    27e8: 94000000     	bl	0x27e8 <__ZN102_$LT$core..iter..adapters..map..Map$LT$I$C$F$GT$$u20$as$u20$core..iter..traits..iterator..Iterator$GT$4fold17hc4e19001760904afE+0x1a8>
    27ec: f9000295     	str	x21, [x20]
    27f0: aa1303e0     	mov	x0, x19
    27f4: 94000000     	bl	0x27f4 <__ZN102_$LT$core..iter..adapters..map..Map$LT$I$C$F$GT$$u20$as$u20$core..iter..traits..iterator..Iterator$GT$4fold17hc4e19001760904afE+0x1b4>
    27f8: aa0003f3     	mov	x19, x0
    27fc: f9000295     	str	x21, [x20]
    2800: aa1303e0     	mov	x0, x19
    2804: 94000000     	bl	0x2804 <__ZN102_$LT$core..iter..adapters..map..Map$LT$I$C$F$GT$$u20$as$u20$core..iter..traits..iterator..Iterator$GT$4fold17hc4e19001760904afE+0x1c4>

0000000000002808 <__ZN102_$LT$core..iter..adapters..map..Map$LT$I$C$F$GT$$u20$as$u20$core..iter..traits..iterator..Iterator$GT$4fold17hd00417acf7197cbcE>:
    2808: a9402448     	ldp	x8, x9, [x2]
    280c: eb01001f     	cmp	x0, x1
    2810: 54000280     	b.eq	0x2860 <__ZN102_$LT$core..iter..adapters..map..Map$LT$I$C$F$GT$$u20$as$u20$core..iter..traits..iterator..Iterator$GT$4fold17hd00417acf7197cbcE+0x58>
    2814: f940084a     	ldr	x10, [x2, #16]
    2818: cb00002c     	sub	x12, x1, x0
    281c: d341fd8b     	lsr	x11, x12, #1
    2820: f101019f     	cmp	x12, #64
    2824: 540000c3     	b.lo	0x283c <__ZN102_$LT$core..iter..adapters..map..Map$LT$I$C$F$GT$$u20$as$u20$core..iter..traits..iterator..Iterator$GT$4fold17hd00417acf7197cbcE+0x34>
    2828: d37ff92c     	lsl	x12, x9, #1
    282c: 8b0a018e     	add	x14, x12, x10
    2830: cb0001cc     	sub	x12, x14, x0
    2834: f101019f     	cmp	x12, #64
    2838: 54000182     	b.hs	0x2868 <__ZN102_$LT$core..iter..adapters..map..Map$LT$I$C$F$GT$$u20$as$u20$core..iter..traits..iterator..Iterator$GT$4fold17hd00417acf7197cbcE+0x60>
    283c: d280000c     	mov	x12, #0
    2840: cb0c016b     	sub	x11, x11, x12
    2844: 8b0c040c     	add	x12, x0, x12, lsl #1
    2848: 7840258d     	ldrh	w13, [x12], #2
    284c: 4b0d03ed     	neg	w13, w13
    2850: 7829794d     	strh	w13, [x10, x9, lsl #1]
    2854: 91000529     	add	x9, x9, #1
    2858: f100056b     	subs	x11, x11, #1
    285c: 54ffff61     	b.ne	0x2848 <__ZN102_$LT$core..iter..adapters..map..Map$LT$I$C$F$GT$$u20$as$u20$core..iter..traits..iterator..Iterator$GT$4fold17hd00417acf7197cbcE+0x40>
    2860: f9000109     	str	x9, [x8]
    2864: d65f03c0     	ret
    2868: 927be56c     	and	x12, x11, #0x7fffffffffffffe0
    286c: 8b0c0129     	add	x9, x9, x12
    2870: 9100800d     	add	x13, x0, #32
    2874: 910081ce     	add	x14, x14, #32
    2878: aa0c03ef     	mov	x15, x12
    287c: ad7f05a0     	ldp	q0, q1, [x13, #-32]
    2880: acc20da2     	ldp	q2, q3, [x13], #64
    2884: 6e60b800     	neg.8h	v0, v0
    2888: 6e60b821     	neg.8h	v1, v1
    288c: 6e60b842     	neg.8h	v2, v2
    2890: 6e60b863     	neg.8h	v3, v3
    2894: ad3f05c0     	stp	q0, q1, [x14, #-32]
    2898: ac820dc2     	stp	q2, q3, [x14], #64
    289c: f10081ef     	subs	x15, x15, #32
    28a0: 54fffee1     	b.ne	0x287c <__ZN102_$LT$core..iter..adapters..map..Map$LT$I$C$F$GT$$u20$as$u20$core..iter..traits..iterator..Iterator$GT$4fold17hd00417acf7197cbcE+0x74>
    28a4: eb0c017f     	cmp	x11, x12
    28a8: 54fffdc0     	b.eq	0x2860 <__ZN102_$LT$core..iter..adapters..map..Map$LT$I$C$F$GT$$u20$as$u20$core..iter..traits..iterator..Iterator$GT$4fold17hd00417acf7197cbcE+0x58>
    28ac: 17ffffe5     	b	0x2840 <__ZN102_$LT$core..iter..adapters..map..Map$LT$I$C$F$GT$$u20$as$u20$core..iter..traits..iterator..Iterator$GT$4fold17hd00417acf7197cbcE+0x38>

00000000000028b0 <__ZN102_$LT$core..iter..adapters..map..Map$LT$I$C$F$GT$$u20$as$u20$core..iter..traits..iterator..Iterator$GT$4fold17hd294bc8e31bddc44E>:
    28b0: eb01001f     	cmp	x0, x1
    28b4: 54001000     	b.eq	0x2ab4 <__ZN102_$LT$core..iter..adapters..map..Map$LT$I$C$F$GT$$u20$as$u20$core..iter..traits..iterator..Iterator$GT$4fold17hd294bc8e31bddc44E+0x204>
    28b8: cb000029     	sub	x9, x1, x0
    28bc: d341fd28     	lsr	x8, x9, #1
    28c0: f101013f     	cmp	x9, #64
    28c4: 54000062     	b.hs	0x28d0 <__ZN102_$LT$core..iter..adapters..map..Map$LT$I$C$F$GT$$u20$as$u20$core..iter..traits..iterator..Iterator$GT$4fold17hd294bc8e31bddc44E+0x20>
    28c8: d2800009     	mov	x9, #0
    28cc: 14000072     	b	0x2a94 <__ZN102_$LT$core..iter..adapters..map..Map$LT$I$C$F$GT$$u20$as$u20$core..iter..traits..iterator..Iterator$GT$4fold17hd294bc8e31bddc44E+0x1e4>
    28d0: 927be509     	and	x9, x8, #0x7fffffffffffffe0
    28d4: 9100800a     	add	x10, x0, #32
    28d8: aa0903eb     	mov	x11, x9
    28dc: ad7f0543     	ldp	q3, q1, [x10, #-32]
    28e0: 0f10a462     	sshll.4s	v2, v3, #0
    28e4: 0f20a444     	sshll.2d	v4, v2, #0
    28e8: 4e61d884     	scvtf.2d	v4, v4
    28ec: 4f20a442     	sshll2.2d	v2, v2, #0
    28f0: 4e61d842     	scvtf.2d	v2, v2
    28f4: 4f10a463     	sshll2.4s	v3, v3, #0
    28f8: 6e64dc84     	fmul.2d	v4, v4, v4
    28fc: 1e642800     	fadd	d0, d0, d4
    2900: 5e180484     	mov	d4, v4[1]
    2904: 1e642800     	fadd	d0, d0, d4
    2908: 0f20a464     	sshll.2d	v4, v3, #0
    290c: 4e61d884     	scvtf.2d	v4, v4
    2910: 4f20a463     	sshll2.2d	v3, v3, #0
    2914: 4e61d863     	scvtf.2d	v3, v3
    2918: 6e62dc42     	fmul.2d	v2, v2, v2
    291c: 1e622800     	fadd	d0, d0, d2
    2920: 5e180442     	mov	d2, v2[1]
    2924: 1e622800     	fadd	d0, d0, d2
    2928: 0f10a422     	sshll.4s	v2, v1, #0
    292c: 6e64dc84     	fmul.2d	v4, v4, v4
    2930: 1e642800     	fadd	d0, d0, d4
    2934: 5e180484     	mov	d4, v4[1]
    2938: 1e642800     	fadd	d0, d0, d4
    293c: 0f20a444     	sshll.2d	v4, v2, #0
    2940: 4e61d884     	scvtf.2d	v4, v4
    2944: 6e63dc63     	fmul.2d	v3, v3, v3
    2948: 1e632800     	fadd	d0, d0, d3
    294c: 5e180463     	mov	d3, v3[1]
    2950: 6e64dc84     	fmul.2d	v4, v4, v4
    2954: 1e632800     	fadd	d0, d0, d3
    2958: 5e180483     	mov	d3, v4[1]
    295c: 1e642800     	fadd	d0, d0, d4
    2960: 1e632800     	fadd	d0, d0, d3
    2964: acc21143     	ldp	q3, q4, [x10], #64
    2968: 4f20a442     	sshll2.2d	v2, v2, #0
    296c: 4e61d842     	scvtf.2d	v2, v2
    2970: 4f10a421     	sshll2.4s	v1, v1, #0
    2974: 6e62dc42     	fmul.2d	v2, v2, v2
    2978: 1e622800     	fadd	d0, d0, d2
    297c: 5e180442     	mov	d2, v2[1]
    2980: 1e622800     	fadd	d0, d0, d2
    2984: 0f20a422     	sshll.2d	v2, v1, #0
    2988: 4e61d842     	scvtf.2d	v2, v2
    298c: 4f20a421     	sshll2.2d	v1, v1, #0
    2990: 4e61d821     	scvtf.2d	v1, v1
    2994: 6e62dc42     	fmul.2d	v2, v2, v2
    2998: 1e622800     	fadd	d0, d0, d2
    299c: 5e180442     	mov	d2, v2[1]
    29a0: 1e622800     	fadd	d0, d0, d2
    29a4: 0f10a462     	sshll.4s	v2, v3, #0
    29a8: 6e61dc21     	fmul.2d	v1, v1, v1
    29ac: 1e612800     	fadd	d0, d0, d1
    29b0: 5e180421     	mov	d1, v1[1]
    29b4: 1e612800     	fadd	d0, d0, d1
    29b8: 0f20a441     	sshll.2d	v1, v2, #0
    29bc: 4e61d821     	scvtf.2d	v1, v1
    29c0: 6e61dc21     	fmul.2d	v1, v1, v1
    29c4: 1e612800     	fadd	d0, d0, d1
    29c8: 5e180421     	mov	d1, v1[1]
    29cc: 1e612800     	fadd	d0, d0, d1
    29d0: 4f20a441     	sshll2.2d	v1, v2, #0
    29d4: 4e61d821     	scvtf.2d	v1, v1
    29d8: 4f10a462     	sshll2.4s	v2, v3, #0
    29dc: 6e61dc21     	fmul.2d	v1, v1, v1
    29e0: 1e612800     	fadd	d0, d0, d1
    29e4: 5e180421     	mov	d1, v1[1]
    29e8: 1e612800     	fadd	d0, d0, d1
    29ec: 0f20a441     	sshll.2d	v1, v2, #0
    29f0: 4e61d821     	scvtf.2d	v1, v1
    29f4: 4f20a442     	sshll2.2d	v2, v2, #0
    29f8: 4e61d842     	scvtf.2d	v2, v2
    29fc: 6e61dc21     	fmul.2d	v1, v1, v1
    2a00: 1e612800     	fadd	d0, d0, d1
    2a04: 5e180421     	mov	d1, v1[1]
    2a08: 1e612800     	fadd	d0, d0, d1
    2a0c: 0f10a481     	sshll.4s	v1, v4, #0
    2a10: 6e62dc42     	fmul.2d	v2, v2, v2
    2a14: 1e622800     	fadd	d0, d0, d2
    2a18: 5e180442     	mov	d2, v2[1]
    2a1c: 1e622800     	fadd	d0, d0, d2
    2a20: 0f20a422     	sshll.2d	v2, v1, #0
    2a24: 4e61d842     	scvtf.2d	v2, v2
    2a28: 6e62dc42     	fmul.2d	v2, v2, v2
    2a2c: 1e622800     	fadd	d0, d0, d2
    2a30: 5e180442     	mov	d2, v2[1]
    2a34: 1e622800     	fadd	d0, d0, d2
    2a38: 4f20a421     	sshll2.2d	v1, v1, #0
    2a3c: 4e61d821     	scvtf.2d	v1, v1
    2a40: 4f10a482     	sshll2.4s	v2, v4, #0
    2a44: 6e61dc21     	fmul.2d	v1, v1, v1
    2a48: 1e612800     	fadd	d0, d0, d1
    2a4c: 5e180421     	mov	d1, v1[1]
    2a50: 1e612800     	fadd	d0, d0, d1
    2a54: 0f20a441     	sshll.2d	v1, v2, #0
    2a58: 4e61d821     	scvtf.2d	v1, v1
    2a5c: 6e61dc21     	fmul.2d	v1, v1, v1
    2a60: 1e612800     	fadd	d0, d0, d1
    2a64: 5e180421     	mov	d1, v1[1]
    2a68: 1e612800     	fadd	d0, d0, d1
    2a6c: 4f20a441     	sshll2.2d	v1, v2, #0
    2a70: 4e61d821     	scvtf.2d	v1, v1
    2a74: 6e61dc21     	fmul.2d	v1, v1, v1
    2a78: 1e612800     	fadd	d0, d0, d1
    2a7c: 5e180421     	mov	d1, v1[1]
    2a80: 1e612800     	fadd	d0, d0, d1
    2a84: f100816b     	subs	x11, x11, #32
    2a88: 54fff2a1     	b.ne	0x28dc <__ZN102_$LT$core..iter..adapters..map..Map$LT$I$C$F$GT$$u20$as$u20$core..iter..traits..iterator..Iterator$GT$4fold17hd294bc8e31bddc44E+0x2c>
    2a8c: eb09011f     	cmp	x8, x9
    2a90: 54000120     	b.eq	0x2ab4 <__ZN102_$LT$core..iter..adapters..map..Map$LT$I$C$F$GT$$u20$as$u20$core..iter..traits..iterator..Iterator$GT$4fold17hd294bc8e31bddc44E+0x204>
    2a94: cb090108     	sub	x8, x8, x9
    2a98: 8b090409     	add	x9, x0, x9, lsl #1
    2a9c: 78c0252a     	ldrsh	w10, [x9], #2
    2aa0: 1e620141     	scvtf	d1, w10
    2aa4: 1e610821     	fmul	d1, d1, d1
    2aa8: 1e612800     	fadd	d0, d0, d1
    2aac: f1000508     	subs	x8, x8, #1
    2ab0: 54ffff61     	b.ne	0x2a9c <__ZN102_$LT$core..iter..adapters..map..Map$LT$I$C$F$GT$$u20$as$u20$core..iter..traits..iterator..Iterator$GT$4fold17hd294bc8e31bddc44E+0x1ec>
    2ab4: d65f03c0     	ret

0000000000002ab8 <__ZN102_$LT$core..iter..adapters..map..Map$LT$I$C$F$GT$$u20$as$u20$core..iter..traits..iterator..Iterator$GT$4fold17hd2abc4b2919193b7E>:
    2ab8: d10283ff     	sub	sp, sp, #160
    2abc: a9046ffc     	stp	x28, x27, [sp, #64]
    2ac0: a90567fa     	stp	x26, x25, [sp, #80]
    2ac4: a9065ff8     	stp	x24, x23, [sp, #96]
    2ac8: a90757f6     	stp	x22, x21, [sp, #112]
    2acc: a9084ff4     	stp	x20, x19, [sp, #128]
    2ad0: a9097bfd     	stp	x29, x30, [sp, #144]
    2ad4: 910243fd     	add	x29, sp, #144
    2ad8: a9402013     	ldp	x19, x8, [x0]
    2adc: a9405434     	ldp	x20, x21, [x1]
    2ae0: eb08027f     	cmp	x19, x8
    2ae4: 54000860     	b.eq	0x2bf0 <__ZN102_$LT$core..iter..adapters..map..Map$LT$I$C$F$GT$$u20$as$u20$core..iter..traits..iterator..Iterator$GT$4fold17hd2abc4b2919193b7E+0x138>
    2ae8: f9400816     	ldr	x22, [x0, #16]
    2aec: f9400829     	ldr	x9, [x1, #16]
    2af0: cb130108     	sub	x8, x8, x19
    2af4: d345fd17     	lsr	x23, x8, #5
    2af8: 910043f8     	add	x24, sp, #16
    2afc: 8b151128     	add	x8, x9, x21, lsl #4
    2b00: 91002119     	add	x25, x8, #8
    2b04: d2f0001a     	mov	x26, #-9223372036854775808
    2b08: 14000008     	b	0x2b28 <__ZN102_$LT$core..iter..adapters..map..Map$LT$I$C$F$GT$$u20$as$u20$core..iter..traits..iterator..Iterator$GT$4fold17hd2abc4b2919193b7E+0x70>
    2b0c: 9e620360     	scvtf	d0, x27
    2b10: fc1f8320     	stur	d0, [x25, #-8]
    2b14: f801073f     	str	xzr, [x25], #16
    2b18: 910006b5     	add	x21, x21, #1
    2b1c: 91008273     	add	x19, x19, #32
    2b20: f10006f7     	subs	x23, x23, #1
    2b24: 54000660     	b.eq	0x2bf0 <__ZN102_$LT$core..iter..adapters..map..Map$LT$I$C$F$GT$$u20$as$u20$core..iter..traits..iterator..Iterator$GT$4fold17hd2abc4b2919193b7E+0x138>
    2b28: f94002c2     	ldr	x2, [x22]
    2b2c: 910043e0     	add	x0, sp, #16
    2b30: aa1303e1     	mov	x1, x19
    2b34: 94000000     	bl	0x2b34 <__ZN102_$LT$core..iter..adapters..map..Map$LT$I$C$F$GT$$u20$as$u20$core..iter..traits..iterator..Iterator$GT$4fold17hd2abc4b2919193b7E+0x7c>
    2b38: 3940a3e8     	ldrb	w8, [sp, #40]
    2b3c: 34000128     	cbz	w8, 0x2b60 <__ZN102_$LT$core..iter..adapters..map..Map$LT$I$C$F$GT$$u20$as$u20$core..iter..traits..iterator..Iterator$GT$4fold17hd2abc4b2919193b7E+0xa8>
    2b40: 7100051f     	cmp	w8, #1
    2b44: 540000a0     	b.eq	0x2b58 <__ZN102_$LT$core..iter..adapters..map..Map$LT$I$C$F$GT$$u20$as$u20$core..iter..traits..iterator..Iterator$GT$4fold17hd2abc4b2919193b7E+0xa0>
    2b48: f94013e8     	ldr	x8, [sp, #32]
    2b4c: f100051f     	cmp	x8, #1
    2b50: 54000360     	b.eq	0x2bbc <__ZN102_$LT$core..iter..adapters..map..Map$LT$I$C$F$GT$$u20$as$u20$core..iter..traits..iterator..Iterator$GT$4fold17hd2abc4b2919193b7E+0x104>
    2b54: b5000228     	cbnz	x8, 0x2b98 <__ZN102_$LT$core..iter..adapters..map..Map$LT$I$C$F$GT$$u20$as$u20$core..iter..traits..iterator..Iterator$GT$4fold17hd2abc4b2919193b7E+0xe0>
    2b58: d280001b     	mov	x27, #0
    2b5c: 14000009     	b	0x2b80 <__ZN102_$LT$core..iter..adapters..map..Map$LT$I$C$F$GT$$u20$as$u20$core..iter..traits..iterator..Iterator$GT$4fold17hd2abc4b2919193b7E+0xc8>
    2b60: f94013e9     	ldr	x9, [sp, #32]
    2b64: b40000c9     	cbz	x9, 0x2b7c <__ZN102_$LT$core..iter..adapters..map..Map$LT$I$C$F$GT$$u20$as$u20$core..iter..traits..iterator..Iterator$GT$4fold17hd2abc4b2919193b7E+0xc4>
    2b68: f100053f     	cmp	x9, #1
    2b6c: 54000161     	b.ne	0x2b98 <__ZN102_$LT$core..iter..adapters..map..Map$LT$I$C$F$GT$$u20$as$u20$core..iter..traits..iterator..Iterator$GT$4fold17hd2abc4b2919193b7E+0xe0>
    2b70: f9400fe0     	ldr	x0, [sp, #24]
    2b74: f9400009     	ldr	x9, [x0]
    2b78: b7f802e9     	tbnz	x9, #63, 0x2bd4 <__ZN102_$LT$core..iter..adapters..map..Map$LT$I$C$F$GT$$u20$as$u20$core..iter..traits..iterator..Iterator$GT$4fold17hd2abc4b2919193b7E+0x11c>
    2b7c: cb0903fb     	neg	x27, x9
    2b80: a94103e8     	ldp	x8, x0, [sp, #16]
    2b84: b4fffc48     	cbz	x8, 0x2b0c <__ZN102_$LT$core..iter..adapters..map..Map$LT$I$C$F$GT$$u20$as$u20$core..iter..traits..iterator..Iterator$GT$4fold17hd2abc4b2919193b7E+0x54>
    2b88: d37df101     	lsl	x1, x8, #3
    2b8c: 52800102     	mov	w2, #8
    2b90: 94000000     	bl	0x2b90 <__ZN102_$LT$core..iter..adapters..map..Map$LT$I$C$F$GT$$u20$as$u20$core..iter..traits..iterator..Iterator$GT$4fold17hd2abc4b2919193b7E+0xd8>
    2b94: 17ffffde     	b	0x2b0c <__ZN102_$LT$core..iter..adapters..map..Map$LT$I$C$F$GT$$u20$as$u20$core..iter..traits..iterator..Iterator$GT$4fold17hd2abc4b2919193b7E+0x54>
    2b98: a94103e8     	ldp	x8, x0, [sp, #16]
    2b9c: 3cc10300     	ldur	q0, [x24, #16]
    2ba0: 3d800fe0     	str	q0, [sp, #48]
    2ba4: 3dc00fe0     	ldr	q0, [sp, #48]
    2ba8: 3d8003e0     	str	q0, [sp]
    2bac: eb1a011f     	cmp	x8, x26
    2bb0: 54000321     	b.ne	0x2c14 <__ZN102_$LT$core..iter..adapters..map..Map$LT$I$C$F$GT$$u20$as$u20$core..iter..traits..iterator..Iterator$GT$4fold17hd2abc4b2919193b7E+0x15c>
    2bb4: aa0003fb     	mov	x27, x0
    2bb8: 17ffffd5     	b	0x2b0c <__ZN102_$LT$core..iter..adapters..map..Map$LT$I$C$F$GT$$u20$as$u20$core..iter..traits..iterator..Iterator$GT$4fold17hd2abc4b2919193b7E+0x54>
    2bbc: a94103e8     	ldp	x8, x0, [sp, #16]
    2bc0: f940001b     	ldr	x27, [x0]
    2bc4: 3cc10300     	ldur	q0, [x24, #16]
    2bc8: 3d800fe0     	str	q0, [sp, #48]
    2bcc: b6fffddb     	tbz	x27, #63, 0x2b84 <__ZN102_$LT$core..iter..adapters..map..Map$LT$I$C$F$GT$$u20$as$u20$core..iter..traits..iterator..Iterator$GT$4fold17hd2abc4b2919193b7E+0xcc>
    2bd0: 17fffff5     	b	0x2ba4 <__ZN102_$LT$core..iter..adapters..map..Map$LT$I$C$F$GT$$u20$as$u20$core..iter..traits..iterator..Iterator$GT$4fold17hd2abc4b2919193b7E+0xec>
    2bd4: f9400be8     	ldr	x8, [sp, #16]
    2bd8: 3cc10300     	ldur	q0, [x24, #16]
    2bdc: 3d800fe0     	str	q0, [sp, #48]
    2be0: d2f0001b     	mov	x27, #-9223372036854775808
    2be4: eb1b013f     	cmp	x9, x27
    2be8: 54fffce0     	b.eq	0x2b84 <__ZN102_$LT$core..iter..adapters..map..Map$LT$I$C$F$GT$$u20$as$u20$core..iter..traits..iterator..Iterator$GT$4fold17hd2abc4b2919193b7E+0xcc>
    2bec: 17ffffee     	b	0x2ba4 <__ZN102_$LT$core..iter..adapters..map..Map$LT$I$C$F$GT$$u20$as$u20$core..iter..traits..iterator..Iterator$GT$4fold17hd2abc4b2919193b7E+0xec>
    2bf0: f9000295     	str	x21, [x20]
    2bf4: a9497bfd     	ldp	x29, x30, [sp, #144]
    2bf8: a9484ff4     	ldp	x20, x19, [sp, #128]
    2bfc: a94757f6     	ldp	x22, x21, [sp, #112]
    2c00: a9465ff8     	ldp	x24, x23, [sp, #96]
    2c04: a94567fa     	ldp	x26, x25, [sp, #80]
    2c08: a9446ffc     	ldp	x28, x27, [sp, #64]
    2c0c: 910283ff     	add	sp, sp, #160
    2c10: d65f03c0     	ret
    2c14: a90103e8     	stp	x8, x0, [sp, #16]
    2c18: 3dc003e0     	ldr	q0, [sp]
    2c1c: 3d800be0     	str	q0, [sp, #32]
    2c20: 90000000     	adrp	x0, 0x2000 <__ZN102_$LT$core..iter..adapters..map..Map$LT$I$C$F$GT$$u20$as$u20$core..iter..traits..iterator..Iterator$GT$4fold17hd2abc4b2919193b7E+0x168>
    2c24: 91000000     	add	x0, x0, #0
    2c28: 90000003     	adrp	x3, 0x2000 <__ZN102_$LT$core..iter..adapters..map..Map$LT$I$C$F$GT$$u20$as$u20$core..iter..traits..iterator..Iterator$GT$4fold17hd2abc4b2919193b7E+0x170>
    2c2c: 91000063     	add	x3, x3, #0
    2c30: 90000004     	adrp	x4, 0x2000 <__ZN102_$LT$core..iter..adapters..map..Map$LT$I$C$F$GT$$u20$as$u20$core..iter..traits..iterator..Iterator$GT$4fold17hd2abc4b2919193b7E+0x178>
    2c34: 91000084     	add	x4, x4, #0
    2c38: 910043e2     	add	x2, sp, #16
    2c3c: 52800561     	mov	w1, #43
    2c40: 94000000     	bl	0x2c40 <__ZN102_$LT$core..iter..adapters..map..Map$LT$I$C$F$GT$$u20$as$u20$core..iter..traits..iterator..Iterator$GT$4fold17hd2abc4b2919193b7E+0x188>
    2c44: d4200020     	brk	#0x1
    2c48: aa0003f3     	mov	x19, x0
    2c4c: f9400be8     	ldr	x8, [sp, #16]
    2c50: b4000128     	cbz	x8, 0x2c74 <__ZN102_$LT$core..iter..adapters..map..Map$LT$I$C$F$GT$$u20$as$u20$core..iter..traits..iterator..Iterator$GT$4fold17hd2abc4b2919193b7E+0x1bc>
    2c54: f9400fe0     	ldr	x0, [sp, #24]
    2c58: d37df101     	lsl	x1, x8, #3
    2c5c: 52800102     	mov	w2, #8
    2c60: 94000000     	bl	0x2c60 <__ZN102_$LT$core..iter..adapters..map..Map$LT$I$C$F$GT$$u20$as$u20$core..iter..traits..iterator..Iterator$GT$4fold17hd2abc4b2919193b7E+0x1a8>
    2c64: f9000295     	str	x21, [x20]
    2c68: aa1303e0     	mov	x0, x19
    2c6c: 94000000     	bl	0x2c6c <__ZN102_$LT$core..iter..adapters..map..Map$LT$I$C$F$GT$$u20$as$u20$core..iter..traits..iterator..Iterator$GT$4fold17hd2abc4b2919193b7E+0x1b4>
    2c70: aa0003f3     	mov	x19, x0
    2c74: f9000295     	str	x21, [x20]
    2c78: aa1303e0     	mov	x0, x19
    2c7c: 94000000     	bl	0x2c7c <__ZN102_$LT$core..iter..adapters..map..Map$LT$I$C$F$GT$$u20$as$u20$core..iter..traits..iterator..Iterator$GT$4fold17hd2abc4b2919193b7E+0x1c4>

0000000000002c80 <__ZN102_$LT$core..iter..adapters..map..Map$LT$I$C$F$GT$$u20$as$u20$core..iter..traits..iterator..Iterator$GT$4fold17he18dc29c16bc8bd1E>:
    2c80: a9402448     	ldp	x8, x9, [x2]
    2c84: eb01001f     	cmp	x0, x1
    2c88: 540002e0     	b.eq	0x2ce4 <__ZN102_$LT$core..iter..adapters..map..Map$LT$I$C$F$GT$$u20$as$u20$core..iter..traits..iterator..Iterator$GT$4fold17he18dc29c16bc8bd1E+0x64>
    2c8c: f940084a     	ldr	x10, [x2, #16]
    2c90: cb00002c     	sub	x12, x1, x0
    2c94: d342fd8b     	lsr	x11, x12, #2
    2c98: f101019f     	cmp	x12, #64
    2c9c: 540000c3     	b.lo	0x2cb4 <__ZN102_$LT$core..iter..adapters..map..Map$LT$I$C$F$GT$$u20$as$u20$core..iter..traits..iterator..Iterator$GT$4fold17he18dc29c16bc8bd1E+0x34>
    2ca0: d37ef52c     	lsl	x12, x9, #2
    2ca4: 8b0a018e     	add	x14, x12, x10
    2ca8: cb0001cc     	sub	x12, x14, x0
    2cac: f101019f     	cmp	x12, #64
    2cb0: 540001e2     	b.hs	0x2cec <__ZN102_$LT$core..iter..adapters..map..Map$LT$I$C$F$GT$$u20$as$u20$core..iter..traits..iterator..Iterator$GT$4fold17he18dc29c16bc8bd1E+0x6c>
    2cb4: d280000c     	mov	x12, #0
    2cb8: cb0c016b     	sub	x11, x11, x12
    2cbc: 8b0c080c     	add	x12, x0, x12, lsl #2
    2cc0: 5286002d     	mov	w13, #12289
    2cc4: b840458e     	ldr	w14, [x12], #4
    2cc8: 4b0e01af     	sub	w15, w13, w14
    2ccc: 710001df     	cmp	w14, #0
    2cd0: 1a8f03ee     	csel	w14, wzr, w15, eq
    2cd4: b829794e     	str	w14, [x10, x9, lsl #2]
    2cd8: 91000529     	add	x9, x9, #1
    2cdc: f100056b     	subs	x11, x11, #1
    2ce0: 54ffff21     	b.ne	0x2cc4 <__ZN102_$LT$core..iter..adapters..map..Map$LT$I$C$F$GT$$u20$as$u20$core..iter..traits..iterator..Iterator$GT$4fold17he18dc29c16bc8bd1E+0x44>
    2ce4: f9000109     	str	x9, [x8]
    2ce8: d65f03c0     	ret
    2cec: 927ce56c     	and	x12, x11, #0x3ffffffffffffff0
    2cf0: 8b0c0129     	add	x9, x9, x12
    2cf4: 9100800d     	add	x13, x0, #32
    2cf8: 910081ce     	add	x14, x14, #32
    2cfc: 5286002f     	mov	w15, #12289
    2d00: 4e040de0     	dup.4s	v0, w15
    2d04: aa0c03ef     	mov	x15, x12
    2d08: ad7f09a1     	ldp	q1, q2, [x13, #-32]
    2d0c: acc211a3     	ldp	q3, q4, [x13], #64
    2d10: 4ea09825     	cmeq.4s	v5, v1, #0
    2d14: 4ea09846     	cmeq.4s	v6, v2, #0
    2d18: 4ea09867     	cmeq.4s	v7, v3, #0
    2d1c: 4ea09890     	cmeq.4s	v16, v4, #0
    2d20: 6ea18401     	sub.4s	v1, v0, v1
    2d24: 6ea28402     	sub.4s	v2, v0, v2
    2d28: 6ea38403     	sub.4s	v3, v0, v3
    2d2c: 6ea48404     	sub.4s	v4, v0, v4
    2d30: 4e651c21     	bic.16b	v1, v1, v5
    2d34: 4e661c42     	bic.16b	v2, v2, v6
    2d38: 4e671c63     	bic.16b	v3, v3, v7
    2d3c: ad3f09c1     	stp	q1, q2, [x14, #-32]
    2d40: 4e701c81     	bic.16b	v1, v4, v16
    2d44: ac8205c3     	stp	q3, q1, [x14], #64
    2d48: f10041ef     	subs	x15, x15, #16
    2d4c: 54fffde1     	b.ne	0x2d08 <__ZN102_$LT$core..iter..adapters..map..Map$LT$I$C$F$GT$$u20$as$u20$core..iter..traits..iterator..Iterator$GT$4fold17he18dc29c16bc8bd1E+0x88>
    2d50: eb0c017f     	cmp	x11, x12
    2d54: 54fffc80     	b.eq	0x2ce4 <__ZN102_$LT$core..iter..adapters..map..Map$LT$I$C$F$GT$$u20$as$u20$core..iter..traits..iterator..Iterator$GT$4fold17he18dc29c16bc8bd1E+0x64>
    2d58: 17ffffd8     	b	0x2cb8 <__ZN102_$LT$core..iter..adapters..map..Map$LT$I$C$F$GT$$u20$as$u20$core..iter..traits..iterator..Iterator$GT$4fold17he18dc29c16bc8bd1E+0x38>

0000000000002d5c <__ZN102_$LT$core..iter..adapters..map..Map$LT$I$C$F$GT$$u20$as$u20$core..iter..traits..iterator..Iterator$GT$4fold17he800bd92cbade7a3E>:
    2d5c: d100c3ff     	sub	sp, sp, #48
    2d60: a9014ff4     	stp	x20, x19, [sp, #16]
    2d64: a9027bfd     	stp	x29, x30, [sp, #32]
    2d68: 910083fd     	add	x29, sp, #32
    2d6c: a9405053     	ldp	x19, x20, [x2]
    2d70: eb01001f     	cmp	x0, x1
    2d74: 540005c0     	b.eq	0x2e2c <__ZN102_$LT$core..iter..adapters..map..Map$LT$I$C$F$GT$$u20$as$u20$core..iter..traits..iterator..Iterator$GT$4fold17he800bd92cbade7a3E+0xd0>
    2d78: f9400848     	ldr	x8, [x2, #16]
    2d7c: cb000029     	sub	x9, x1, x0
    2d80: d345fd29     	lsr	x9, x9, #5
    2d84: 9100400a     	add	x10, x0, #16
    2d88: 14000007     	b	0x2da4 <__ZN102_$LT$core..iter..adapters..map..Map$LT$I$C$F$GT$$u20$as$u20$core..iter..traits..iterator..Iterator$GT$4fold17he800bd92cbade7a3E+0x48>
    2d8c: 5280000b     	mov	w11, #0
    2d90: 7834790b     	strh	w11, [x8, x20, lsl #1]
    2d94: 91000694     	add	x20, x20, #1
    2d98: 9100814a     	add	x10, x10, #32
    2d9c: f1000529     	subs	x9, x9, #1
    2da0: 54000460     	b.eq	0x2e2c <__ZN102_$LT$core..iter..adapters..map..Map$LT$I$C$F$GT$$u20$as$u20$core..iter..traits..iterator..Iterator$GT$4fold17he800bd92cbade7a3E+0xd0>
    2da4: 3940214b     	ldrb	w11, [x10, #8]
    2da8: 340001ab     	cbz	w11, 0x2ddc <__ZN102_$LT$core..iter..adapters..map..Map$LT$I$C$F$GT$$u20$as$u20$core..iter..traits..iterator..Iterator$GT$4fold17he800bd92cbade7a3E+0x80>
    2dac: 7100057f     	cmp	w11, #1
    2db0: 54fffee0     	b.eq	0x2d8c <__ZN102_$LT$core..iter..adapters..map..Map$LT$I$C$F$GT$$u20$as$u20$core..iter..traits..iterator..Iterator$GT$4fold17he800bd92cbade7a3E+0x30>
    2db4: f940014b     	ldr	x11, [x10]
    2db8: b4fffecb     	cbz	x11, 0x2d90 <__ZN102_$LT$core..iter..adapters..map..Map$LT$I$C$F$GT$$u20$as$u20$core..iter..traits..iterator..Iterator$GT$4fold17he800bd92cbade7a3E+0x34>
    2dbc: f100057f     	cmp	x11, #1
    2dc0: 54000221     	b.ne	0x2e04 <__ZN102_$LT$core..iter..adapters..map..Map$LT$I$C$F$GT$$u20$as$u20$core..iter..traits..iterator..Iterator$GT$4fold17he800bd92cbade7a3E+0xa8>
    2dc4: f85f814b     	ldur	x11, [x10, #-8]
    2dc8: f940016b     	ldr	x11, [x11]
    2dcc: b7f801cb     	tbnz	x11, #63, 0x2e04 <__ZN102_$LT$core..iter..adapters..map..Map$LT$I$C$F$GT$$u20$as$u20$core..iter..traits..iterator..Iterator$GT$4fold17he800bd92cbade7a3E+0xa8>
    2dd0: eb2ba17f     	cmp	x11, w11, sxth
    2dd4: 54fffde0     	b.eq	0x2d90 <__ZN102_$LT$core..iter..adapters..map..Map$LT$I$C$F$GT$$u20$as$u20$core..iter..traits..iterator..Iterator$GT$4fold17he800bd92cbade7a3E+0x34>
    2dd8: 1400000b     	b	0x2e04 <__ZN102_$LT$core..iter..adapters..map..Map$LT$I$C$F$GT$$u20$as$u20$core..iter..traits..iterator..Iterator$GT$4fold17he800bd92cbade7a3E+0xa8>
    2ddc: f940014b     	ldr	x11, [x10]
    2de0: b40000cb     	cbz	x11, 0x2df8 <__ZN102_$LT$core..iter..adapters..map..Map$LT$I$C$F$GT$$u20$as$u20$core..iter..traits..iterator..Iterator$GT$4fold17he800bd92cbade7a3E+0x9c>
    2de4: f100057f     	cmp	x11, #1
    2de8: 540000e1     	b.ne	0x2e04 <__ZN102_$LT$core..iter..adapters..map..Map$LT$I$C$F$GT$$u20$as$u20$core..iter..traits..iterator..Iterator$GT$4fold17he800bd92cbade7a3E+0xa8>
    2dec: f85f814b     	ldur	x11, [x10, #-8]
    2df0: f940016b     	ldr	x11, [x11]
    2df4: b7f8008b     	tbnz	x11, #63, 0x2e04 <__ZN102_$LT$core..iter..adapters..map..Map$LT$I$C$F$GT$$u20$as$u20$core..iter..traits..iterator..Iterator$GT$4fold17he800bd92cbade7a3E+0xa8>
    2df8: cb0b03eb     	neg	x11, x11
    2dfc: eb2ba17f     	cmp	x11, w11, sxth
    2e00: 54fffc80     	b.eq	0x2d90 <__ZN102_$LT$core..iter..adapters..map..Map$LT$I$C$F$GT$$u20$as$u20$core..iter..traits..iterator..Iterator$GT$4fold17he800bd92cbade7a3E+0x34>
    2e04: 90000000     	adrp	x0, 0x2000 <__ZN102_$LT$core..iter..adapters..map..Map$LT$I$C$F$GT$$u20$as$u20$core..iter..traits..iterator..Iterator$GT$4fold17he800bd92cbade7a3E+0xa8>
    2e08: 91000000     	add	x0, x0, #0
    2e0c: 90000003     	adrp	x3, 0x2000 <__ZN102_$LT$core..iter..adapters..map..Map$LT$I$C$F$GT$$u20$as$u20$core..iter..traits..iterator..Iterator$GT$4fold17he800bd92cbade7a3E+0xb0>
    2e10: 91000063     	add	x3, x3, #0
    2e14: 90000004     	adrp	x4, 0x2000 <__ZN102_$LT$core..iter..adapters..map..Map$LT$I$C$F$GT$$u20$as$u20$core..iter..traits..iterator..Iterator$GT$4fold17he800bd92cbade7a3E+0xb8>
    2e18: 91000084     	add	x4, x4, #0
    2e1c: 91003fe2     	add	x2, sp, #15
    2e20: 52800561     	mov	w1, #43
    2e24: 94000000     	bl	0x2e24 <__ZN102_$LT$core..iter..adapters..map..Map$LT$I$C$F$GT$$u20$as$u20$core..iter..traits..iterator..Iterator$GT$4fold17he800bd92cbade7a3E+0xc8>
    2e28: d4200020     	brk	#0x1
    2e2c: f9000274     	str	x20, [x19]
    2e30: a9427bfd     	ldp	x29, x30, [sp, #32]
    2e34: a9414ff4     	ldp	x20, x19, [sp, #16]
    2e38: 9100c3ff     	add	sp, sp, #48
    2e3c: d65f03c0     	ret
    2e40: f9000274     	str	x20, [x19]
    2e44: 94000000     	bl	0x2e44 <__ZN102_$LT$core..iter..adapters..map..Map$LT$I$C$F$GT$$u20$as$u20$core..iter..traits..iterator..Iterator$GT$4fold17he800bd92cbade7a3E+0xe8>

0000000000002e48 <__ZN102_$LT$core..iter..adapters..map..Map$LT$I$C$F$GT$$u20$as$u20$core..iter..traits..iterator..Iterator$GT$4fold17he840e4568699e446E>:
    2e48: a9402448     	ldp	x8, x9, [x2]
    2e4c: eb01001f     	cmp	x0, x1
    2e50: 54000460     	b.eq	0x2edc <__ZN102_$LT$core..iter..adapters..map..Map$LT$I$C$F$GT$$u20$as$u20$core..iter..traits..iterator..Iterator$GT$4fold17he840e4568699e446E+0x94>
    2e54: f940084a     	ldr	x10, [x2, #16]
    2e58: cb00002c     	sub	x12, x1, x0
    2e5c: d344fd8b     	lsr	x11, x12, #4
    2e60: f104819f     	cmp	x12, #288
    2e64: 540002a3     	b.lo	0x2eb8 <__ZN102_$LT$core..iter..adapters..map..Map$LT$I$C$F$GT$$u20$as$u20$core..iter..traits..iterator..Iterator$GT$4fold17he840e4568699e446E+0x70>
    2e68: d100056d     	sub	x13, x11, #1
    2e6c: d37ced2e     	lsl	x14, x9, #4
    2e70: d37cedaf     	lsl	x15, x13, #4
    2e74: 8b0e0150     	add	x16, x10, x14
    2e78: 8b0f0211     	add	x17, x16, x15
    2e7c: 91002201     	add	x1, x16, #8
    2e80: 8b0f002f     	add	x15, x1, x15
    2e84: eb10023f     	cmp	x17, x16
    2e88: fa4121e0     	ccmp	x15, x1, #0, hs
    2e8c: d37cfdad     	lsr	x13, x13, #60
    2e90: fa4029a0     	ccmp	x13, #0, #0, hs
    2e94: 54000121     	b.ne	0x2eb8 <__ZN102_$LT$core..iter..adapters..map..Map$LT$I$C$F$GT$$u20$as$u20$core..iter..traits..iterator..Iterator$GT$4fold17he840e4568699e446E+0x70>
    2e98: 8b09114d     	add	x13, x10, x9, lsl #4
    2e9c: 927ced8c     	and	x12, x12, #0xfffffffffffffff0
    2ea0: 8b0c000f     	add	x15, x0, x12
    2ea4: eb0f01bf     	cmp	x13, x15
    2ea8: 540001e2     	b.hs	0x2ee4 <__ZN102_$LT$core..iter..adapters..map..Map$LT$I$C$F$GT$$u20$as$u20$core..iter..traits..iterator..Iterator$GT$4fold17he840e4568699e446E+0x9c>
    2eac: 8b0c01ac     	add	x12, x13, x12
    2eb0: eb00019f     	cmp	x12, x0
    2eb4: 54000189     	b.ls	0x2ee4 <__ZN102_$LT$core..iter..adapters..map..Map$LT$I$C$F$GT$$u20$as$u20$core..iter..traits..iterator..Iterator$GT$4fold17he840e4568699e446E+0x9c>
    2eb8: d280000c     	mov	x12, #0
    2ebc: cb0c016b     	sub	x11, x11, x12
    2ec0: 8b0c100c     	add	x12, x0, x12, lsl #4
    2ec4: 3cc10580     	ldr	q0, [x12], #16
    2ec8: 6ee0f800     	fneg.2d	v0, v0
    2ecc: 3ca97940     	str	q0, [x10, x9, lsl #4]
    2ed0: 91000529     	add	x9, x9, #1
    2ed4: f100056b     	subs	x11, x11, #1
    2ed8: 54ffff61     	b.ne	0x2ec4 <__ZN102_$LT$core..iter..adapters..map..Map$LT$I$C$F$GT$$u20$as$u20$core..iter..traits..iterator..Iterator$GT$4fold17he840e4568699e446E+0x7c>
    2edc: f9000109     	str	x9, [x8]
    2ee0: d65f03c0     	ret
    2ee4: 927ee56c     	and	x12, x11, #0xffffffffffffffc
    2ee8: 8b0c0129     	add	x9, x9, x12
    2eec: 9100800d     	add	x13, x0, #32
    2ef0: 8b0a01ce     	add	x14, x14, x10
    2ef4: 910081ce     	add	x14, x14, #32
    2ef8: aa0c03ef     	mov	x15, x12
    2efc: ad7f05a0     	ldp	q0, q1, [x13, #-32]
    2f00: acc20da2     	ldp	q2, q3, [x13], #64
    2f04: 6ee0f821     	fneg.2d	v1, v1
    2f08: 6ee0f800     	fneg.2d	v0, v0
    2f0c: ad3f05c0     	stp	q0, q1, [x14, #-32]
    2f10: 6ee0f860     	fneg.2d	v0, v3
    2f14: 6ee0f841     	fneg.2d	v1, v2
    2f18: ac8201c1     	stp	q1, q0, [x14], #64
    2f1c: f10011ef     	subs	x15, x15, #4
    2f20: 54fffee1     	b.ne	0x2efc <__ZN102_$LT$core..iter..adapters..map..Map$LT$I$C$F$GT$$u20$as$u20$core..iter..traits..iterator..Iterator$GT$4fold17he840e4568699e446E+0xb4>
    2f24: eb0c017f     	cmp	x11, x12
    2f28: 54fffda0     	b.eq	0x2edc <__ZN102_$LT$core..iter..adapters..map..Map$LT$I$C$F$GT$$u20$as$u20$core..iter..traits..iterator..Iterator$GT$4fold17he840e4568699e446E+0x94>
    2f2c: 17ffffe4     	b	0x2ebc <__ZN102_$LT$core..iter..adapters..map..Map$LT$I$C$F$GT$$u20$as$u20$core..iter..traits..iterator..Iterator$GT$4fold17he840e4568699e446E+0x74>

0000000000002f30 <__ZN102_$LT$core..iter..adapters..map..Map$LT$I$C$F$GT$$u20$as$u20$core..iter..traits..iterator..Iterator$GT$4fold17hf9282d3762629d20E>:
    2f30: a9402448     	ldp	x8, x9, [x2]
    2f34: eb01001f     	cmp	x0, x1
    2f38: 540002c0     	b.eq	0x2f90 <__ZN102_$LT$core..iter..adapters..map..Map$LT$I$C$F$GT$$u20$as$u20$core..iter..traits..iterator..Iterator$GT$4fold17hf9282d3762629d20E+0x60>
    2f3c: f940084a     	ldr	x10, [x2, #16]
    2f40: cb00002b     	sub	x11, x1, x0
    2f44: d345fd6b     	lsr	x11, x11, #5
    2f48: 9100400c     	add	x12, x0, #16
    2f4c: 528000ed     	mov	w13, #7
    2f50: 14000006     	b	0x2f68 <__ZN102_$LT$core..iter..adapters..map..Map$LT$I$C$F$GT$$u20$as$u20$core..iter..traits..iterator..Iterator$GT$4fold17hf9282d3762629d20E+0x38>
    2f54: f829794e     	str	x14, [x10, x9, lsl #3]
    2f58: 91000529     	add	x9, x9, #1
    2f5c: 9100818c     	add	x12, x12, #32
    2f60: f100056b     	subs	x11, x11, #1
    2f64: 54000160     	b.eq	0x2f90 <__ZN102_$LT$core..iter..adapters..map..Map$LT$I$C$F$GT$$u20$as$u20$core..iter..traits..iterator..Iterator$GT$4fold17hf9282d3762629d20E+0x60>
    2f68: f940018e     	ldr	x14, [x12]
    2f6c: b4ffff4e     	cbz	x14, 0x2f54 <__ZN102_$LT$core..iter..adapters..map..Map$LT$I$C$F$GT$$u20$as$u20$core..iter..traits..iterator..Iterator$GT$4fold17hf9282d3762629d20E+0x24>
    2f70: f85f818f     	ldur	x15, [x12, #-8]
    2f74: 8b0e0def     	add	x15, x15, x14, lsl #3
    2f78: f85f81ef     	ldur	x15, [x15, #-8]
    2f7c: dac011ef     	clz	x15, x15
    2f80: aa0e19ae     	orr	x14, x13, x14, lsl #6
    2f84: cb0f01ce     	sub	x14, x14, x15
    2f88: 927df1ce     	and	x14, x14, #0xfffffffffffffff8
    2f8c: 17fffff2     	b	0x2f54 <__ZN102_$LT$core..iter..adapters..map..Map$LT$I$C$F$GT$$u20$as$u20$core..iter..traits..iterator..Iterator$GT$4fold17hf9282d3762629d20E+0x24>
    2f90: f9000109     	str	x9, [x8]
    2f94: d65f03c0     	ret

0000000000002f98 <__ZN102_$LT$core..iter..adapters..map..Map$LT$I$C$F$GT$$u20$as$u20$core..iter..traits..iterator..Iterator$GT$4fold17hfcc7fcdb6797863bE>:
    2f98: a9be4ff4     	stp	x20, x19, [sp, #-32]!
    2f9c: a9017bfd     	stp	x29, x30, [sp, #16]
    2fa0: 910043fd     	add	x29, sp, #16
    2fa4: f9400408     	ldr	x8, [x0, #8]
    2fa8: a9405033     	ldp	x19, x20, [x1]
    2fac: b4000268     	cbz	x8, 0x2ff8 <__ZN102_$LT$core..iter..adapters..map..Map$LT$I$C$F$GT$$u20$as$u20$core..iter..traits..iterator..Iterator$GT$4fold17hfcc7fcdb6797863bE+0x60>
    2fb0: f9400809     	ldr	x9, [x0, #16]
    2fb4: b40002a9     	cbz	x9, 0x3008 <__ZN102_$LT$core..iter..adapters..map..Map$LT$I$C$F$GT$$u20$as$u20$core..iter..traits..iterator..Iterator$GT$4fold17hfcc7fcdb6797863bE+0x70>
    2fb8: f940082a     	ldr	x10, [x1, #16]
    2fbc: f940000b     	ldr	x11, [x0]
    2fc0: 14000006     	b	0x2fd8 <__ZN102_$LT$core..iter..adapters..map..Map$LT$I$C$F$GT$$u20$as$u20$core..iter..traits..iterator..Iterator$GT$4fold17hfcc7fcdb6797863bE+0x40>
    2fc4: f834794d     	str	x13, [x10, x20, lsl #3]
    2fc8: 91000694     	add	x20, x20, #1
    2fcc: 8b0c096b     	add	x11, x11, x12, lsl #2
    2fd0: cb0c0108     	sub	x8, x8, x12
    2fd4: b4000128     	cbz	x8, 0x2ff8 <__ZN102_$LT$core..iter..adapters..map..Map$LT$I$C$F$GT$$u20$as$u20$core..iter..traits..iterator..Iterator$GT$4fold17hfcc7fcdb6797863bE+0x60>
    2fd8: eb09011f     	cmp	x8, x9
    2fdc: 9a89310c     	csel	x12, x8, x9, lo
    2fe0: b940016d     	ldr	w13, [x11]
    2fe4: f100059f     	cmp	x12, #1
    2fe8: 54fffee0     	b.eq	0x2fc4 <__ZN102_$LT$core..iter..adapters..map..Map$LT$I$C$F$GT$$u20$as$u20$core..iter..traits..iterator..Iterator$GT$4fold17hfcc7fcdb6797863bE+0x2c>
    2fec: b940056e     	ldr	w14, [x11, #4]
    2ff0: aa0e81ad     	orr	x13, x13, x14, lsl #32
    2ff4: 17fffff4     	b	0x2fc4 <__ZN102_$LT$core..iter..adapters..map..Map$LT$I$C$F$GT$$u20$as$u20$core..iter..traits..iterator..Iterator$GT$4fold17hfcc7fcdb6797863bE+0x2c>
    2ff8: f9000274     	str	x20, [x19]
    2ffc: a9417bfd     	ldp	x29, x30, [sp, #16]
    3000: a8c24ff4     	ldp	x20, x19, [sp], #32
    3004: d65f03c0     	ret
    3008: 90000002     	adrp	x2, 0x3000 <__ZN102_$LT$core..iter..adapters..map..Map$LT$I$C$F$GT$$u20$as$u20$core..iter..traits..iterator..Iterator$GT$4fold17hfcc7fcdb6797863bE+0x70>
    300c: 91000042     	add	x2, x2, #0
    3010: d2800000     	mov	x0, #0
    3014: d2800001     	mov	x1, #0
    3018: 94000000     	bl	0x3018 <__ZN102_$LT$core..iter..adapters..map..Map$LT$I$C$F$GT$$u20$as$u20$core..iter..traits..iterator..Iterator$GT$4fold17hfcc7fcdb6797863bE+0x80>
    301c: d4200020     	brk	#0x1
    3020: f9000274     	str	x20, [x19]
    3024: 94000000     	bl	0x3024 <__ZN102_$LT$core..iter..adapters..map..Map$LT$I$C$F$GT$$u20$as$u20$core..iter..traits..iterator..Iterator$GT$4fold17hfcc7fcdb6797863bE+0x8c>

0000000000003028 <__ZN10num_bigint6bigint5shift91_$LT$impl$u20$core..ops..bit..Shr$LT$i64$GT$$u20$for$u20$$RF$num_bigint..bigint..BigInt$GT$3shr17h2203c1fb99d428b3E>:
    3028: d10203ff     	sub	sp, sp, #128
    302c: a90557f6     	stp	x22, x21, [sp, #80]
    3030: a9064ff4     	stp	x20, x19, [sp, #96]
    3034: a9077bfd     	stp	x29, x30, [sp, #112]
    3038: 9101c3fd     	add	x29, sp, #112
    303c: aa0003f3     	mov	x19, x0
    3040: 39406034     	ldrb	w20, [x1, #24]
    3044: 340001f4     	cbz	w20, 0x3080 <__ZN10num_bigint6bigint5shift91_$LT$impl$u20$core..ops..bit..Shr$LT$i64$GT$$u20$for$u20$$RF$num_bigint..bigint..BigInt$GT$3shr17h2203c1fb99d428b3E+0x58>
    3048: 52800015     	mov	w21, #0
    304c: b7f80302     	tbnz	x2, #63, 0x30ac <__ZN10num_bigint6bigint5shift91_$LT$impl$u20$core..ops..bit..Shr$LT$i64$GT$$u20$for$u20$$RF$num_bigint..bigint..BigInt$GT$3shr17h2203c1fb99d428b3E+0x84>
    3050: f9400828     	ldr	x8, [x1, #16]
    3054: b4000428     	cbz	x8, 0x30d8 <__ZN10num_bigint6bigint5shift91_$LT$impl$u20$core..ops..bit..Shr$LT$i64$GT$$u20$for$u20$$RF$num_bigint..bigint..BigInt$GT$3shr17h2203c1fb99d428b3E+0xb0>
    3058: d346fc49     	lsr	x9, x2, #6
    305c: d2f00008     	mov	x8, #-9223372036854775808
    3060: a90207e8     	stp	x8, x1, [sp, #32]
    3064: 910023e8     	add	x8, sp, #8
    3068: 910083e0     	add	x0, sp, #32
    306c: 12001442     	and	w2, w2, #0x3f
    3070: aa0903e1     	mov	x1, x9
    3074: 94000000     	bl	0x3074 <__ZN10num_bigint6bigint5shift91_$LT$impl$u20$core..ops..bit..Shr$LT$i64$GT$$u20$for$u20$$RF$num_bigint..bigint..BigInt$GT$3shr17h2203c1fb99d428b3E+0x4c>
    3078: 35000395     	cbnz	w21, 0x30e8 <__ZN10num_bigint6bigint5shift91_$LT$impl$u20$core..ops..bit..Shr$LT$i64$GT$$u20$for$u20$$RF$num_bigint..bigint..BigInt$GT$3shr17h2203c1fb99d428b3E+0xc0>
    307c: 14000039     	b	0x3160 <__ZN10num_bigint6bigint5shift91_$LT$impl$u20$core..ops..bit..Shr$LT$i64$GT$$u20$for$u20$$RF$num_bigint..bigint..BigInt$GT$3shr17h2203c1fb99d428b3E+0x138>
    3080: aa0203f5     	mov	x21, x2
    3084: aa0103f6     	mov	x22, x1
    3088: aa0103e0     	mov	x0, x1
    308c: 94000000     	bl	0x308c <__ZN10num_bigint6bigint5shift91_$LT$impl$u20$core..ops..bit..Shr$LT$i64$GT$$u20$for$u20$$RF$num_bigint..bigint..BigInt$GT$3shr17h2203c1fb99d428b3E+0x64>
    3090: b4000ba0     	cbz	x0, 0x3204 <__ZN10num_bigint6bigint5shift91_$LT$impl$u20$core..ops..bit..Shr$LT$i64$GT$$u20$for$u20$$RF$num_bigint..bigint..BigInt$GT$3shr17h2203c1fb99d428b3E+0x1dc>
    3094: aa1503e2     	mov	x2, x21
    3098: f10002bf     	cmp	x21, #0
    309c: fa55c022     	ccmp	x1, x21, #2, gt
    30a0: 1a9f27f5     	cset	w21, lo
    30a4: aa1603e1     	mov	x1, x22
    30a8: b6fffd42     	tbz	x2, #63, 0x3050 <__ZN10num_bigint6bigint5shift91_$LT$impl$u20$core..ops..bit..Shr$LT$i64$GT$$u20$for$u20$$RF$num_bigint..bigint..BigInt$GT$3shr17h2203c1fb99d428b3E+0x28>
    30ac: 90000008     	adrp	x8, 0x3000 <__ZN10num_bigint6bigint5shift91_$LT$impl$u20$core..ops..bit..Shr$LT$i64$GT$$u20$for$u20$$RF$num_bigint..bigint..BigInt$GT$3shr17h2203c1fb99d428b3E+0x84>
    30b0: 91000108     	add	x8, x8, #0
    30b4: 52800029     	mov	w9, #1
    30b8: a90227e8     	stp	x8, x9, [sp, #32]
    30bc: 52800108     	mov	w8, #8
    30c0: a903ffff     	stp	xzr, xzr, [sp, #56]
    30c4: f9001be8     	str	x8, [sp, #48]
    30c8: 90000001     	adrp	x1, 0x3000 <__ZN10num_bigint6bigint5shift91_$LT$impl$u20$core..ops..bit..Shr$LT$i64$GT$$u20$for$u20$$RF$num_bigint..bigint..BigInt$GT$3shr17h2203c1fb99d428b3E+0xa0>
    30cc: 91000021     	add	x1, x1, #0
    30d0: 910083e0     	add	x0, sp, #32
    30d4: 94000000     	bl	0x30d4 <__ZN10num_bigint6bigint5shift91_$LT$impl$u20$core..ops..bit..Shr$LT$i64$GT$$u20$for$u20$$RF$num_bigint..bigint..BigInt$GT$3shr17h2203c1fb99d428b3E+0xac>
    30d8: 52800108     	mov	w8, #8
    30dc: a900a3ff     	stp	xzr, x8, [sp, #8]
    30e0: f9000fff     	str	xzr, [sp, #24]
    30e4: 340003f5     	cbz	w21, 0x3160 <__ZN10num_bigint6bigint5shift91_$LT$impl$u20$core..ops..bit..Shr$LT$i64$GT$$u20$for$u20$$RF$num_bigint..bigint..BigInt$GT$3shr17h2203c1fb99d428b3E+0x138>
    30e8: f9400fe8     	ldr	x8, [sp, #24]
    30ec: b40000e8     	cbz	x8, 0x3108 <__ZN10num_bigint6bigint5shift91_$LT$impl$u20$core..ops..bit..Shr$LT$i64$GT$$u20$for$u20$$RF$num_bigint..bigint..BigInt$GT$3shr17h2203c1fb99d428b3E+0xe0>
    30f0: f9400be9     	ldr	x9, [sp, #16]
    30f4: f940012a     	ldr	x10, [x9]
    30f8: b100054a     	adds	x10, x10, #1
    30fc: f900012a     	str	x10, [x9]
    3100: 540001e2     	b.hs	0x313c <__ZN10num_bigint6bigint5shift91_$LT$impl$u20$core..ops..bit..Shr$LT$i64$GT$$u20$for$u20$$RF$num_bigint..bigint..BigInt$GT$3shr17h2203c1fb99d428b3E+0x114>
    3104: 14000017     	b	0x3160 <__ZN10num_bigint6bigint5shift91_$LT$impl$u20$core..ops..bit..Shr$LT$i64$GT$$u20$for$u20$$RF$num_bigint..bigint..BigInt$GT$3shr17h2203c1fb99d428b3E+0x138>
    3108: f94007e8     	ldr	x8, [sp, #8]
    310c: b5000068     	cbnz	x8, 0x3118 <__ZN10num_bigint6bigint5shift91_$LT$impl$u20$core..ops..bit..Shr$LT$i64$GT$$u20$for$u20$$RF$num_bigint..bigint..BigInt$GT$3shr17h2203c1fb99d428b3E+0xf0>
    3110: 910023e0     	add	x0, sp, #8
    3114: 94000000     	bl	0x3114 <__ZN10num_bigint6bigint5shift91_$LT$impl$u20$core..ops..bit..Shr$LT$i64$GT$$u20$for$u20$$RF$num_bigint..bigint..BigInt$GT$3shr17h2203c1fb99d428b3E+0xec>
    3118: f9400be8     	ldr	x8, [sp, #16]
    311c: f900011f     	str	xzr, [x8]
    3120: 52800028     	mov	w8, #1
    3124: f9000fe8     	str	x8, [sp, #24]
    3128: f9400be9     	ldr	x9, [sp, #16]
    312c: f940012a     	ldr	x10, [x9]
    3130: b100054a     	adds	x10, x10, #1
    3134: f900012a     	str	x10, [x9]
    3138: 54000143     	b.lo	0x3160 <__ZN10num_bigint6bigint5shift91_$LT$impl$u20$core..ops..bit..Shr$LT$i64$GT$$u20$for$u20$$RF$num_bigint..bigint..BigInt$GT$3shr17h2203c1fb99d428b3E+0x138>
    313c: d37df108     	lsl	x8, x8, #3
    3140: d1002108     	sub	x8, x8, #8
    3144: 91002129     	add	x9, x9, #8
    3148: b40002c8     	cbz	x8, 0x31a0 <__ZN10num_bigint6bigint5shift91_$LT$impl$u20$core..ops..bit..Shr$LT$i64$GT$$u20$for$u20$$RF$num_bigint..bigint..BigInt$GT$3shr17h2203c1fb99d428b3E+0x178>
    314c: f940012a     	ldr	x10, [x9]
    3150: d1002108     	sub	x8, x8, #8
    3154: b100054a     	adds	x10, x10, #1
    3158: f800852a     	str	x10, [x9], #8
    315c: 54ffff62     	b.hs	0x3148 <__ZN10num_bigint6bigint5shift91_$LT$impl$u20$core..ops..bit..Shr$LT$i64$GT$$u20$for$u20$$RF$num_bigint..bigint..BigInt$GT$3shr17h2203c1fb99d428b3E+0x120>
    3160: a94083e8     	ldp	x8, x0, [sp, #8]
    3164: 7100069f     	cmp	w20, #1
    3168: 54000381     	b.ne	0x31d8 <__ZN10num_bigint6bigint5shift91_$LT$impl$u20$core..ops..bit..Shr$LT$i64$GT$$u20$for$u20$$RF$num_bigint..bigint..BigInt$GT$3shr17h2203c1fb99d428b3E+0x1b0>
    316c: f100111f     	cmp	x8, #4
    3170: 54000082     	b.hs	0x3180 <__ZN10num_bigint6bigint5shift91_$LT$impl$u20$core..ops..bit..Shr$LT$i64$GT$$u20$for$u20$$RF$num_bigint..bigint..BigInt$GT$3shr17h2203c1fb99d428b3E+0x158>
    3174: d2800009     	mov	x9, #0
    3178: 5280002a     	mov	w10, #1
    317c: 1400001a     	b	0x31e4 <__ZN10num_bigint6bigint5shift91_$LT$impl$u20$core..ops..bit..Shr$LT$i64$GT$$u20$for$u20$$RF$num_bigint..bigint..BigInt$GT$3shr17h2203c1fb99d428b3E+0x1bc>
    3180: d37df101     	lsl	x1, x8, #3
    3184: 52800102     	mov	w2, #8
    3188: 94000000     	bl	0x3188 <__ZN10num_bigint6bigint5shift91_$LT$impl$u20$core..ops..bit..Shr$LT$i64$GT$$u20$for$u20$$RF$num_bigint..bigint..BigInt$GT$3shr17h2203c1fb99d428b3E+0x160>
    318c: d2800009     	mov	x9, #0
    3190: d2800008     	mov	x8, #0
    3194: 5280002a     	mov	w10, #1
    3198: 52800100     	mov	w0, #8
    319c: 14000012     	b	0x31e4 <__ZN10num_bigint6bigint5shift91_$LT$impl$u20$core..ops..bit..Shr$LT$i64$GT$$u20$for$u20$$RF$num_bigint..bigint..BigInt$GT$3shr17h2203c1fb99d428b3E+0x1bc>
    31a0: f9400ff5     	ldr	x21, [sp, #24]
    31a4: f94007e8     	ldr	x8, [sp, #8]
    31a8: eb0802bf     	cmp	x21, x8
    31ac: 54000061     	b.ne	0x31b8 <__ZN10num_bigint6bigint5shift91_$LT$impl$u20$core..ops..bit..Shr$LT$i64$GT$$u20$for$u20$$RF$num_bigint..bigint..BigInt$GT$3shr17h2203c1fb99d428b3E+0x190>
    31b0: 910023e0     	add	x0, sp, #8
    31b4: 94000000     	bl	0x31b4 <__ZN10num_bigint6bigint5shift91_$LT$impl$u20$core..ops..bit..Shr$LT$i64$GT$$u20$for$u20$$RF$num_bigint..bigint..BigInt$GT$3shr17h2203c1fb99d428b3E+0x18c>
    31b8: f9400be8     	ldr	x8, [sp, #16]
    31bc: 52800029     	mov	w9, #1
    31c0: f8357909     	str	x9, [x8, x21, lsl #3]
    31c4: 910006a8     	add	x8, x21, #1
    31c8: f9000fe8     	str	x8, [sp, #24]
    31cc: a94083e8     	ldp	x8, x0, [sp, #8]
    31d0: 7100069f     	cmp	w20, #1
    31d4: 54fffcc0     	b.eq	0x316c <__ZN10num_bigint6bigint5shift91_$LT$impl$u20$core..ops..bit..Shr$LT$i64$GT$$u20$for$u20$$RF$num_bigint..bigint..BigInt$GT$3shr17h2203c1fb99d428b3E+0x144>
    31d8: f9400fe9     	ldr	x9, [sp, #24]
    31dc: f100013f     	cmp	x9, #0
    31e0: 1a9f168a     	csinc	w10, w20, wzr, ne
    31e4: a9000268     	stp	x8, x0, [x19]
    31e8: f9000a69     	str	x9, [x19, #16]
    31ec: 3900626a     	strb	w10, [x19, #24]
    31f0: a9477bfd     	ldp	x29, x30, [sp, #112]
    31f4: a9464ff4     	ldp	x20, x19, [sp, #96]
    31f8: a94557f6     	ldp	x22, x21, [sp, #80]
    31fc: 910203ff     	add	sp, sp, #128
    3200: d65f03c0     	ret
    3204: 90000000     	adrp	x0, 0x3000 <__ZN10num_bigint6bigint5shift91_$LT$impl$u20$core..ops..bit..Shr$LT$i64$GT$$u20$for$u20$$RF$num_bigint..bigint..BigInt$GT$3shr17h2203c1fb99d428b3E+0x1dc>
    3208: 91000000     	add	x0, x0, #0
    320c: 90000002     	adrp	x2, 0x3000 <__ZN10num_bigint6bigint5shift91_$LT$impl$u20$core..ops..bit..Shr$LT$i64$GT$$u20$for$u20$$RF$num_bigint..bigint..BigInt$GT$3shr17h2203c1fb99d428b3E+0x1e4>
    3210: 91000042     	add	x2, x2, #0
    3214: 52800381     	mov	w1, #28
    3218: 94000000     	bl	0x3218 <__ZN10num_bigint6bigint5shift91_$LT$impl$u20$core..ops..bit..Shr$LT$i64$GT$$u20$for$u20$$RF$num_bigint..bigint..BigInt$GT$3shr17h2203c1fb99d428b3E+0x1f0>
    321c: aa0003f3     	mov	x19, x0
    3220: f94007e8     	ldr	x8, [sp, #8]
    3224: b40000a8     	cbz	x8, 0x3238 <__ZN10num_bigint6bigint5shift91_$LT$impl$u20$core..ops..bit..Shr$LT$i64$GT$$u20$for$u20$$RF$num_bigint..bigint..BigInt$GT$3shr17h2203c1fb99d428b3E+0x210>
    3228: f9400be0     	ldr	x0, [sp, #16]
    322c: d37df101     	lsl	x1, x8, #3
    3230: 52800102     	mov	w2, #8
    3234: 94000000     	bl	0x3234 <__ZN10num_bigint6bigint5shift91_$LT$impl$u20$core..ops..bit..Shr$LT$i64$GT$$u20$for$u20$$RF$num_bigint..bigint..BigInt$GT$3shr17h2203c1fb99d428b3E+0x20c>
    3238: aa1303e0     	mov	x0, x19
    323c: 94000000     	bl	0x323c <__ZN10num_bigint6bigint5shift91_$LT$impl$u20$core..ops..bit..Shr$LT$i64$GT$$u20$for$u20$$RF$num_bigint..bigint..BigInt$GT$3shr17h2203c1fb99d428b3E+0x214>

0000000000003240 <__ZN10num_bigint6bigint8addition78_$LT$impl$u20$core..ops..arith..Add$u20$for$u20$num_bigint..bigint..BigInt$GT$3add17h25b317788fba9519E.llvm.2288559136965136329>:
    3240: d10303ff     	sub	sp, sp, #192
    3244: a9085ff8     	stp	x24, x23, [sp, #128]
    3248: a90957f6     	stp	x22, x21, [sp, #144]
    324c: a90a4ff4     	stp	x20, x19, [sp, #160]
    3250: a90b7bfd     	stp	x29, x30, [sp, #176]
    3254: 9102c3fd     	add	x29, sp, #176
    3258: aa0003f3     	mov	x19, x0
    325c: 39406055     	ldrb	w21, [x2, #24]
    3260: 710006bf     	cmp	w21, #1
    3264: 540000e1     	b.ne	0x3280 <__ZN10num_bigint6bigint8addition78_$LT$impl$u20$core..ops..arith..Add$u20$for$u20$num_bigint..bigint..BigInt$GT$3add17h25b317788fba9519E.llvm.2288559136965136329+0x40>
    3268: ad400420     	ldp	q0, q1, [x1]
    326c: ad000660     	stp	q0, q1, [x19]
    3270: f9400048     	ldr	x8, [x2]
    3274: b4001588     	cbz	x8, 0x3524 <__ZN10num_bigint6bigint8addition78_$LT$impl$u20$core..ops..arith..Add$u20$for$u20$num_bigint..bigint..BigInt$GT$3add17h25b317788fba9519E.llvm.2288559136965136329+0x2e4>
    3278: f9400440     	ldr	x0, [x2, #8]
    327c: 1400000a     	b	0x32a4 <__ZN10num_bigint6bigint8addition78_$LT$impl$u20$core..ops..arith..Add$u20$for$u20$num_bigint..bigint..BigInt$GT$3add17h25b317788fba9519E.llvm.2288559136965136329+0x64>
    3280: 39406034     	ldrb	w20, [x1, #24]
    3284: 34000214     	cbz	w20, 0x32c4 <__ZN10num_bigint6bigint8addition78_$LT$impl$u20$core..ops..arith..Add$u20$for$u20$num_bigint..bigint..BigInt$GT$3add17h25b317788fba9519E.llvm.2288559136965136329+0x84>
    3288: 7100069f     	cmp	w20, #1
    328c: 540006a1     	b.ne	0x3360 <__ZN10num_bigint6bigint8addition78_$LT$impl$u20$core..ops..arith..Add$u20$for$u20$num_bigint..bigint..BigInt$GT$3add17h25b317788fba9519E.llvm.2288559136965136329+0x120>
    3290: ad400440     	ldp	q0, q1, [x2]
    3294: ad000660     	stp	q0, q1, [x19]
    3298: f9400028     	ldr	x8, [x1]
    329c: b4001448     	cbz	x8, 0x3524 <__ZN10num_bigint6bigint8addition78_$LT$impl$u20$core..ops..arith..Add$u20$for$u20$num_bigint..bigint..BigInt$GT$3add17h25b317788fba9519E.llvm.2288559136965136329+0x2e4>
    32a0: f9400420     	ldr	x0, [x1, #8]
    32a4: d37df101     	lsl	x1, x8, #3
    32a8: 52800102     	mov	w2, #8
    32ac: a94b7bfd     	ldp	x29, x30, [sp, #176]
    32b0: a94a4ff4     	ldp	x20, x19, [sp, #160]
    32b4: a94957f6     	ldp	x22, x21, [sp, #144]
    32b8: a9485ff8     	ldp	x24, x23, [sp, #128]
    32bc: 910303ff     	add	sp, sp, #192
    32c0: 14000000     	b	0x32c0 <__ZN10num_bigint6bigint8addition78_$LT$impl$u20$core..ops..arith..Add$u20$for$u20$num_bigint..bigint..BigInt$GT$3add17h25b317788fba9519E.llvm.2288559136965136329+0x80>
    32c4: 34000515     	cbz	w21, 0x3364 <__ZN10num_bigint6bigint8addition78_$LT$impl$u20$core..ops..arith..Add$u20$for$u20$num_bigint..bigint..BigInt$GT$3add17h25b317788fba9519E.llvm.2288559136965136329+0x124>
    32c8: f940082b     	ldr	x11, [x1, #16]
    32cc: f9400848     	ldr	x8, [x2, #16]
    32d0: eb08017f     	cmp	x11, x8
    32d4: 1a9f07e9     	cset	w9, ne
    32d8: 5a9f212c     	csinv	w12, w9, wzr, hs
    32dc: 34000a2c     	cbz	w12, 0x3420 <__ZN10num_bigint6bigint8addition78_$LT$impl$u20$core..ops..arith..Add$u20$for$u20$num_bigint..bigint..BigInt$GT$3add17h25b317788fba9519E.llvm.2288559136965136329+0x1e0>
    32e0: 72001d88     	ands	w8, w12, #0xff
    32e4: 54000c00     	b.eq	0x3464 <__ZN10num_bigint6bigint8addition78_$LT$impl$u20$core..ops..arith..Add$u20$for$u20$num_bigint..bigint..BigInt$GT$3add17h25b317788fba9519E.llvm.2288559136965136329+0x224>
    32e8: 7100051f     	cmp	w8, #1
    32ec: 54000d81     	b.ne	0x349c <__ZN10num_bigint6bigint8addition78_$LT$impl$u20$core..ops..arith..Add$u20$for$u20$num_bigint..bigint..BigInt$GT$3add17h25b317788fba9519E.llvm.2288559136965136329+0x25c>
    32f0: 3dc00020     	ldr	q0, [x1]
    32f4: 3d8013e0     	str	q0, [sp, #64]
    32f8: f9400828     	ldr	x8, [x1, #16]
    32fc: f9002be8     	str	x8, [sp, #80]
    3300: 3dc00040     	ldr	q0, [x2]
    3304: 3c9b03a0     	stur	q0, [x29, #-80]
    3308: f9400848     	ldr	x8, [x2, #16]
    330c: f81c03a8     	stur	x8, [x29, #-64]
    3310: 910083e8     	add	x8, sp, #32
    3314: 910103e0     	add	x0, sp, #64
    3318: d10143a1     	sub	x1, x29, #80
    331c: 94000000     	bl	0x331c <__ZN10num_bigint6bigint8addition78_$LT$impl$u20$core..ops..arith..Add$u20$for$u20$num_bigint..bigint..BigInt$GT$3add17h25b317788fba9519E.llvm.2288559136965136329+0xdc>
    3320: f85b03a8     	ldur	x8, [x29, #-80]
    3324: b40000a8     	cbz	x8, 0x3338 <__ZN10num_bigint6bigint8addition78_$LT$impl$u20$core..ops..arith..Add$u20$for$u20$num_bigint..bigint..BigInt$GT$3add17h25b317788fba9519E.llvm.2288559136965136329+0xf8>
    3328: f85b83a0     	ldur	x0, [x29, #-72]
    332c: d37df101     	lsl	x1, x8, #3
    3330: 52800102     	mov	w2, #8
    3334: 94000000     	bl	0x3334 <__ZN10num_bigint6bigint8addition78_$LT$impl$u20$core..ops..arith..Add$u20$for$u20$num_bigint..bigint..BigInt$GT$3add17h25b317788fba9519E.llvm.2288559136965136329+0xf4>
    3338: 7100069f     	cmp	w20, #1
    333c: 54000e41     	b.ne	0x3504 <__ZN10num_bigint6bigint8addition78_$LT$impl$u20$core..ops..arith..Add$u20$for$u20$num_bigint..bigint..BigInt$GT$3add17h25b317788fba9519E.llvm.2288559136965136329+0x2c4>
    3340: f9001bff     	str	xzr, [sp, #48]
    3344: f94013e8     	ldr	x8, [sp, #32]
    3348: f100111f     	cmp	x8, #4
    334c: 54000063     	b.lo	0x3358 <__ZN10num_bigint6bigint8addition78_$LT$impl$u20$core..ops..arith..Add$u20$for$u20$num_bigint..bigint..BigInt$GT$3add17h25b317788fba9519E.llvm.2288559136965136329+0x118>
    3350: 910083e0     	add	x0, sp, #32
    3354: 94000000     	bl	0x3354 <__ZN10num_bigint6bigint8addition78_$LT$impl$u20$core..ops..arith..Add$u20$for$u20$num_bigint..bigint..BigInt$GT$3add17h25b317788fba9519E.llvm.2288559136965136329+0x114>
    3358: 52800028     	mov	w8, #1
    335c: 1400006d     	b	0x3510 <__ZN10num_bigint6bigint8addition78_$LT$impl$u20$core..ops..arith..Add$u20$for$u20$num_bigint..bigint..BigInt$GT$3add17h25b317788fba9519E.llvm.2288559136965136329+0x2d0>
    3360: 34fffb55     	cbz	w21, 0x32c8 <__ZN10num_bigint6bigint8addition78_$LT$impl$u20$core..ops..arith..Add$u20$for$u20$num_bigint..bigint..BigInt$GT$3add17h25b317788fba9519E.llvm.2288559136965136329+0x88>
    3364: 3dc00020     	ldr	q0, [x1]
    3368: 3d800be0     	str	q0, [sp, #32]
    336c: f9400828     	ldr	x8, [x1, #16]
    3370: f9001be8     	str	x8, [sp, #48]
    3374: 3dc00040     	ldr	q0, [x2]
    3378: 3d8013e0     	str	q0, [sp, #64]
    337c: f9400848     	ldr	x8, [x2, #16]
    3380: f9002be8     	str	x8, [sp, #80]
    3384: f94013f7     	ldr	x23, [sp, #32]
    3388: f94023f5     	ldr	x21, [sp, #64]
    338c: eb1502ff     	cmp	x23, x21
    3390: 540001c2     	b.hs	0x33c8 <__ZN10num_bigint6bigint8addition78_$LT$impl$u20$core..ops..arith..Add$u20$for$u20$num_bigint..bigint..BigInt$GT$3add17h25b317788fba9519E.llvm.2288559136965136329+0x188>
    3394: 910083e8     	add	x8, sp, #32
    3398: 91002116     	add	x22, x8, #8
    339c: 3dc00040     	ldr	q0, [x2]
    33a0: 3c9b03a0     	stur	q0, [x29, #-80]
    33a4: f9400848     	ldr	x8, [x2, #16]
    33a8: f81c03a8     	stur	x8, [x29, #-64]
    33ac: 910023e8     	add	x8, sp, #8
    33b0: d10143a0     	sub	x0, x29, #80
    33b4: 910083e1     	add	x1, sp, #32
    33b8: 94000000     	bl	0x33b8 <__ZN10num_bigint6bigint8addition78_$LT$impl$u20$core..ops..arith..Add$u20$for$u20$num_bigint..bigint..BigInt$GT$3add17h25b317788fba9519E.llvm.2288559136965136329+0x178>
    33bc: 910083e8     	add	x8, sp, #32
    33c0: b50001f7     	cbnz	x23, 0x33fc <__ZN10num_bigint6bigint8addition78_$LT$impl$u20$core..ops..arith..Add$u20$for$u20$num_bigint..bigint..BigInt$GT$3add17h25b317788fba9519E.llvm.2288559136965136329+0x1bc>
    33c4: 14000012     	b	0x340c <__ZN10num_bigint6bigint8addition78_$LT$impl$u20$core..ops..arith..Add$u20$for$u20$num_bigint..bigint..BigInt$GT$3add17h25b317788fba9519E.llvm.2288559136965136329+0x1cc>
    33c8: 910103e8     	add	x8, sp, #64
    33cc: 91002116     	add	x22, x8, #8
    33d0: 3dc00020     	ldr	q0, [x1]
    33d4: 3c9b03a0     	stur	q0, [x29, #-80]
    33d8: f9400828     	ldr	x8, [x1, #16]
    33dc: f81c03a8     	stur	x8, [x29, #-64]
    33e0: 910023e8     	add	x8, sp, #8
    33e4: d10143a0     	sub	x0, x29, #80
    33e8: 910103e1     	add	x1, sp, #64
    33ec: 94000000     	bl	0x33ec <__ZN10num_bigint6bigint8addition78_$LT$impl$u20$core..ops..arith..Add$u20$for$u20$num_bigint..bigint..BigInt$GT$3add17h25b317788fba9519E.llvm.2288559136965136329+0x1ac>
    33f0: 910103e8     	add	x8, sp, #64
    33f4: aa1503f7     	mov	x23, x21
    33f8: b40000b5     	cbz	x21, 0x340c <__ZN10num_bigint6bigint8addition78_$LT$impl$u20$core..ops..arith..Add$u20$for$u20$num_bigint..bigint..BigInt$GT$3add17h25b317788fba9519E.llvm.2288559136965136329+0x1cc>
    33fc: f9400500     	ldr	x0, [x8, #8]
    3400: d37df2e1     	lsl	x1, x23, #3
    3404: 52800102     	mov	w2, #8
    3408: 94000000     	bl	0x3408 <__ZN10num_bigint6bigint8addition78_$LT$impl$u20$core..ops..arith..Add$u20$for$u20$num_bigint..bigint..BigInt$GT$3add17h25b317788fba9519E.llvm.2288559136965136329+0x1c8>
    340c: f9400fe8     	ldr	x8, [sp, #24]
    3410: f100011f     	cmp	x8, #0
    3414: 1a9f1689     	csinc	w9, w20, wzr, ne
    3418: 3cc083e0     	ldur	q0, [sp, #8]
    341c: 14000036     	b	0x34f4 <__ZN10num_bigint6bigint8addition78_$LT$impl$u20$core..ops..arith..Add$u20$for$u20$num_bigint..bigint..BigInt$GT$3add17h25b317788fba9519E.llvm.2288559136965136329+0x2b4>
    3420: f9400449     	ldr	x9, [x2, #8]
    3424: f940042a     	ldr	x10, [x1, #8]
    3428: d37df108     	lsl	x8, x8, #3
    342c: d1002129     	sub	x9, x9, #8
    3430: d100214a     	sub	x10, x10, #8
    3434: d37df16b     	lsl	x11, x11, #3
    3438: b400082b     	cbz	x11, 0x353c <__ZN10num_bigint6bigint8addition78_$LT$impl$u20$core..ops..arith..Add$u20$for$u20$num_bigint..bigint..BigInt$GT$3add17h25b317788fba9519E.llvm.2288559136965136329+0x2fc>
    343c: b4fff5a8     	cbz	x8, 0x32f0 <__ZN10num_bigint6bigint8addition78_$LT$impl$u20$core..ops..arith..Add$u20$for$u20$num_bigint..bigint..BigInt$GT$3add17h25b317788fba9519E.llvm.2288559136965136329+0xb0>
    3440: f86b694c     	ldr	x12, [x10, x11]
    3444: f868692d     	ldr	x13, [x9, x8]
    3448: eb0c01bf     	cmp	x13, x12
    344c: 1a9f07ec     	cset	w12, ne
    3450: 5a9f918c     	csinv	w12, w12, wzr, ls
    3454: d1002108     	sub	x8, x8, #8
    3458: d100216b     	sub	x11, x11, #8
    345c: 34fffeec     	cbz	w12, 0x3438 <__ZN10num_bigint6bigint8addition78_$LT$impl$u20$core..ops..arith..Add$u20$for$u20$num_bigint..bigint..BigInt$GT$3add17h25b317788fba9519E.llvm.2288559136965136329+0x1f8>
    3460: 17ffffa0     	b	0x32e0 <__ZN10num_bigint6bigint8addition78_$LT$impl$u20$core..ops..arith..Add$u20$for$u20$num_bigint..bigint..BigInt$GT$3add17h25b317788fba9519E.llvm.2288559136965136329+0xa0>
    3464: 90000008     	adrp	x8, 0x3000 <__ZN10num_bigint6bigint8addition78_$LT$impl$u20$core..ops..arith..Add$u20$for$u20$num_bigint..bigint..BigInt$GT$3add17h25b317788fba9519E.llvm.2288559136965136329+0x224>
    3468: 91000108     	add	x8, x8, #0
    346c: ad400500     	ldp	q0, q1, [x8]
    3470: ad000660     	stp	q0, q1, [x19]
    3474: f9400048     	ldr	x8, [x2]
    3478: b4fff108     	cbz	x8, 0x3298 <__ZN10num_bigint6bigint8addition78_$LT$impl$u20$core..ops..arith..Add$u20$for$u20$num_bigint..bigint..BigInt$GT$3add17h25b317788fba9519E.llvm.2288559136965136329+0x58>
    347c: f9400440     	ldr	x0, [x2, #8]
    3480: d37df108     	lsl	x8, x8, #3
    3484: aa0103f3     	mov	x19, x1
    3488: aa0803e1     	mov	x1, x8
    348c: 52800102     	mov	w2, #8
    3490: 94000000     	bl	0x3490 <__ZN10num_bigint6bigint8addition78_$LT$impl$u20$core..ops..arith..Add$u20$for$u20$num_bigint..bigint..BigInt$GT$3add17h25b317788fba9519E.llvm.2288559136965136329+0x250>
    3494: aa1303e1     	mov	x1, x19
    3498: 17ffff80     	b	0x3298 <__ZN10num_bigint6bigint8addition78_$LT$impl$u20$core..ops..arith..Add$u20$for$u20$num_bigint..bigint..BigInt$GT$3add17h25b317788fba9519E.llvm.2288559136965136329+0x58>
    349c: 3dc00040     	ldr	q0, [x2]
    34a0: 3d8013e0     	str	q0, [sp, #64]
    34a4: f9400848     	ldr	x8, [x2, #16]
    34a8: f9002be8     	str	x8, [sp, #80]
    34ac: 3dc00020     	ldr	q0, [x1]
    34b0: 3c9b03a0     	stur	q0, [x29, #-80]
    34b4: f9400828     	ldr	x8, [x1, #16]
    34b8: f81c03a8     	stur	x8, [x29, #-64]
    34bc: 910083e8     	add	x8, sp, #32
    34c0: 910103e0     	add	x0, sp, #64
    34c4: d10143a1     	sub	x1, x29, #80
    34c8: 94000000     	bl	0x34c8 <__ZN10num_bigint6bigint8addition78_$LT$impl$u20$core..ops..arith..Add$u20$for$u20$num_bigint..bigint..BigInt$GT$3add17h25b317788fba9519E.llvm.2288559136965136329+0x288>
    34cc: f85b03a8     	ldur	x8, [x29, #-80]
    34d0: b40000a8     	cbz	x8, 0x34e4 <__ZN10num_bigint6bigint8addition78_$LT$impl$u20$core..ops..arith..Add$u20$for$u20$num_bigint..bigint..BigInt$GT$3add17h25b317788fba9519E.llvm.2288559136965136329+0x2a4>
    34d4: f85b83a0     	ldur	x0, [x29, #-72]
    34d8: d37df101     	lsl	x1, x8, #3
    34dc: 52800102     	mov	w2, #8
    34e0: 94000000     	bl	0x34e0 <__ZN10num_bigint6bigint8addition78_$LT$impl$u20$core..ops..arith..Add$u20$for$u20$num_bigint..bigint..BigInt$GT$3add17h25b317788fba9519E.llvm.2288559136965136329+0x2a0>
    34e4: f9401be8     	ldr	x8, [sp, #48]
    34e8: f100011f     	cmp	x8, #0
    34ec: 1a9f16a9     	csinc	w9, w21, wzr, ne
    34f0: 3dc00be0     	ldr	q0, [sp, #32]
    34f4: 3d800260     	str	q0, [x19]
    34f8: f9000a68     	str	x8, [x19, #16]
    34fc: 39006269     	strb	w9, [x19, #24]
    3500: 14000009     	b	0x3524 <__ZN10num_bigint6bigint8addition78_$LT$impl$u20$core..ops..arith..Add$u20$for$u20$num_bigint..bigint..BigInt$GT$3add17h25b317788fba9519E.llvm.2288559136965136329+0x2e4>
    3504: f9401be8     	ldr	x8, [sp, #48]
    3508: f100011f     	cmp	x8, #0
    350c: 1a9f1688     	csinc	w8, w20, wzr, ne
    3510: 3dc00be0     	ldr	q0, [sp, #32]
    3514: 3d800260     	str	q0, [x19]
    3518: f9401be9     	ldr	x9, [sp, #48]
    351c: f9000a69     	str	x9, [x19, #16]
    3520: 39006268     	strb	w8, [x19, #24]
    3524: a94b7bfd     	ldp	x29, x30, [sp, #176]
    3528: a94a4ff4     	ldp	x20, x19, [sp, #160]
    352c: a94957f6     	ldp	x22, x21, [sp, #144]
    3530: a9485ff8     	ldp	x24, x23, [sp, #128]
    3534: 910303ff     	add	sp, sp, #192
    3538: d65f03c0     	ret
    353c: f100011f     	cmp	x8, #0
    3540: 5a9f03ec     	csetm	w12, ne
    3544: 17ffff67     	b	0x32e0 <__ZN10num_bigint6bigint8addition78_$LT$impl$u20$core..ops..arith..Add$u20$for$u20$num_bigint..bigint..BigInt$GT$3add17h25b317788fba9519E.llvm.2288559136965136329+0xa0>
    3548: aa0003f3     	mov	x19, x0
    354c: f94013f5     	ldr	x21, [sp, #32]
    3550: b40002f5     	cbz	x21, 0x35ac <__ZN10num_bigint6bigint8addition78_$LT$impl$u20$core..ops..arith..Add$u20$for$u20$num_bigint..bigint..BigInt$GT$3add17h25b317788fba9519E.llvm.2288559136965136329+0x36c>
    3554: 910083e8     	add	x8, sp, #32
    3558: 91002116     	add	x22, x8, #8
    355c: f94002c0     	ldr	x0, [x22]
    3560: d37df2a1     	lsl	x1, x21, #3
    3564: 52800102     	mov	w2, #8
    3568: 94000000     	bl	0x3568 <__ZN10num_bigint6bigint8addition78_$LT$impl$u20$core..ops..arith..Add$u20$for$u20$num_bigint..bigint..BigInt$GT$3add17h25b317788fba9519E.llvm.2288559136965136329+0x328>
    356c: aa1303e0     	mov	x0, x19
    3570: 94000000     	bl	0x3570 <__ZN10num_bigint6bigint8addition78_$LT$impl$u20$core..ops..arith..Add$u20$for$u20$num_bigint..bigint..BigInt$GT$3add17h25b317788fba9519E.llvm.2288559136965136329+0x330>
    3574: 14000001     	b	0x3578 <__ZN10num_bigint6bigint8addition78_$LT$impl$u20$core..ops..arith..Add$u20$for$u20$num_bigint..bigint..BigInt$GT$3add17h25b317788fba9519E.llvm.2288559136965136329+0x338>
    3578: aa0003f3     	mov	x19, x0
    357c: f85b03b5     	ldur	x21, [x29, #-80]
    3580: b4000175     	cbz	x21, 0x35ac <__ZN10num_bigint6bigint8addition78_$LT$impl$u20$core..ops..arith..Add$u20$for$u20$num_bigint..bigint..BigInt$GT$3add17h25b317788fba9519E.llvm.2288559136965136329+0x36c>
    3584: d10143a8     	sub	x8, x29, #80
    3588: b27d0116     	orr	x22, x8, #0x8
    358c: f94002c0     	ldr	x0, [x22]
    3590: d37df2a1     	lsl	x1, x21, #3
    3594: 52800102     	mov	w2, #8
    3598: 94000000     	bl	0x3598 <__ZN10num_bigint6bigint8addition78_$LT$impl$u20$core..ops..arith..Add$u20$for$u20$num_bigint..bigint..BigInt$GT$3add17h25b317788fba9519E.llvm.2288559136965136329+0x358>
    359c: aa1303e0     	mov	x0, x19
    35a0: 94000000     	bl	0x35a0 <__ZN10num_bigint6bigint8addition78_$LT$impl$u20$core..ops..arith..Add$u20$for$u20$num_bigint..bigint..BigInt$GT$3add17h25b317788fba9519E.llvm.2288559136965136329+0x360>
    35a4: aa0003f3     	mov	x19, x0
    35a8: b50000d5     	cbnz	x21, 0x35c0 <__ZN10num_bigint6bigint8addition78_$LT$impl$u20$core..ops..arith..Add$u20$for$u20$num_bigint..bigint..BigInt$GT$3add17h25b317788fba9519E.llvm.2288559136965136329+0x380>
    35ac: aa1303e0     	mov	x0, x19
    35b0: 94000000     	bl	0x35b0 <__ZN10num_bigint6bigint8addition78_$LT$impl$u20$core..ops..arith..Add$u20$for$u20$num_bigint..bigint..BigInt$GT$3add17h25b317788fba9519E.llvm.2288559136965136329+0x370>
    35b4: aa0003f3     	mov	x19, x0
    35b8: aa1703f5     	mov	x21, x23
    35bc: b4ffff97     	cbz	x23, 0x35ac <__ZN10num_bigint6bigint8addition78_$LT$impl$u20$core..ops..arith..Add$u20$for$u20$num_bigint..bigint..BigInt$GT$3add17h25b317788fba9519E.llvm.2288559136965136329+0x36c>
    35c0: f94002c0     	ldr	x0, [x22]
    35c4: d37df2a1     	lsl	x1, x21, #3
    35c8: 52800102     	mov	w2, #8
    35cc: 94000000     	bl	0x35cc <__ZN10num_bigint6bigint8addition78_$LT$impl$u20$core..ops..arith..Add$u20$for$u20$num_bigint..bigint..BigInt$GT$3add17h25b317788fba9519E.llvm.2288559136965136329+0x38c>
    35d0: aa1303e0     	mov	x0, x19
    35d4: 94000000     	bl	0x35d4 <__ZN10num_bigint6bigint8addition78_$LT$impl$u20$core..ops..arith..Add$u20$for$u20$num_bigint..bigint..BigInt$GT$3add17h25b317788fba9519E.llvm.2288559136965136329+0x394>

00000000000035d8 <__ZN121_$LT$core..iter..adapters..map..Map$LT$I$C$F$GT$$u20$as$u20$core..iter..traits..unchecked_iterator..UncheckedIterator$GT$14next_unchecked17h927c7b8661b9c7c3E>:
    35d8: d10203ff     	sub	sp, sp, #128
    35dc: a90367fa     	stp	x26, x25, [sp, #48]
    35e0: a9045ff8     	stp	x24, x23, [sp, #64]
    35e4: a90557f6     	stp	x22, x21, [sp, #80]
    35e8: a9064ff4     	stp	x20, x19, [sp, #96]
    35ec: a9077bfd     	stp	x29, x30, [sp, #112]
    35f0: 9101c3fd     	add	x29, sp, #112
    35f4: aa0803f5     	mov	x21, x8
    35f8: f9400008     	ldr	x8, [x0]
    35fc: 91006109     	add	x9, x8, #24
    3600: f9000009     	str	x9, [x0]
    3604: a9404d18     	ldp	x24, x19, [x8]
    3608: f9400919     	ldr	x25, [x8, #16]
    360c: d37cef34     	lsl	x20, x25, #4
    3610: b40008d9     	cbz	x25, 0x3728 <__ZN121_$LT$core..iter..adapters..map..Map$LT$I$C$F$GT$$u20$as$u20$core..iter..traits..unchecked_iterator..UncheckedIterator$GT$14next_unchecked17h927c7b8661b9c7c3E+0x150>
    3614: d37bff28     	lsr	x8, x25, #59
    3618: b5000ce8     	cbnz	x8, 0x37b4 <__ZN121_$LT$core..iter..adapters..map..Map$LT$I$C$F$GT$$u20$as$u20$core..iter..traits..unchecked_iterator..UncheckedIterator$GT$14next_unchecked17h927c7b8661b9c7c3E+0x1dc>
    361c: 9000001a     	adrp	x26, 0x3000 <__ZN121_$LT$core..iter..adapters..map..Map$LT$I$C$F$GT$$u20$as$u20$core..iter..traits..unchecked_iterator..UncheckedIterator$GT$14next_unchecked17h927c7b8661b9c7c3E+0x44>
    3620: f940035a     	ldr	x26, [x26]
    3624: 3940035f     	ldrb	wzr, [x26]
    3628: 52800117     	mov	w23, #8
    362c: aa1403e0     	mov	x0, x20
    3630: 52800101     	mov	w1, #8
    3634: 94000000     	bl	0x3634 <__ZN121_$LT$core..iter..adapters..map..Map$LT$I$C$F$GT$$u20$as$u20$core..iter..traits..unchecked_iterator..UncheckedIterator$GT$14next_unchecked17h927c7b8661b9c7c3E+0x5c>
    3638: b4000c00     	cbz	x0, 0x37b8 <__ZN121_$LT$core..iter..adapters..map..Map$LT$I$C$F$GT$$u20$as$u20$core..iter..traits..unchecked_iterator..UncheckedIterator$GT$14next_unchecked17h927c7b8661b9c7c3E+0x1e0>
    363c: aa0003f6     	mov	x22, x0
    3640: f100233f     	cmp	x25, #8
    3644: 540004c3     	b.lo	0x36dc <__ZN121_$LT$core..iter..adapters..map..Map$LT$I$C$F$GT$$u20$as$u20$core..iter..traits..unchecked_iterator..UncheckedIterator$GT$14next_unchecked17h927c7b8661b9c7c3E+0x104>
    3648: 8b1912c8     	add	x8, x22, x25, lsl #4
    364c: 8b190669     	add	x9, x19, x25, lsl #1
    3650: eb0902df     	cmp	x22, x9
    3654: fa483262     	ccmp	x19, x8, #2, lo
    3658: 54000423     	b.lo	0x36dc <__ZN121_$LT$core..iter..adapters..map..Map$LT$I$C$F$GT$$u20$as$u20$core..iter..traits..unchecked_iterator..UncheckedIterator$GT$14next_unchecked17h927c7b8661b9c7c3E+0x104>
    365c: 927ddf28     	and	x8, x25, #0x7fffffffffffff8
    3660: 6f00e401     	movi.2d	v1, #0000000000000000
    3664: aa0803e9     	mov	x9, x8
    3668: aa1303ea     	mov	x10, x19
    366c: aa1603eb     	mov	x11, x22
    3670: 3cc10542     	ldr	q2, [x10], #16
    3674: 4f10a443     	sshll2.4s	v3, v2, #0
    3678: 4f20a464     	sshll2.2d	v4, v3, #0
    367c: 4e61d880     	scvtf.2d	v0, v4
    3680: 0f20a463     	sshll.2d	v3, v3, #0
    3684: 4e61d863     	scvtf.2d	v3, v3
    3688: 4ea11c24     	mov.16b	v4, v1
    368c: 0f10a442     	sshll.4s	v2, v2, #0
    3690: 4f20a445     	sshll2.2d	v5, v2, #0
    3694: 0f20a442     	sshll.2d	v2, v2, #0
    3698: 4e61d846     	scvtf.2d	v6, v2
    369c: 4ea11c27     	mov.16b	v7, v1
    36a0: aa0b03ec     	mov	x12, x11
    36a4: 4c9f8d86     	st2.2d	{ v6, v7 }, [x12], #32
    36a8: 4e61d8a5     	scvtf.2d	v5, v5
    36ac: 4ea11c26     	mov.16b	v6, v1
    36b0: 4c008d85     	st2.2d	{ v5, v6 }, [x12]
    36b4: 9101016c     	add	x12, x11, #64
    36b8: 4c008d83     	st2.2d	{ v3, v4 }, [x12]
    36bc: 9101816c     	add	x12, x11, #96
    36c0: 4c008d80     	st2.2d	{ v0, v1 }, [x12]
    36c4: 9102016b     	add	x11, x11, #128
    36c8: f1002129     	subs	x9, x9, #8
    36cc: 54fffd21     	b.ne	0x3670 <__ZN121_$LT$core..iter..adapters..map..Map$LT$I$C$F$GT$$u20$as$u20$core..iter..traits..unchecked_iterator..UncheckedIterator$GT$14next_unchecked17h927c7b8661b9c7c3E+0x98>
    36d0: eb08033f     	cmp	x25, x8
    36d4: 54000061     	b.ne	0x36e0 <__ZN121_$LT$core..iter..adapters..map..Map$LT$I$C$F$GT$$u20$as$u20$core..iter..traits..unchecked_iterator..UncheckedIterator$GT$14next_unchecked17h927c7b8661b9c7c3E+0x108>
    36d8: 1400000c     	b	0x3708 <__ZN121_$LT$core..iter..adapters..map..Map$LT$I$C$F$GT$$u20$as$u20$core..iter..traits..unchecked_iterator..UncheckedIterator$GT$14next_unchecked17h927c7b8661b9c7c3E+0x130>
    36dc: d2800008     	mov	x8, #0
    36e0: cb080329     	sub	x9, x25, x8
    36e4: 8b0812ca     	add	x10, x22, x8, lsl #4
    36e8: 9100214a     	add	x10, x10, #8
    36ec: 8b080668     	add	x8, x19, x8, lsl #1
    36f0: 78c0250b     	ldrsh	w11, [x8], #2
    36f4: 1e620160     	scvtf	d0, w11
    36f8: fc1f8140     	stur	d0, [x10, #-8]
    36fc: f801055f     	str	xzr, [x10], #16
    3700: f1000529     	subs	x9, x9, #1
    3704: 54ffff61     	b.ne	0x36f0 <__ZN121_$LT$core..iter..adapters..map..Map$LT$I$C$F$GT$$u20$as$u20$core..iter..traits..unchecked_iterator..UncheckedIterator$GT$14next_unchecked17h927c7b8661b9c7c3E+0x118>
    3708: 3940035f     	ldrb	wzr, [x26]
    370c: aa1403e0     	mov	x0, x20
    3710: 52800101     	mov	w1, #8
    3714: 94000000     	bl	0x3714 <__ZN121_$LT$core..iter..adapters..map..Map$LT$I$C$F$GT$$u20$as$u20$core..iter..traits..unchecked_iterator..UncheckedIterator$GT$14next_unchecked17h927c7b8661b9c7c3E+0x13c>
    3718: b4000580     	cbz	x0, 0x37c8 <__ZN121_$LT$core..iter..adapters..map..Map$LT$I$C$F$GT$$u20$as$u20$core..iter..traits..unchecked_iterator..UncheckedIterator$GT$14next_unchecked17h927c7b8661b9c7c3E+0x1f0>
    371c: aa0003f7     	mov	x23, x0
    3720: aa1403e2     	mov	x2, x20
    3724: 14000004     	b	0x3734 <__ZN121_$LT$core..iter..adapters..map..Map$LT$I$C$F$GT$$u20$as$u20$core..iter..traits..unchecked_iterator..UncheckedIterator$GT$14next_unchecked17h927c7b8661b9c7c3E+0x15c>
    3728: d2800002     	mov	x2, #0
    372c: 52800116     	mov	w22, #8
    3730: 52800117     	mov	w23, #8
    3734: aa1703e0     	mov	x0, x23
    3738: aa1603e1     	mov	x1, x22
    373c: 94000000     	bl	0x373c <__ZN121_$LT$core..iter..adapters..map..Map$LT$I$C$F$GT$$u20$as$u20$core..iter..traits..unchecked_iterator..UncheckedIterator$GT$14next_unchecked17h927c7b8661b9c7c3E+0x164>
    3740: a901dff9     	stp	x25, x23, [sp, #24]
    3744: f90017f9     	str	x25, [sp, #40]
    3748: 910063e0     	add	x0, sp, #24
    374c: 94000000     	bl	0x374c <__ZN121_$LT$core..iter..adapters..map..Map$LT$I$C$F$GT$$u20$as$u20$core..iter..traits..unchecked_iterator..UncheckedIterator$GT$14next_unchecked17h927c7b8661b9c7c3E+0x174>
    3750: 3cc183e0     	ldur	q0, [sp, #24]
    3754: 3d8003e0     	str	q0, [sp]
    3758: f94017e8     	ldr	x8, [sp, #40]
    375c: f9000be8     	str	x8, [sp, #16]
    3760: b40000b9     	cbz	x25, 0x3774 <__ZN121_$LT$core..iter..adapters..map..Map$LT$I$C$F$GT$$u20$as$u20$core..iter..traits..unchecked_iterator..UncheckedIterator$GT$14next_unchecked17h927c7b8661b9c7c3E+0x19c>
    3764: aa1603e0     	mov	x0, x22
    3768: aa1403e1     	mov	x1, x20
    376c: 52800102     	mov	w2, #8
    3770: 94000000     	bl	0x3770 <__ZN121_$LT$core..iter..adapters..map..Map$LT$I$C$F$GT$$u20$as$u20$core..iter..traits..unchecked_iterator..UncheckedIterator$GT$14next_unchecked17h927c7b8661b9c7c3E+0x198>
    3774: b40000b8     	cbz	x24, 0x3788 <__ZN121_$LT$core..iter..adapters..map..Map$LT$I$C$F$GT$$u20$as$u20$core..iter..traits..unchecked_iterator..UncheckedIterator$GT$14next_unchecked17h927c7b8661b9c7c3E+0x1b0>
    3778: d37ffb01     	lsl	x1, x24, #1
    377c: aa1303e0     	mov	x0, x19
    3780: 52800042     	mov	w2, #2
    3784: 94000000     	bl	0x3784 <__ZN121_$LT$core..iter..adapters..map..Map$LT$I$C$F$GT$$u20$as$u20$core..iter..traits..unchecked_iterator..UncheckedIterator$GT$14next_unchecked17h927c7b8661b9c7c3E+0x1ac>
    3788: 3dc003e0     	ldr	q0, [sp]
    378c: 3d8002a0     	str	q0, [x21]
    3790: f9400be8     	ldr	x8, [sp, #16]
    3794: f9000aa8     	str	x8, [x21, #16]
    3798: a9477bfd     	ldp	x29, x30, [sp, #112]
    379c: a9464ff4     	ldp	x20, x19, [sp, #96]
    37a0: a94557f6     	ldp	x22, x21, [sp, #80]
    37a4: a9445ff8     	ldp	x24, x23, [sp, #64]
    37a8: a94367fa     	ldp	x26, x25, [sp, #48]
    37ac: 910203ff     	add	sp, sp, #128
    37b0: d65f03c0     	ret
    37b4: d2800017     	mov	x23, #0
    37b8: aa1703e0     	mov	x0, x23
    37bc: aa1403e1     	mov	x1, x20
    37c0: 94000000     	bl	0x37c0 <__ZN121_$LT$core..iter..adapters..map..Map$LT$I$C$F$GT$$u20$as$u20$core..iter..traits..unchecked_iterator..UncheckedIterator$GT$14next_unchecked17h927c7b8661b9c7c3E+0x1e8>
    37c4: 14000004     	b	0x37d4 <__ZN121_$LT$core..iter..adapters..map..Map$LT$I$C$F$GT$$u20$as$u20$core..iter..traits..unchecked_iterator..UncheckedIterator$GT$14next_unchecked17h927c7b8661b9c7c3E+0x1fc>
    37c8: 52800100     	mov	w0, #8
    37cc: aa1403e1     	mov	x1, x20
    37d0: 94000000     	bl	0x37d0 <__ZN121_$LT$core..iter..adapters..map..Map$LT$I$C$F$GT$$u20$as$u20$core..iter..traits..unchecked_iterator..UncheckedIterator$GT$14next_unchecked17h927c7b8661b9c7c3E+0x1f8>
    37d4: d4200020     	brk	#0x1
    37d8: aa0003f5     	mov	x21, x0
    37dc: 14000007     	b	0x37f8 <__ZN121_$LT$core..iter..adapters..map..Map$LT$I$C$F$GT$$u20$as$u20$core..iter..traits..unchecked_iterator..UncheckedIterator$GT$14next_unchecked17h927c7b8661b9c7c3E+0x220>
    37e0: aa0003f5     	mov	x21, x0
    37e4: b4000179     	cbz	x25, 0x3810 <__ZN121_$LT$core..iter..adapters..map..Map$LT$I$C$F$GT$$u20$as$u20$core..iter..traits..unchecked_iterator..UncheckedIterator$GT$14next_unchecked17h927c7b8661b9c7c3E+0x238>
    37e8: aa1703e0     	mov	x0, x23
    37ec: aa1403e1     	mov	x1, x20
    37f0: 52800102     	mov	w2, #8
    37f4: 94000000     	bl	0x37f4 <__ZN121_$LT$core..iter..adapters..map..Map$LT$I$C$F$GT$$u20$as$u20$core..iter..traits..unchecked_iterator..UncheckedIterator$GT$14next_unchecked17h927c7b8661b9c7c3E+0x21c>
    37f8: aa1603e0     	mov	x0, x22
    37fc: aa1403e1     	mov	x1, x20
    3800: 52800102     	mov	w2, #8
    3804: 94000000     	bl	0x3804 <__ZN121_$LT$core..iter..adapters..map..Map$LT$I$C$F$GT$$u20$as$u20$core..iter..traits..unchecked_iterator..UncheckedIterator$GT$14next_unchecked17h927c7b8661b9c7c3E+0x22c>
    3808: 14000002     	b	0x3810 <__ZN121_$LT$core..iter..adapters..map..Map$LT$I$C$F$GT$$u20$as$u20$core..iter..traits..unchecked_iterator..UncheckedIterator$GT$14next_unchecked17h927c7b8661b9c7c3E+0x238>
    380c: aa0003f5     	mov	x21, x0
    3810: b40000b8     	cbz	x24, 0x3824 <__ZN121_$LT$core..iter..adapters..map..Map$LT$I$C$F$GT$$u20$as$u20$core..iter..traits..unchecked_iterator..UncheckedIterator$GT$14next_unchecked17h927c7b8661b9c7c3E+0x24c>
    3814: d37ffb01     	lsl	x1, x24, #1
    3818: aa1303e0     	mov	x0, x19
    381c: 52800042     	mov	w2, #2
    3820: 94000000     	bl	0x3820 <__ZN121_$LT$core..iter..adapters..map..Map$LT$I$C$F$GT$$u20$as$u20$core..iter..traits..unchecked_iterator..UncheckedIterator$GT$14next_unchecked17h927c7b8661b9c7c3E+0x248>
    3824: aa1503e0     	mov	x0, x21
    3828: 94000000     	bl	0x3828 <__ZN121_$LT$core..iter..adapters..map..Map$LT$I$C$F$GT$$u20$as$u20$core..iter..traits..unchecked_iterator..UncheckedIterator$GT$14next_unchecked17h927c7b8661b9c7c3E+0x250>

000000000000382c <__ZN121_$LT$core..iter..adapters..map..Map$LT$I$C$F$GT$$u20$as$u20$core..iter..traits..unchecked_iterator..UncheckedIterator$GT$14next_unchecked17hfe5cc0eaebd2bba7E>:
    382c: a9bc5ff8     	stp	x24, x23, [sp, #-64]!
    3830: a90157f6     	stp	x22, x21, [sp, #16]
    3834: a9024ff4     	stp	x20, x19, [sp, #32]
    3838: a9037bfd     	stp	x29, x30, [sp, #48]
    383c: 9100c3fd     	add	x29, sp, #48
    3840: aa0803f3     	mov	x19, x8
    3844: f9400008     	ldr	x8, [x0]
    3848: 91006109     	add	x9, x8, #24
    384c: f9000009     	str	x9, [x0]
    3850: a940e115     	ldp	x21, x24, [x8, #8]
    3854: b40001d8     	cbz	x24, 0x388c <__ZN121_$LT$core..iter..adapters..map..Map$LT$I$C$F$GT$$u20$as$u20$core..iter..traits..unchecked_iterator..UncheckedIterator$GT$14next_unchecked17hfe5cc0eaebd2bba7E+0x60>
    3858: d37ffb14     	lsl	x20, x24, #1
    385c: d37eff08     	lsr	x8, x24, #62
    3860: b5000308     	cbnz	x8, 0x38c0 <__ZN121_$LT$core..iter..adapters..map..Map$LT$I$C$F$GT$$u20$as$u20$core..iter..traits..unchecked_iterator..UncheckedIterator$GT$14next_unchecked17hfe5cc0eaebd2bba7E+0x94>
    3864: 90000008     	adrp	x8, 0x3000 <__ZN121_$LT$core..iter..adapters..map..Map$LT$I$C$F$GT$$u20$as$u20$core..iter..traits..unchecked_iterator..UncheckedIterator$GT$14next_unchecked17hfe5cc0eaebd2bba7E+0x38>
    3868: f9400108     	ldr	x8, [x8]
    386c: 3940011f     	ldrb	wzr, [x8]
    3870: 52800057     	mov	w23, #2
    3874: aa1403e0     	mov	x0, x20
    3878: 52800041     	mov	w1, #2
    387c: 94000000     	bl	0x387c <__ZN121_$LT$core..iter..adapters..map..Map$LT$I$C$F$GT$$u20$as$u20$core..iter..traits..unchecked_iterator..UncheckedIterator$GT$14next_unchecked17hfe5cc0eaebd2bba7E+0x50>
    3880: b4000220     	cbz	x0, 0x38c4 <__ZN121_$LT$core..iter..adapters..map..Map$LT$I$C$F$GT$$u20$as$u20$core..iter..traits..unchecked_iterator..UncheckedIterator$GT$14next_unchecked17hfe5cc0eaebd2bba7E+0x98>
    3884: aa0003f6     	mov	x22, x0
    3888: 14000003     	b	0x3894 <__ZN121_$LT$core..iter..adapters..map..Map$LT$I$C$F$GT$$u20$as$u20$core..iter..traits..unchecked_iterator..UncheckedIterator$GT$14next_unchecked17hfe5cc0eaebd2bba7E+0x68>
    388c: d2800014     	mov	x20, #0
    3890: 52800056     	mov	w22, #2
    3894: aa1603e0     	mov	x0, x22
    3898: aa1503e1     	mov	x1, x21
    389c: aa1403e2     	mov	x2, x20
    38a0: 94000000     	bl	0x38a0 <__ZN121_$LT$core..iter..adapters..map..Map$LT$I$C$F$GT$$u20$as$u20$core..iter..traits..unchecked_iterator..UncheckedIterator$GT$14next_unchecked17hfe5cc0eaebd2bba7E+0x74>
    38a4: a9005a78     	stp	x24, x22, [x19]
    38a8: f9000a78     	str	x24, [x19, #16]
    38ac: a9437bfd     	ldp	x29, x30, [sp, #48]
    38b0: a9424ff4     	ldp	x20, x19, [sp, #32]
    38b4: a94157f6     	ldp	x22, x21, [sp, #16]
    38b8: a8c45ff8     	ldp	x24, x23, [sp], #64
    38bc: d65f03c0     	ret
    38c0: d2800017     	mov	x23, #0
    38c4: aa1703e0     	mov	x0, x23
    38c8: aa1403e1     	mov	x1, x20
    38cc: 94000000     	bl	0x38cc <__ZN121_$LT$core..iter..adapters..map..Map$LT$I$C$F$GT$$u20$as$u20$core..iter..traits..unchecked_iterator..UncheckedIterator$GT$14next_unchecked17hfe5cc0eaebd2bba7E+0xa0>

00000000000038d0 <__ZN4core3ptr47drop_in_place$LT$num_bigint..bigint..BigInt$GT$17h143152a3f47bae4bE.llvm.2288559136965136329>:
    38d0: f9400008     	ldr	x8, [x0]
    38d4: b40000a8     	cbz	x8, 0x38e8 <__ZN4core3ptr47drop_in_place$LT$num_bigint..bigint..BigInt$GT$17h143152a3f47bae4bE.llvm.2288559136965136329+0x18>
    38d8: f9400400     	ldr	x0, [x0, #8]
    38dc: d37df101     	lsl	x1, x8, #3
    38e0: 52800102     	mov	w2, #8
    38e4: 14000000     	b	0x38e4 <__ZN4core3ptr47drop_in_place$LT$num_bigint..bigint..BigInt$GT$17h143152a3f47bae4bE.llvm.2288559136965136329+0x14>
    38e8: d65f03c0     	ret

00000000000038ec <__ZN4core3ptr49drop_in_place$LT$num_bigint..biguint..BigUint$GT$17hc85b0de70ae8dedeE.llvm.2288559136965136329>:
    38ec: f9400008     	ldr	x8, [x0]
    38f0: b40000a8     	cbz	x8, 0x3904 <__ZN4core3ptr49drop_in_place$LT$num_bigint..biguint..BigUint$GT$17hc85b0de70ae8dedeE.llvm.2288559136965136329+0x18>
    38f4: f9400400     	ldr	x0, [x0, #8]
    38f8: d37df101     	lsl	x1, x8, #3
    38fc: 52800102     	mov	w2, #8
    3900: 14000000     	b	0x3900 <__ZN4core3ptr49drop_in_place$LT$num_bigint..biguint..BigUint$GT$17hc85b0de70ae8dedeE.llvm.2288559136965136329+0x14>
    3904: d65f03c0     	ret

0000000000003908 <__ZN4core3ptr67drop_in_place$LT$falcon_rust..polynomial..Polynomial$LT$i16$GT$$GT$17h320161fb3824a7c3E.llvm.2288559136965136329>:
    3908: f9400008     	ldr	x8, [x0]
    390c: b40000a8     	cbz	x8, 0x3920 <__ZN4core3ptr67drop_in_place$LT$falcon_rust..polynomial..Polynomial$LT$i16$GT$$GT$17h320161fb3824a7c3E.llvm.2288559136965136329+0x18>
    3910: f9400400     	ldr	x0, [x0, #8]
    3914: d37ff901     	lsl	x1, x8, #1
    3918: 52800042     	mov	w2, #2
    391c: 14000000     	b	0x391c <__ZN4core3ptr67drop_in_place$LT$falcon_rust..polynomial..Polynomial$LT$i16$GT$$GT$17h320161fb3824a7c3E.llvm.2288559136965136329+0x14>
    3920: d65f03c0     	ret

0000000000003924 <__ZN4core3ptr85drop_in_place$LT$num_bigint..TryFromBigIntError$LT$num_bigint..bigint..BigInt$GT$$GT$17hf2e780160250a7ebE>:
    3924: f9400008     	ldr	x8, [x0]
    3928: b40000a8     	cbz	x8, 0x393c <__ZN4core3ptr85drop_in_place$LT$num_bigint..TryFromBigIntError$LT$num_bigint..bigint..BigInt$GT$$GT$17hf2e780160250a7ebE+0x18>
    392c: f9400400     	ldr	x0, [x0, #8]
    3930: d37df101     	lsl	x1, x8, #3
    3934: 52800102     	mov	w2, #8
    3938: 14000000     	b	0x3938 <__ZN4core3ptr85drop_in_place$LT$num_bigint..TryFromBigIntError$LT$num_bigint..bigint..BigInt$GT$$GT$17hf2e780160250a7ebE+0x14>
    393c: d65f03c0     	ret

0000000000003940 <__ZN4core3ptr95drop_in_place$LT$falcon_rust..polynomial..Polynomial$LT$num_complex..Complex$LT$f64$GT$$GT$$GT$17hb72882cea34bd1d3E.llvm.2288559136965136329>:
    3940: f9400008     	ldr	x8, [x0]
    3944: b40000a8     	cbz	x8, 0x3958 <__ZN4core3ptr95drop_in_place$LT$falcon_rust..polynomial..Polynomial$LT$num_complex..Complex$LT$f64$GT$$GT$$GT$17hb72882cea34bd1d3E.llvm.2288559136965136329+0x18>
    3948: f9400400     	ldr	x0, [x0, #8]
    394c: d37ced01     	lsl	x1, x8, #4
    3950: 52800102     	mov	w2, #8
    3954: 14000000     	b	0x3954 <__ZN4core3ptr95drop_in_place$LT$falcon_rust..polynomial..Polynomial$LT$num_complex..Complex$LT$f64$GT$$GT$$GT$17hb72882cea34bd1d3E.llvm.2288559136965136329+0x14>
    3958: d65f03c0     	ret

000000000000395c <__ZN76_$LT$num_bigint..TryFromBigIntError$LT$T$GT$$u20$as$u20$core..fmt..Debug$GT$3fmt17hc4b95c3c7ab4f3f3E.llvm.2288559136965136329>:
    395c: d10083ff     	sub	sp, sp, #32
    3960: a9017bfd     	stp	x29, x30, [sp, #16]
    3964: 910043fd     	add	x29, sp, #16
    3968: aa0103e8     	mov	x8, x1
    396c: f90007e0     	str	x0, [sp, #8]
    3970: 90000001     	adrp	x1, 0x3000 <__ZN76_$LT$num_bigint..TryFromBigIntError$LT$T$GT$$u20$as$u20$core..fmt..Debug$GT$3fmt17hc4b95c3c7ab4f3f3E.llvm.2288559136965136329+0x14>
    3974: 91000021     	add	x1, x1, #0
    3978: 90000003     	adrp	x3, 0x3000 <__ZN76_$LT$num_bigint..TryFromBigIntError$LT$T$GT$$u20$as$u20$core..fmt..Debug$GT$3fmt17hc4b95c3c7ab4f3f3E.llvm.2288559136965136329+0x1c>
    397c: 91000063     	add	x3, x3, #0
    3980: 90000006     	adrp	x6, 0x3000 <__ZN76_$LT$num_bigint..TryFromBigIntError$LT$T$GT$$u20$as$u20$core..fmt..Debug$GT$3fmt17hc4b95c3c7ab4f3f3E.llvm.2288559136965136329+0x24>
    3984: 910000c6     	add	x6, x6, #0
    3988: 910023e5     	add	x5, sp, #8
    398c: aa0803e0     	mov	x0, x8
    3990: 52800242     	mov	w2, #18
    3994: 52800104     	mov	w4, #8
    3998: 94000000     	bl	0x3998 <__ZN76_$LT$num_bigint..TryFromBigIntError$LT$T$GT$$u20$as$u20$core..fmt..Debug$GT$3fmt17hc4b95c3c7ab4f3f3E.llvm.2288559136965136329+0x3c>
    399c: a9417bfd     	ldp	x29, x30, [sp, #16]
    39a0: 910083ff     	add	sp, sp, #32
    39a4: d65f03c0     	ret

00000000000039a8 <__ZN76_$LT$num_bigint..TryFromBigIntError$LT$T$GT$$u20$as$u20$core..fmt..Debug$GT$3fmt17he147370b32aaa18fE>:
    39a8: d10083ff     	sub	sp, sp, #32
    39ac: a9017bfd     	stp	x29, x30, [sp, #16]
    39b0: 910043fd     	add	x29, sp, #16
    39b4: aa0103e8     	mov	x8, x1
    39b8: f90007e0     	str	x0, [sp, #8]
    39bc: 90000001     	adrp	x1, 0x3000 <__ZN76_$LT$num_bigint..TryFromBigIntError$LT$T$GT$$u20$as$u20$core..fmt..Debug$GT$3fmt17he147370b32aaa18fE+0x14>
    39c0: 91000021     	add	x1, x1, #0
    39c4: 90000003     	adrp	x3, 0x3000 <__ZN76_$LT$num_bigint..TryFromBigIntError$LT$T$GT$$u20$as$u20$core..fmt..Debug$GT$3fmt17he147370b32aaa18fE+0x1c>
    39c8: 91000063     	add	x3, x3, #0
    39cc: 90000006     	adrp	x6, 0x3000 <__ZN76_$LT$num_bigint..TryFromBigIntError$LT$T$GT$$u20$as$u20$core..fmt..Debug$GT$3fmt17he147370b32aaa18fE+0x24>
    39d0: 910000c6     	add	x6, x6, #0
    39d4: 910023e5     	add	x5, sp, #8
    39d8: aa0803e0     	mov	x0, x8
    39dc: 52800242     	mov	w2, #18
    39e0: 52800104     	mov	w4, #8
    39e4: 94000000     	bl	0x39e4 <__ZN76_$LT$num_bigint..TryFromBigIntError$LT$T$GT$$u20$as$u20$core..fmt..Debug$GT$3fmt17he147370b32aaa18fE+0x3c>
    39e8: a9417bfd     	ldp	x29, x30, [sp, #16]
    39ec: 910083ff     	add	sp, sp, #32
    39f0: d65f03c0     	ret

target/release/libfalcon_rust.rlib(falcon_rust-e8844e7451c83e3e.falcon_rust.14659d6c29c50ba4-cgu.01.rcgu.o):	file format mach-o arm64

Disassembly of section __TEXT,__text:

0000000000000000 <ltmp0>:
       0: a9bd57f6     	stp	x22, x21, [sp, #-48]!
       4: a9014ff4     	stp	x20, x19, [sp, #16]
       8: a9027bfd     	stp	x29, x30, [sp, #32]
       c: 910083fd     	add	x29, sp, #32
      10: aa0003f4     	mov	x20, x0
      14: a940d413     	ldp	x19, x21, [x0, #8]
      18: b40001b5     	cbz	x21, 0x4c <ltmp0+0x4c>
      1c: 91002276     	add	x22, x19, #8
      20: 14000004     	b	0x30 <ltmp0+0x30>
      24: 910082d6     	add	x22, x22, #32
      28: f10006b5     	subs	x21, x21, #1
      2c: 54000100     	b.eq	0x4c <ltmp0+0x4c>
      30: f85f82c8     	ldur	x8, [x22, #-8]
      34: b4ffff88     	cbz	x8, 0x24 <ltmp0+0x24>
      38: f94002c0     	ldr	x0, [x22]
      3c: d37df101     	lsl	x1, x8, #3
      40: 52800102     	mov	w2, #8
      44: 94000000     	bl	0x44 <ltmp0+0x44>
      48: 17fffff7     	b	0x24 <ltmp0+0x24>
      4c: f9400288     	ldr	x8, [x20]
      50: b4000108     	cbz	x8, 0x70 <ltmp0+0x70>
      54: d37be901     	lsl	x1, x8, #5
      58: aa1303e0     	mov	x0, x19
      5c: 52800102     	mov	w2, #8
      60: a9427bfd     	ldp	x29, x30, [sp, #32]
      64: a9414ff4     	ldp	x20, x19, [sp, #16]
      68: a8c357f6     	ldp	x22, x21, [sp], #48
      6c: 14000000     	b	0x6c <ltmp0+0x6c>
      70: a9427bfd     	ldp	x29, x30, [sp, #32]
      74: a9414ff4     	ldp	x20, x19, [sp, #16]
      78: a8c357f6     	ldp	x22, x21, [sp], #48
      7c: d65f03c0     	ret

0000000000000080 <__ZN5alloc3vec111_$LT$impl$u20$core..convert..TryFrom$LT$alloc..vec..Vec$LT$T$C$A$GT$$GT$$u20$for$u20$$u5b$T$u3b$$u20$N$u5d$$GT$8try_from17h6dedccf43d995edfE>:
      80: f9400809     	ldr	x9, [x0, #16]
      84: f100413f     	cmp	x9, #16
      88: 54000161     	b.ne	0xb4 <__ZN5alloc3vec111_$LT$impl$u20$core..convert..TryFrom$LT$alloc..vec..Vec$LT$T$C$A$GT$$GT$$u20$for$u20$$u5b$T$u3b$$u20$N$u5d$$GT$8try_from17h6dedccf43d995edfE+0x34>
      8c: f900081f     	str	xzr, [x0, #16]
      90: a9402401     	ldp	x1, x9, [x0]
      94: 3dc00120     	ldr	q0, [x9]
      98: 3c808100     	stur	q0, [x8, #8]
      9c: d2f0000a     	mov	x10, #-9223372036854775808
      a0: f900010a     	str	x10, [x8]
      a4: b4000101     	cbz	x1, 0xc4 <__ZN5alloc3vec111_$LT$impl$u20$core..convert..TryFrom$LT$alloc..vec..Vec$LT$T$C$A$GT$$GT$$u20$for$u20$$u5b$T$u3b$$u20$N$u5d$$GT$8try_from17h6dedccf43d995edfE+0x44>
      a8: aa0903e0     	mov	x0, x9
      ac: 52800022     	mov	w2, #1
      b0: 14000000     	b	0xb0 <__ZN5alloc3vec111_$LT$impl$u20$core..convert..TryFrom$LT$alloc..vec..Vec$LT$T$C$A$GT$$GT$$u20$for$u20$$u5b$T$u3b$$u20$N$u5d$$GT$8try_from17h6dedccf43d995edfE+0x30>
      b4: 3dc00000     	ldr	q0, [x0]
      b8: 3d800100     	str	q0, [x8]
      bc: f9400809     	ldr	x9, [x0, #16]
      c0: f9000909     	str	x9, [x8, #16]
      c4: d65f03c0     	ret

00000000000000c8 <__ZN5alloc3vec16Vec$LT$T$C$A$GT$11extend_with17h1e54bdef04f7ccbeE>:
      c8: d10203ff     	sub	sp, sp, #128
      cc: a9026ffc     	stp	x28, x27, [sp, #32]
      d0: a90367fa     	stp	x26, x25, [sp, #48]
      d4: a9045ff8     	stp	x24, x23, [sp, #64]
      d8: a90557f6     	stp	x22, x21, [sp, #80]
      dc: a9064ff4     	stp	x20, x19, [sp, #96]
      e0: a9077bfd     	stp	x29, x30, [sp, #112]
      e4: 9101c3fd     	add	x29, sp, #112
      e8: aa0203f9     	mov	x25, x2
      ec: aa0103f8     	mov	x24, x1
      f0: aa0003f4     	mov	x20, x0
      f4: f9400815     	ldr	x21, [x0, #16]
      f8: f9400008     	ldr	x8, [x0]
      fc: cb150108     	sub	x8, x8, x21
     100: eb01011f     	cmp	x8, x1
     104: 540000c2     	b.hs	0x11c <__ZN5alloc3vec16Vec$LT$T$C$A$GT$11extend_with17h1e54bdef04f7ccbeE+0x54>
     108: aa1403e0     	mov	x0, x20
     10c: aa1503e1     	mov	x1, x21
     110: aa1803e2     	mov	x2, x24
     114: 94000000     	bl	0x114 <__ZN5alloc3vec16Vec$LT$T$C$A$GT$11extend_with17h1e54bdef04f7ccbeE+0x4c>
     118: f9400a95     	ldr	x21, [x20, #16]
     11c: f9400688     	ldr	x8, [x20, #8]
     120: 8b15151a     	add	x26, x8, x21, lsl #5
     124: f1000b1b     	subs	x27, x24, #2
     128: 54000563     	b.lo	0x1d4 <__ZN5alloc3vec16Vec$LT$T$C$A$GT$11extend_with17h1e54bdef04f7ccbeE+0x10c>
     12c: 8b150308     	add	x8, x24, x21
     130: d1000508     	sub	x8, x8, #1
     134: f9000fe8     	str	x8, [sp, #24]
     138: 3940633c     	ldrb	w28, [x25, #24]
     13c: a940cf37     	ldp	x23, x19, [x25, #8]
     140: d37df276     	lsl	x22, x19, #3
     144: b40006b3     	cbz	x19, 0x218 <__ZN5alloc3vec16Vec$LT$T$C$A$GT$11extend_with17h1e54bdef04f7ccbeE+0x150>
     148: f9000bf9     	str	x25, [sp, #16]
     14c: d37cfe68     	lsr	x8, x19, #60
     150: b5000968     	cbnz	x8, 0x27c <__ZN5alloc3vec16Vec$LT$T$C$A$GT$11extend_with17h1e54bdef04f7ccbeE+0x1b4>
     154: 90000018     	adrp	x24, 0x0 <__ZN5alloc3vec16Vec$LT$T$C$A$GT$11extend_with17h1e54bdef04f7ccbeE+0x8c>
     158: f9400318     	ldr	x24, [x24]
     15c: 3940031f     	ldrb	wzr, [x24]
     160: aa1603e0     	mov	x0, x22
     164: 52800101     	mov	w1, #8
     168: 94000000     	bl	0x168 <__ZN5alloc3vec16Vec$LT$T$C$A$GT$11extend_with17h1e54bdef04f7ccbeE+0xa0>
     16c: b40008c0     	cbz	x0, 0x284 <__ZN5alloc3vec16Vec$LT$T$C$A$GT$11extend_with17h1e54bdef04f7ccbeE+0x1bc>
     170: aa0003f9     	mov	x25, x0
     174: 9100835a     	add	x26, x26, #32
     178: 52800108     	mov	w8, #8
     17c: f90007e8     	str	x8, [sp, #8]
     180: aa1903e0     	mov	x0, x25
     184: aa1703e1     	mov	x1, x23
     188: aa1603e2     	mov	x2, x22
     18c: 94000000     	bl	0x18c <__ZN5alloc3vec16Vec$LT$T$C$A$GT$11extend_with17h1e54bdef04f7ccbeE+0xc4>
     190: a93e6753     	stp	x19, x25, [x26, #-32]
     194: f81f0353     	stur	x19, [x26, #-16]
     198: 381f835c     	sturb	w28, [x26, #-8]
     19c: b40003bb     	cbz	x27, 0x210 <__ZN5alloc3vec16Vec$LT$T$C$A$GT$11extend_with17h1e54bdef04f7ccbeE+0x148>
     1a0: 910006b5     	add	x21, x21, #1
     1a4: 3940031f     	ldrb	wzr, [x24]
     1a8: aa1603e0     	mov	x0, x22
     1ac: 52800101     	mov	w1, #8
     1b0: 94000000     	bl	0x1b0 <__ZN5alloc3vec16Vec$LT$T$C$A$GT$11extend_with17h1e54bdef04f7ccbeE+0xe8>
     1b4: aa0003f9     	mov	x25, x0
     1b8: 9100835a     	add	x26, x26, #32
     1bc: d100077b     	sub	x27, x27, #1
     1c0: b5fffe00     	cbnz	x0, 0x180 <__ZN5alloc3vec16Vec$LT$T$C$A$GT$11extend_with17h1e54bdef04f7ccbeE+0xb8>
     1c4: f94007e0     	ldr	x0, [sp, #8]
     1c8: aa1603e1     	mov	x1, x22
     1cc: 94000000     	bl	0x1cc <__ZN5alloc3vec16Vec$LT$T$C$A$GT$11extend_with17h1e54bdef04f7ccbeE+0x104>
     1d0: d4200020     	brk	#0x1
     1d4: b50003d8     	cbnz	x24, 0x24c <__ZN5alloc3vec16Vec$LT$T$C$A$GT$11extend_with17h1e54bdef04f7ccbeE+0x184>
     1d8: f9000a95     	str	x21, [x20, #16]
     1dc: f9400328     	ldr	x8, [x25]
     1e0: b40003e8     	cbz	x8, 0x25c <__ZN5alloc3vec16Vec$LT$T$C$A$GT$11extend_with17h1e54bdef04f7ccbeE+0x194>
     1e4: f9400720     	ldr	x0, [x25, #8]
     1e8: d37df101     	lsl	x1, x8, #3
     1ec: 52800102     	mov	w2, #8
     1f0: a9477bfd     	ldp	x29, x30, [sp, #112]
     1f4: a9464ff4     	ldp	x20, x19, [sp, #96]
     1f8: a94557f6     	ldp	x22, x21, [sp, #80]
     1fc: a9445ff8     	ldp	x24, x23, [sp, #64]
     200: a94367fa     	ldp	x26, x25, [sp, #48]
     204: a9426ffc     	ldp	x28, x27, [sp, #32]
     208: 910203ff     	add	sp, sp, #128
     20c: 14000000     	b	0x20c <__ZN5alloc3vec16Vec$LT$T$C$A$GT$11extend_with17h1e54bdef04f7ccbeE+0x144>
     210: f9400bf9     	ldr	x25, [sp, #16]
     214: 1400000d     	b	0x248 <__ZN5alloc3vec16Vec$LT$T$C$A$GT$11extend_with17h1e54bdef04f7ccbeE+0x180>
     218: d1000713     	sub	x19, x24, #1
     21c: 52800115     	mov	w21, #8
     220: 52800100     	mov	w0, #8
     224: aa1703e1     	mov	x1, x23
     228: aa1603e2     	mov	x2, x22
     22c: 94000000     	bl	0x22c <__ZN5alloc3vec16Vec$LT$T$C$A$GT$11extend_with17h1e54bdef04f7ccbeE+0x164>
     230: a900575f     	stp	xzr, x21, [x26]
     234: f9000b5f     	str	xzr, [x26, #16]
     238: 3900635c     	strb	w28, [x26, #24]
     23c: 9100835a     	add	x26, x26, #32
     240: f1000673     	subs	x19, x19, #1
     244: 54fffee1     	b.ne	0x220 <__ZN5alloc3vec16Vec$LT$T$C$A$GT$11extend_with17h1e54bdef04f7ccbeE+0x158>
     248: f9400ff5     	ldr	x21, [sp, #24]
     24c: ad400720     	ldp	q0, q1, [x25]
     250: ad000740     	stp	q0, q1, [x26]
     254: 910006a8     	add	x8, x21, #1
     258: f9000a88     	str	x8, [x20, #16]
     25c: a9477bfd     	ldp	x29, x30, [sp, #112]
     260: a9464ff4     	ldp	x20, x19, [sp, #96]
     264: a94557f6     	ldp	x22, x21, [sp, #80]
     268: a9445ff8     	ldp	x24, x23, [sp, #64]
     26c: a94367fa     	ldp	x26, x25, [sp, #48]
     270: a9426ffc     	ldp	x28, x27, [sp, #32]
     274: 910203ff     	add	sp, sp, #128
     278: d65f03c0     	ret
     27c: f90007ff     	str	xzr, [sp, #8]
     280: 17ffffd1     	b	0x1c4 <__ZN5alloc3vec16Vec$LT$T$C$A$GT$11extend_with17h1e54bdef04f7ccbeE+0xfc>
     284: 52800108     	mov	w8, #8
     288: f90007e8     	str	x8, [sp, #8]
     28c: 17ffffce     	b	0x1c4 <__ZN5alloc3vec16Vec$LT$T$C$A$GT$11extend_with17h1e54bdef04f7ccbeE+0xfc>
     290: f9000bf9     	str	x25, [sp, #16]
     294: aa0003f6     	mov	x22, x0
     298: 14000003     	b	0x2a4 <__ZN5alloc3vec16Vec$LT$T$C$A$GT$11extend_with17h1e54bdef04f7ccbeE+0x1dc>
     29c: aa0003f6     	mov	x22, x0
     2a0: f9000a95     	str	x21, [x20, #16]
     2a4: f9400be8     	ldr	x8, [sp, #16]
     2a8: f9400108     	ldr	x8, [x8]
     2ac: b40000c8     	cbz	x8, 0x2c4 <__ZN5alloc3vec16Vec$LT$T$C$A$GT$11extend_with17h1e54bdef04f7ccbeE+0x1fc>
     2b0: f9400be9     	ldr	x9, [sp, #16]
     2b4: f9400520     	ldr	x0, [x9, #8]
     2b8: d37df101     	lsl	x1, x8, #3
     2bc: 52800102     	mov	w2, #8
     2c0: 94000000     	bl	0x2c0 <__ZN5alloc3vec16Vec$LT$T$C$A$GT$11extend_with17h1e54bdef04f7ccbeE+0x1f8>
     2c4: aa1603e0     	mov	x0, x22
     2c8: 94000000     	bl	0x2c8 <__ZN5alloc3vec16Vec$LT$T$C$A$GT$11extend_with17h1e54bdef04f7ccbeE+0x200>

00000000000002cc <__ZN5alloc3vec16Vec$LT$T$C$A$GT$11extend_with17ha3a4aa798969ab08E>:
     2cc: d10103ff     	sub	sp, sp, #64
     2d0: a9024ff4     	stp	x20, x19, [sp, #32]
     2d4: a9037bfd     	stp	x29, x30, [sp, #48]
     2d8: 9100c3fd     	add	x29, sp, #48
     2dc: aa0103f3     	mov	x19, x1
     2e0: f9400801     	ldr	x1, [x0, #16]
     2e4: f9400008     	ldr	x8, [x0]
     2e8: cb010108     	sub	x8, x8, x1
     2ec: eb13011f     	cmp	x8, x19
     2f0: 54000463     	b.lo	0x37c <__ZN5alloc3vec16Vec$LT$T$C$A$GT$11extend_with17ha3a4aa798969ab08E+0xb0>
     2f4: f9400408     	ldr	x8, [x0, #8]
     2f8: 8b01110a     	add	x10, x8, x1, lsl #4
     2fc: f1000a7f     	cmp	x19, #2
     300: 54000543     	b.lo	0x3a8 <__ZN5alloc3vec16Vec$LT$T$C$A$GT$11extend_with17ha3a4aa798969ab08E+0xdc>
     304: f100267f     	cmp	x19, #9
     308: 54000082     	b.hs	0x318 <__ZN5alloc3vec16Vec$LT$T$C$A$GT$11extend_with17ha3a4aa798969ab08E+0x4c>
     30c: 52800029     	mov	w9, #1
     310: aa0a03e8     	mov	x8, x10
     314: 14000012     	b	0x35c <__ZN5alloc3vec16Vec$LT$T$C$A$GT$11extend_with17ha3a4aa798969ab08E+0x90>
     318: d100066b     	sub	x11, x19, #1
     31c: 927df16c     	and	x12, x11, #0xfffffffffffffff8
     320: 8b0c1148     	add	x8, x10, x12, lsl #4
     324: b2400189     	orr	x9, x12, #0x1
     328: 4ea01c02     	mov.16b	v2, v0
     32c: 6e180422     	mov.d	v2[1], v1[0]
     330: 9101014a     	add	x10, x10, #64
     334: aa0c03ed     	mov	x13, x12
     338: ad3e0942     	stp	q2, q2, [x10, #-64]
     33c: ad3f0942     	stp	q2, q2, [x10, #-32]
     340: ad000942     	stp	q2, q2, [x10]
     344: ad010942     	stp	q2, q2, [x10, #32]
     348: 9102014a     	add	x10, x10, #128
     34c: f10021ad     	subs	x13, x13, #8
     350: 54ffff41     	b.ne	0x338 <__ZN5alloc3vec16Vec$LT$T$C$A$GT$11extend_with17ha3a4aa798969ab08E+0x6c>
     354: eb0c017f     	cmp	x11, x12
     358: 540000a0     	b.eq	0x36c <__ZN5alloc3vec16Vec$LT$T$C$A$GT$11extend_with17ha3a4aa798969ab08E+0xa0>
     35c: cb090269     	sub	x9, x19, x9
     360: 6c810500     	stp	d0, d1, [x8], #16
     364: f1000529     	subs	x9, x9, #1
     368: 54ffffc1     	b.ne	0x360 <__ZN5alloc3vec16Vec$LT$T$C$A$GT$11extend_with17ha3a4aa798969ab08E+0x94>
     36c: 8b010269     	add	x9, x19, x1
     370: d1000521     	sub	x1, x9, #1
     374: aa0803ea     	mov	x10, x8
     378: 1400000d     	b	0x3ac <__ZN5alloc3vec16Vec$LT$T$C$A$GT$11extend_with17ha3a4aa798969ab08E+0xe0>
     37c: aa0003f4     	mov	x20, x0
     380: aa1303e2     	mov	x2, x19
     384: ad0007e0     	stp	q0, q1, [sp]
     388: 94000000     	bl	0x388 <__ZN5alloc3vec16Vec$LT$T$C$A$GT$11extend_with17ha3a4aa798969ab08E+0xbc>
     38c: ad4007e0     	ldp	q0, q1, [sp]
     390: aa1403e0     	mov	x0, x20
     394: f9400a81     	ldr	x1, [x20, #16]
     398: f9400688     	ldr	x8, [x20, #8]
     39c: 8b01110a     	add	x10, x8, x1, lsl #4
     3a0: f1000a7f     	cmp	x19, #2
     3a4: 54fffb02     	b.hs	0x304 <__ZN5alloc3vec16Vec$LT$T$C$A$GT$11extend_with17ha3a4aa798969ab08E+0x38>
     3a8: b4000073     	cbz	x19, 0x3b4 <__ZN5alloc3vec16Vec$LT$T$C$A$GT$11extend_with17ha3a4aa798969ab08E+0xe8>
     3ac: 6d000540     	stp	d0, d1, [x10]
     3b0: 91000421     	add	x1, x1, #1
     3b4: f9000801     	str	x1, [x0, #16]
     3b8: a9437bfd     	ldp	x29, x30, [sp, #48]
     3bc: a9424ff4     	ldp	x20, x19, [sp, #32]
     3c0: 910103ff     	add	sp, sp, #64
     3c4: d65f03c0     	ret

00000000000003c8 <__ZN5alloc3vec16Vec$LT$T$C$A$GT$11extend_with17hd91aa2d5e4e7af0eE>:
     3c8: a9bd57f6     	stp	x22, x21, [sp, #-48]!
     3cc: a9014ff4     	stp	x20, x19, [sp, #16]
     3d0: a9027bfd     	stp	x29, x30, [sp, #32]
     3d4: 910083fd     	add	x29, sp, #32
     3d8: aa0103f3     	mov	x19, x1
     3dc: f9400801     	ldr	x1, [x0, #16]
     3e0: f9400008     	ldr	x8, [x0]
     3e4: cb010108     	sub	x8, x8, x1
     3e8: eb13011f     	cmp	x8, x19
     3ec: 540003e3     	b.lo	0x468 <__ZN5alloc3vec16Vec$LT$T$C$A$GT$11extend_with17hd91aa2d5e4e7af0eE+0xa0>
     3f0: f9400408     	ldr	x8, [x0, #8]
     3f4: 8b01090a     	add	x10, x8, x1, lsl #2
     3f8: f1000a7f     	cmp	x19, #2
     3fc: 540004c3     	b.lo	0x494 <__ZN5alloc3vec16Vec$LT$T$C$A$GT$11extend_with17hd91aa2d5e4e7af0eE+0xcc>
     400: f100467f     	cmp	x19, #17
     404: 54000082     	b.hs	0x414 <__ZN5alloc3vec16Vec$LT$T$C$A$GT$11extend_with17hd91aa2d5e4e7af0eE+0x4c>
     408: 52800029     	mov	w9, #1
     40c: aa0a03e8     	mov	x8, x10
     410: 1400000e     	b	0x448 <__ZN5alloc3vec16Vec$LT$T$C$A$GT$11extend_with17hd91aa2d5e4e7af0eE+0x80>
     414: d100066b     	sub	x11, x19, #1
     418: 927ced6c     	and	x12, x11, #0xfffffffffffffff0
     41c: 8b0c0948     	add	x8, x10, x12, lsl #2
     420: b2400189     	orr	x9, x12, #0x1
     424: 4e040c40     	dup.4s	v0, w2
     428: 9100814a     	add	x10, x10, #32
     42c: aa0c03ed     	mov	x13, x12
     430: ad3f0140     	stp	q0, q0, [x10, #-32]
     434: ac820140     	stp	q0, q0, [x10], #64
     438: f10041ad     	subs	x13, x13, #16
     43c: 54ffffa1     	b.ne	0x430 <__ZN5alloc3vec16Vec$LT$T$C$A$GT$11extend_with17hd91aa2d5e4e7af0eE+0x68>
     440: eb0c017f     	cmp	x11, x12
     444: 540000a0     	b.eq	0x458 <__ZN5alloc3vec16Vec$LT$T$C$A$GT$11extend_with17hd91aa2d5e4e7af0eE+0x90>
     448: cb090269     	sub	x9, x19, x9
     44c: b8004502     	str	w2, [x8], #4
     450: f1000529     	subs	x9, x9, #1
     454: 54ffffc1     	b.ne	0x44c <__ZN5alloc3vec16Vec$LT$T$C$A$GT$11extend_with17hd91aa2d5e4e7af0eE+0x84>
     458: 8b010269     	add	x9, x19, x1
     45c: d1000521     	sub	x1, x9, #1
     460: aa0803ea     	mov	x10, x8
     464: 1400000d     	b	0x498 <__ZN5alloc3vec16Vec$LT$T$C$A$GT$11extend_with17hd91aa2d5e4e7af0eE+0xd0>
     468: aa0003f4     	mov	x20, x0
     46c: aa0203f5     	mov	x21, x2
     470: aa1303e2     	mov	x2, x19
     474: 94000000     	bl	0x474 <__ZN5alloc3vec16Vec$LT$T$C$A$GT$11extend_with17hd91aa2d5e4e7af0eE+0xac>
     478: aa1503e2     	mov	x2, x21
     47c: aa1403e0     	mov	x0, x20
     480: f9400a81     	ldr	x1, [x20, #16]
     484: f9400688     	ldr	x8, [x20, #8]
     488: 8b01090a     	add	x10, x8, x1, lsl #2
     48c: f1000a7f     	cmp	x19, #2
     490: 54fffb82     	b.hs	0x400 <__ZN5alloc3vec16Vec$LT$T$C$A$GT$11extend_with17hd91aa2d5e4e7af0eE+0x38>
     494: b4000073     	cbz	x19, 0x4a0 <__ZN5alloc3vec16Vec$LT$T$C$A$GT$11extend_with17hd91aa2d5e4e7af0eE+0xd8>
     498: b9000142     	str	w2, [x10]
     49c: 91000421     	add	x1, x1, #1
     4a0: f9000801     	str	x1, [x0, #16]
     4a4: a9427bfd     	ldp	x29, x30, [sp, #32]
     4a8: a9414ff4     	ldp	x20, x19, [sp, #16]
     4ac: a8c357f6     	ldp	x22, x21, [sp], #48
     4b0: d65f03c0     	ret

00000000000004b4 <__ZN5alloc3vec16Vec$LT$T$C$A$GT$13shrink_to_fit17h9287297e2151ba74E>:
     4b4: a9bd57f6     	stp	x22, x21, [sp, #-48]!
     4b8: a9014ff4     	stp	x20, x19, [sp, #16]
     4bc: a9027bfd     	stp	x29, x30, [sp, #32]
     4c0: 910083fd     	add	x29, sp, #32
     4c4: f9400008     	ldr	x8, [x0]
     4c8: f9400816     	ldr	x22, [x0, #16]
     4cc: eb16011f     	cmp	x8, x22
     4d0: 54000249     	b.ls	0x518 <__ZN5alloc3vec16Vec$LT$T$C$A$GT$13shrink_to_fit17h9287297e2151ba74E+0x64>
     4d4: aa0003f3     	mov	x19, x0
     4d8: f9400400     	ldr	x0, [x0, #8]
     4dc: d37df101     	lsl	x1, x8, #3
     4e0: b4000156     	cbz	x22, 0x508 <__ZN5alloc3vec16Vec$LT$T$C$A$GT$13shrink_to_fit17h9287297e2151ba74E+0x54>
     4e4: d37df2d4     	lsl	x20, x22, #3
     4e8: 52800102     	mov	w2, #8
     4ec: aa1403e3     	mov	x3, x20
     4f0: 94000000     	bl	0x4f0 <__ZN5alloc3vec16Vec$LT$T$C$A$GT$13shrink_to_fit17h9287297e2151ba74E+0x3c>
     4f4: aa0003f5     	mov	x21, x0
     4f8: b50000e0     	cbnz	x0, 0x514 <__ZN5alloc3vec16Vec$LT$T$C$A$GT$13shrink_to_fit17h9287297e2151ba74E+0x60>
     4fc: 52800100     	mov	w0, #8
     500: aa1403e1     	mov	x1, x20
     504: 94000000     	bl	0x504 <__ZN5alloc3vec16Vec$LT$T$C$A$GT$13shrink_to_fit17h9287297e2151ba74E+0x50>
     508: 52800115     	mov	w21, #8
     50c: 52800102     	mov	w2, #8
     510: 94000000     	bl	0x510 <__ZN5alloc3vec16Vec$LT$T$C$A$GT$13shrink_to_fit17h9287297e2151ba74E+0x5c>
     514: a9005676     	stp	x22, x21, [x19]
     518: a9427bfd     	ldp	x29, x30, [sp, #32]
     51c: a9414ff4     	ldp	x20, x19, [sp, #16]
     520: a8c357f6     	ldp	x22, x21, [sp], #48
     524: d65f03c0     	ret

0000000000000528 <__ZN5alloc3vec16Vec$LT$T$C$A$GT$14extend_trusted17hb7c331b59cebddc6E>:
     528: a9bc5ff8     	stp	x24, x23, [sp, #-64]!
     52c: a90157f6     	stp	x22, x21, [sp, #16]
     530: a9024ff4     	stp	x20, x19, [sp, #32]
     534: a9037bfd     	stp	x29, x30, [sp, #48]
     538: 9100c3fd     	add	x29, sp, #48
     53c: f9400435     	ldr	x21, [x1, #8]
     540: b40003d5     	cbz	x21, 0x5b8 <__ZN5alloc3vec16Vec$LT$T$C$A$GT$14extend_trusted17hb7c331b59cebddc6E+0x90>
     544: aa0103f3     	mov	x19, x1
     548: f9400836     	ldr	x22, [x1, #16]
     54c: b4000516     	cbz	x22, 0x5ec <__ZN5alloc3vec16Vec$LT$T$C$A$GT$14extend_trusted17hb7c331b59cebddc6E+0xc4>
     550: 9ad60aa8     	udiv	x8, x21, x22
     554: 9b16d509     	msub	x9, x8, x22, x21
     558: f100013f     	cmp	x9, #0
     55c: 9a880502     	cinc	x2, x8, ne
     560: aa0003f7     	mov	x23, x0
     564: f8410ee1     	ldr	x1, [x23, #16]!
     568: f9400008     	ldr	x8, [x0]
     56c: cb010108     	sub	x8, x8, x1
     570: eb02011f     	cmp	x8, x2
     574: 54000323     	b.lo	0x5d8 <__ZN5alloc3vec16Vec$LT$T$C$A$GT$14extend_trusted17hb7c331b59cebddc6E+0xb0>
     578: f9400408     	ldr	x8, [x0, #8]
     57c: f9400269     	ldr	x9, [x19]
     580: 14000006     	b	0x598 <__ZN5alloc3vec16Vec$LT$T$C$A$GT$14extend_trusted17hb7c331b59cebddc6E+0x70>
     584: f821790b     	str	x11, [x8, x1, lsl #3]
     588: 91000421     	add	x1, x1, #1
     58c: 8b0a0929     	add	x9, x9, x10, lsl #2
     590: cb0a02b5     	sub	x21, x21, x10
     594: b4000175     	cbz	x21, 0x5c0 <__ZN5alloc3vec16Vec$LT$T$C$A$GT$14extend_trusted17hb7c331b59cebddc6E+0x98>
     598: eb1602bf     	cmp	x21, x22
     59c: 9a9632aa     	csel	x10, x21, x22, lo
     5a0: b940012b     	ldr	w11, [x9]
     5a4: f100055f     	cmp	x10, #1
     5a8: 54fffee0     	b.eq	0x584 <__ZN5alloc3vec16Vec$LT$T$C$A$GT$14extend_trusted17hb7c331b59cebddc6E+0x5c>
     5ac: b940052c     	ldr	w12, [x9, #4]
     5b0: aa0c816b     	orr	x11, x11, x12, lsl #32
     5b4: 17fffff4     	b	0x584 <__ZN5alloc3vec16Vec$LT$T$C$A$GT$14extend_trusted17hb7c331b59cebddc6E+0x5c>
     5b8: f8410c01     	ldr	x1, [x0, #16]!
     5bc: aa0003f7     	mov	x23, x0
     5c0: f90002e1     	str	x1, [x23]
     5c4: a9437bfd     	ldp	x29, x30, [sp, #48]
     5c8: a9424ff4     	ldp	x20, x19, [sp, #32]
     5cc: a94157f6     	ldp	x22, x21, [sp, #16]
     5d0: a8c45ff8     	ldp	x24, x23, [sp], #64
     5d4: d65f03c0     	ret
     5d8: aa0003f4     	mov	x20, x0
     5dc: 94000000     	bl	0x5dc <__ZN5alloc3vec16Vec$LT$T$C$A$GT$14extend_trusted17hb7c331b59cebddc6E+0xb4>
     5e0: aa1403e0     	mov	x0, x20
     5e4: f9400a81     	ldr	x1, [x20, #16]
     5e8: 17ffffe4     	b	0x578 <__ZN5alloc3vec16Vec$LT$T$C$A$GT$14extend_trusted17hb7c331b59cebddc6E+0x50>
     5ec: 90000000     	adrp	x0, 0x0 <__ZN5alloc3vec16Vec$LT$T$C$A$GT$14extend_trusted17hb7c331b59cebddc6E+0xc4>
     5f0: 91000000     	add	x0, x0, #0
     5f4: 94000000     	bl	0x5f4 <__ZN5alloc3vec16Vec$LT$T$C$A$GT$14extend_trusted17hb7c331b59cebddc6E+0xcc>

00000000000005f8 <__ZN5alloc3vec16Vec$LT$T$C$A$GT$8truncate17hfd8132f04c980862E>:
     5f8: f9400808     	ldr	x8, [x0, #16]
     5fc: eb01011f     	cmp	x8, x1
     600: 54000043     	b.lo	0x608 <__ZN5alloc3vec16Vec$LT$T$C$A$GT$8truncate17hfd8132f04c980862E+0x10>
     604: f9000801     	str	x1, [x0, #16]
     608: d65f03c0     	ret

000000000000060c <__ZN61_$LT$$u5b$V$u5d$$u20$as$u20$alloc..slice..Concat$LT$T$GT$$GT$6concat17hdb89b97020bd43faE>:
     60c: d101c3ff     	sub	sp, sp, #112
     610: a90267fa     	stp	x26, x25, [sp, #32]
     614: a9035ff8     	stp	x24, x23, [sp, #48]
     618: a90457f6     	stp	x22, x21, [sp, #64]
     61c: a9054ff4     	stp	x20, x19, [sp, #80]
     620: a9067bfd     	stp	x29, x30, [sp, #96]
     624: 910183fd     	add	x29, sp, #96
     628: aa0803f3     	mov	x19, x8
     62c: b4000101     	cbz	x1, 0x64c <__ZN61_$LT$$u5b$V$u5d$$u20$as$u20$alloc..slice..Concat$LT$T$GT$$GT$6concat17hdb89b97020bd43faE+0x40>
     630: aa0103f4     	mov	x20, x1
     634: aa0003f5     	mov	x21, x0
     638: f100103f     	cmp	x1, #4
     63c: 54000242     	b.hs	0x684 <__ZN61_$LT$$u5b$V$u5d$$u20$as$u20$alloc..slice..Concat$LT$T$GT$$GT$6concat17hdb89b97020bd43faE+0x78>
     640: d2800016     	mov	x22, #0
     644: d2800008     	mov	x8, #0
     648: 14000026     	b	0x6e0 <__ZN61_$LT$$u5b$V$u5d$$u20$as$u20$alloc..slice..Concat$LT$T$GT$$GT$6concat17hdb89b97020bd43faE+0xd4>
     64c: 52800028     	mov	w8, #1
     650: a900a3ff     	stp	xzr, x8, [sp, #8]
     654: f9000fff     	str	xzr, [sp, #24]
     658: 3cc083e0     	ldur	q0, [sp, #8]
     65c: 3d800260     	str	q0, [x19]
     660: f9400fe8     	ldr	x8, [sp, #24]
     664: f9000a68     	str	x8, [x19, #16]
     668: a9467bfd     	ldp	x29, x30, [sp, #96]
     66c: a9454ff4     	ldp	x20, x19, [sp, #80]
     670: a94457f6     	ldp	x22, x21, [sp, #64]
     674: a9435ff8     	ldp	x24, x23, [sp, #48]
     678: a94267fa     	ldp	x26, x25, [sp, #32]
     67c: 9101c3ff     	add	sp, sp, #112
     680: d65f03c0     	ret
     684: d2800009     	mov	x9, #0
     688: d280000a     	mov	x10, #0
     68c: d280000b     	mov	x11, #0
     690: d280000c     	mov	x12, #0
     694: 927ef688     	and	x8, x20, #0xfffffffffffffffc
     698: 910102ad     	add	x13, x21, #64
     69c: aa0803ee     	mov	x14, x8
     6a0: f85d01af     	ldur	x15, [x13, #-48]
     6a4: f85e81b0     	ldur	x16, [x13, #-24]
     6a8: f94001b1     	ldr	x17, [x13]
     6ac: 8b0901e9     	add	x9, x15, x9
     6b0: 8b0a020a     	add	x10, x16, x10
     6b4: f9400daf     	ldr	x15, [x13, #24]
     6b8: 8b0b022b     	add	x11, x17, x11
     6bc: 8b0c01ec     	add	x12, x15, x12
     6c0: 910181ad     	add	x13, x13, #96
     6c4: f10011ce     	subs	x14, x14, #4
     6c8: 54fffec1     	b.ne	0x6a0 <__ZN61_$LT$$u5b$V$u5d$$u20$as$u20$alloc..slice..Concat$LT$T$GT$$GT$6concat17hdb89b97020bd43faE+0x94>
     6cc: 8b090149     	add	x9, x10, x9
     6d0: 8b0b018a     	add	x10, x12, x11
     6d4: 8b090156     	add	x22, x10, x9
     6d8: eb14011f     	cmp	x8, x20
     6dc: 54000120     	b.eq	0x700 <__ZN61_$LT$$u5b$V$u5d$$u20$as$u20$alloc..slice..Concat$LT$T$GT$$GT$6concat17hdb89b97020bd43faE+0xf4>
     6e0: cb080289     	sub	x9, x20, x8
     6e4: 5280030a     	mov	w10, #24
     6e8: 9b0a5508     	madd	x8, x8, x10, x21
     6ec: 91004108     	add	x8, x8, #16
     6f0: f841850a     	ldr	x10, [x8], #24
     6f4: 8b160156     	add	x22, x10, x22
     6f8: f1000529     	subs	x9, x9, #1
     6fc: 54ffffa1     	b.ne	0x6f0 <__ZN61_$LT$$u5b$V$u5d$$u20$as$u20$alloc..slice..Concat$LT$T$GT$$GT$6concat17hdb89b97020bd43faE+0xe4>
     700: b4000196     	cbz	x22, 0x730 <__ZN61_$LT$$u5b$V$u5d$$u20$as$u20$alloc..slice..Concat$LT$T$GT$$GT$6concat17hdb89b97020bd43faE+0x124>
     704: b7f804f6     	tbnz	x22, #63, 0x7a0 <__ZN61_$LT$$u5b$V$u5d$$u20$as$u20$alloc..slice..Concat$LT$T$GT$$GT$6concat17hdb89b97020bd43faE+0x194>
     708: 90000008     	adrp	x8, 0x0 <__ZN61_$LT$$u5b$V$u5d$$u20$as$u20$alloc..slice..Concat$LT$T$GT$$GT$6concat17hdb89b97020bd43faE+0xfc>
     70c: f9400108     	ldr	x8, [x8]
     710: 3940011f     	ldrb	wzr, [x8]
     714: 52800038     	mov	w24, #1
     718: aa1603e0     	mov	x0, x22
     71c: 52800021     	mov	w1, #1
     720: 94000000     	bl	0x720 <__ZN61_$LT$$u5b$V$u5d$$u20$as$u20$alloc..slice..Concat$LT$T$GT$$GT$6concat17hdb89b97020bd43faE+0x114>
     724: b4000400     	cbz	x0, 0x7a4 <__ZN61_$LT$$u5b$V$u5d$$u20$as$u20$alloc..slice..Concat$LT$T$GT$$GT$6concat17hdb89b97020bd43faE+0x198>
     728: aa0003f7     	mov	x23, x0
     72c: 14000002     	b	0x734 <__ZN61_$LT$$u5b$V$u5d$$u20$as$u20$alloc..slice..Concat$LT$T$GT$$GT$6concat17hdb89b97020bd43faE+0x128>
     730: 52800037     	mov	w23, #1
     734: d2800018     	mov	x24, #0
     738: a900dff6     	stp	x22, x23, [sp, #8]
     73c: f9000fff     	str	xzr, [sp, #24]
     740: 910042b6     	add	x22, x21, #16
     744: 8b140688     	add	x8, x20, x20, lsl #1
     748: d37df119     	lsl	x25, x8, #3
     74c: 1400000a     	b	0x774 <__ZN61_$LT$$u5b$V$u5d$$u20$as$u20$alloc..slice..Concat$LT$T$GT$$GT$6concat17hdb89b97020bd43faE+0x168>
     750: 910062d6     	add	x22, x22, #24
     754: 8b1802e0     	add	x0, x23, x24
     758: aa1503e1     	mov	x1, x21
     75c: aa1403e2     	mov	x2, x20
     760: 94000000     	bl	0x760 <__ZN61_$LT$$u5b$V$u5d$$u20$as$u20$alloc..slice..Concat$LT$T$GT$$GT$6concat17hdb89b97020bd43faE+0x154>
     764: 8b140318     	add	x24, x24, x20
     768: f9000ff8     	str	x24, [sp, #24]
     76c: f1006339     	subs	x25, x25, #24
     770: 54fff740     	b.eq	0x658 <__ZN61_$LT$$u5b$V$u5d$$u20$as$u20$alloc..slice..Concat$LT$T$GT$$GT$6concat17hdb89b97020bd43faE+0x4c>
     774: a97fd2d5     	ldp	x21, x20, [x22, #-8]
     778: f94007e8     	ldr	x8, [sp, #8]
     77c: cb180108     	sub	x8, x8, x24
     780: eb14011f     	cmp	x8, x20
     784: 54fffe62     	b.hs	0x750 <__ZN61_$LT$$u5b$V$u5d$$u20$as$u20$alloc..slice..Concat$LT$T$GT$$GT$6concat17hdb89b97020bd43faE+0x144>
     788: 910023e0     	add	x0, sp, #8
     78c: aa1803e1     	mov	x1, x24
     790: aa1403e2     	mov	x2, x20
     794: 94000000     	bl	0x794 <__ZN61_$LT$$u5b$V$u5d$$u20$as$u20$alloc..slice..Concat$LT$T$GT$$GT$6concat17hdb89b97020bd43faE+0x188>
     798: a94163f7     	ldp	x23, x24, [sp, #16]
     79c: 17ffffed     	b	0x750 <__ZN61_$LT$$u5b$V$u5d$$u20$as$u20$alloc..slice..Concat$LT$T$GT$$GT$6concat17hdb89b97020bd43faE+0x144>
     7a0: d2800018     	mov	x24, #0
     7a4: aa1803e0     	mov	x0, x24
     7a8: aa1603e1     	mov	x1, x22
     7ac: 94000000     	bl	0x7ac <__ZN61_$LT$$u5b$V$u5d$$u20$as$u20$alloc..slice..Concat$LT$T$GT$$GT$6concat17hdb89b97020bd43faE+0x1a0>
     7b0: aa0003f3     	mov	x19, x0
     7b4: f94007e1     	ldr	x1, [sp, #8]
     7b8: b4000081     	cbz	x1, 0x7c8 <__ZN61_$LT$$u5b$V$u5d$$u20$as$u20$alloc..slice..Concat$LT$T$GT$$GT$6concat17hdb89b97020bd43faE+0x1bc>
     7bc: f9400be0     	ldr	x0, [sp, #16]
     7c0: 52800022     	mov	w2, #1
     7c4: 94000000     	bl	0x7c4 <__ZN61_$LT$$u5b$V$u5d$$u20$as$u20$alloc..slice..Concat$LT$T$GT$$GT$6concat17hdb89b97020bd43faE+0x1b8>
     7c8: aa1303e0     	mov	x0, x19
     7cc: 94000000     	bl	0x7cc <__ZN61_$LT$$u5b$V$u5d$$u20$as$u20$alloc..slice..Concat$LT$T$GT$$GT$6concat17hdb89b97020bd43faE+0x1c0>

00000000000007d0 <__ZN65_$LT$alloc..vec..Vec$LT$T$C$A$GT$$u20$as$u20$core..fmt..Debug$GT$3fmt17h3b5096100e5eb91cE>:
     7d0: d10143ff     	sub	sp, sp, #80
     7d4: a90257f6     	stp	x22, x21, [sp, #32]
     7d8: a9034ff4     	stp	x20, x19, [sp, #48]
     7dc: a9047bfd     	stp	x29, x30, [sp, #64]
     7e0: 910103fd     	add	x29, sp, #64
     7e4: a940cc14     	ldp	x20, x19, [x0, #8]
     7e8: 910023e8     	add	x8, sp, #8
     7ec: aa0103e0     	mov	x0, x1
     7f0: 94000000     	bl	0x7f0 <__ZN65_$LT$alloc..vec..Vec$LT$T$C$A$GT$$u20$as$u20$core..fmt..Debug$GT$3fmt17h3b5096100e5eb91cE+0x20>
     7f4: b40001b3     	cbz	x19, 0x828 <__ZN65_$LT$alloc..vec..Vec$LT$T$C$A$GT$$u20$as$u20$core..fmt..Debug$GT$3fmt17h3b5096100e5eb91cE+0x58>
     7f8: d37cee75     	lsl	x21, x19, #4
     7fc: 90000013     	adrp	x19, 0x0 <__ZN65_$LT$alloc..vec..Vec$LT$T$C$A$GT$$u20$as$u20$core..fmt..Debug$GT$3fmt17h3b5096100e5eb91cE+0x2c>
     800: 91000273     	add	x19, x19, #0
     804: 91004296     	add	x22, x20, #16
     808: f9000ff4     	str	x20, [sp, #24]
     80c: 910023e0     	add	x0, sp, #8
     810: 910063e1     	add	x1, sp, #24
     814: aa1303e2     	mov	x2, x19
     818: 94000000     	bl	0x818 <__ZN65_$LT$alloc..vec..Vec$LT$T$C$A$GT$$u20$as$u20$core..fmt..Debug$GT$3fmt17h3b5096100e5eb91cE+0x48>
     81c: aa1603f4     	mov	x20, x22
     820: f10042b5     	subs	x21, x21, #16
     824: 54ffff01     	b.ne	0x804 <__ZN65_$LT$alloc..vec..Vec$LT$T$C$A$GT$$u20$as$u20$core..fmt..Debug$GT$3fmt17h3b5096100e5eb91cE+0x34>
     828: 910023e0     	add	x0, sp, #8
     82c: 94000000     	bl	0x82c <__ZN65_$LT$alloc..vec..Vec$LT$T$C$A$GT$$u20$as$u20$core..fmt..Debug$GT$3fmt17h3b5096100e5eb91cE+0x5c>
     830: a9447bfd     	ldp	x29, x30, [sp, #64]
     834: a9434ff4     	ldp	x20, x19, [sp, #48]
     838: a94257f6     	ldp	x22, x21, [sp, #32]
     83c: 910143ff     	add	sp, sp, #80
     840: d65f03c0     	ret

0000000000000844 <__ZN65_$LT$alloc..vec..Vec$LT$T$C$A$GT$$u20$as$u20$core..fmt..Debug$GT$3fmt17ha38482f1f446070aE>:
     844: d10143ff     	sub	sp, sp, #80
     848: a90257f6     	stp	x22, x21, [sp, #32]
     84c: a9034ff4     	stp	x20, x19, [sp, #48]
     850: a9047bfd     	stp	x29, x30, [sp, #64]
     854: 910103fd     	add	x29, sp, #64
     858: a940cc14     	ldp	x20, x19, [x0, #8]
     85c: 910023e8     	add	x8, sp, #8
     860: aa0103e0     	mov	x0, x1
     864: 94000000     	bl	0x864 <__ZN65_$LT$alloc..vec..Vec$LT$T$C$A$GT$$u20$as$u20$core..fmt..Debug$GT$3fmt17ha38482f1f446070aE+0x20>
     868: b40001b3     	cbz	x19, 0x89c <__ZN65_$LT$alloc..vec..Vec$LT$T$C$A$GT$$u20$as$u20$core..fmt..Debug$GT$3fmt17ha38482f1f446070aE+0x58>
     86c: d37bea75     	lsl	x21, x19, #5
     870: 90000013     	adrp	x19, 0x0 <__ZN65_$LT$alloc..vec..Vec$LT$T$C$A$GT$$u20$as$u20$core..fmt..Debug$GT$3fmt17ha38482f1f446070aE+0x2c>
     874: 91000273     	add	x19, x19, #0
     878: 91008296     	add	x22, x20, #32
     87c: f9000ff4     	str	x20, [sp, #24]
     880: 910023e0     	add	x0, sp, #8
     884: 910063e1     	add	x1, sp, #24
     888: aa1303e2     	mov	x2, x19
     88c: 94000000     	bl	0x88c <__ZN65_$LT$alloc..vec..Vec$LT$T$C$A$GT$$u20$as$u20$core..fmt..Debug$GT$3fmt17ha38482f1f446070aE+0x48>
     890: aa1603f4     	mov	x20, x22
     894: f10082b5     	subs	x21, x21, #32
     898: 54ffff01     	b.ne	0x878 <__ZN65_$LT$alloc..vec..Vec$LT$T$C$A$GT$$u20$as$u20$core..fmt..Debug$GT$3fmt17ha38482f1f446070aE+0x34>
     89c: 910023e0     	add	x0, sp, #8
     8a0: 94000000     	bl	0x8a0 <__ZN65_$LT$alloc..vec..Vec$LT$T$C$A$GT$$u20$as$u20$core..fmt..Debug$GT$3fmt17ha38482f1f446070aE+0x5c>
     8a4: a9447bfd     	ldp	x29, x30, [sp, #64]
     8a8: a9434ff4     	ldp	x20, x19, [sp, #48]
     8ac: a94257f6     	ldp	x22, x21, [sp, #32]
     8b0: 910143ff     	add	sp, sp, #80
     8b4: d65f03c0     	ret

00000000000008b8 <__ZN65_$LT$alloc..vec..Vec$LT$T$C$A$GT$$u20$as$u20$core..fmt..Debug$GT$3fmt17hab235d6d3f5b9fa0E>:
     8b8: d10143ff     	sub	sp, sp, #80
     8bc: a90257f6     	stp	x22, x21, [sp, #32]
     8c0: a9034ff4     	stp	x20, x19, [sp, #48]
     8c4: a9047bfd     	stp	x29, x30, [sp, #64]
     8c8: 910103fd     	add	x29, sp, #64
     8cc: a940d015     	ldp	x21, x20, [x0, #8]
     8d0: 910023e8     	add	x8, sp, #8
     8d4: aa0103e0     	mov	x0, x1
     8d8: 94000000     	bl	0x8d8 <__ZN65_$LT$alloc..vec..Vec$LT$T$C$A$GT$$u20$as$u20$core..fmt..Debug$GT$3fmt17hab235d6d3f5b9fa0E+0x20>
     8dc: b4000194     	cbz	x20, 0x90c <__ZN65_$LT$alloc..vec..Vec$LT$T$C$A$GT$$u20$as$u20$core..fmt..Debug$GT$3fmt17hab235d6d3f5b9fa0E+0x54>
     8e0: 90000013     	adrp	x19, 0x0 <__ZN65_$LT$alloc..vec..Vec$LT$T$C$A$GT$$u20$as$u20$core..fmt..Debug$GT$3fmt17hab235d6d3f5b9fa0E+0x28>
     8e4: 91000273     	add	x19, x19, #0
     8e8: 910006b6     	add	x22, x21, #1
     8ec: f9000ff5     	str	x21, [sp, #24]
     8f0: 910023e0     	add	x0, sp, #8
     8f4: 910063e1     	add	x1, sp, #24
     8f8: aa1303e2     	mov	x2, x19
     8fc: 94000000     	bl	0x8fc <__ZN65_$LT$alloc..vec..Vec$LT$T$C$A$GT$$u20$as$u20$core..fmt..Debug$GT$3fmt17hab235d6d3f5b9fa0E+0x44>
     900: aa1603f5     	mov	x21, x22
     904: f1000694     	subs	x20, x20, #1
     908: 54ffff01     	b.ne	0x8e8 <__ZN65_$LT$alloc..vec..Vec$LT$T$C$A$GT$$u20$as$u20$core..fmt..Debug$GT$3fmt17hab235d6d3f5b9fa0E+0x30>
     90c: 910023e0     	add	x0, sp, #8
     910: 94000000     	bl	0x910 <__ZN65_$LT$alloc..vec..Vec$LT$T$C$A$GT$$u20$as$u20$core..fmt..Debug$GT$3fmt17hab235d6d3f5b9fa0E+0x58>
     914: a9447bfd     	ldp	x29, x30, [sp, #64]
     918: a9434ff4     	ldp	x20, x19, [sp, #48]
     91c: a94257f6     	ldp	x22, x21, [sp, #32]
     920: 910143ff     	add	sp, sp, #80
     924: d65f03c0     	ret

0000000000000928 <__ZN67_$LT$alloc..vec..Vec$LT$T$C$A$GT$$u20$as$u20$core..clone..Clone$GT$5clone17h2e4903f83153160dE>:
     928: a9bc5ff8     	stp	x24, x23, [sp, #-64]!
     92c: a90157f6     	stp	x22, x21, [sp, #16]
     930: a9024ff4     	stp	x20, x19, [sp, #32]
     934: a9037bfd     	stp	x29, x30, [sp, #48]
     938: 9100c3fd     	add	x29, sp, #48
     93c: aa0803f3     	mov	x19, x8
     940: a940e015     	ldp	x21, x24, [x0, #8]
     944: b40001d8     	cbz	x24, 0x97c <__ZN67_$LT$alloc..vec..Vec$LT$T$C$A$GT$$u20$as$u20$core..clone..Clone$GT$5clone17h2e4903f83153160dE+0x54>
     948: d37ffb14     	lsl	x20, x24, #1
     94c: d37eff08     	lsr	x8, x24, #62
     950: b5000308     	cbnz	x8, 0x9b0 <__ZN67_$LT$alloc..vec..Vec$LT$T$C$A$GT$$u20$as$u20$core..clone..Clone$GT$5clone17h2e4903f83153160dE+0x88>
     954: 90000008     	adrp	x8, 0x0 <__ZN67_$LT$alloc..vec..Vec$LT$T$C$A$GT$$u20$as$u20$core..clone..Clone$GT$5clone17h2e4903f83153160dE+0x2c>
     958: f9400108     	ldr	x8, [x8]
     95c: 3940011f     	ldrb	wzr, [x8]
     960: 52800057     	mov	w23, #2
     964: aa1403e0     	mov	x0, x20
     968: 52800041     	mov	w1, #2
     96c: 94000000     	bl	0x96c <__ZN67_$LT$alloc..vec..Vec$LT$T$C$A$GT$$u20$as$u20$core..clone..Clone$GT$5clone17h2e4903f83153160dE+0x44>
     970: b4000220     	cbz	x0, 0x9b4 <__ZN67_$LT$alloc..vec..Vec$LT$T$C$A$GT$$u20$as$u20$core..clone..Clone$GT$5clone17h2e4903f83153160dE+0x8c>
     974: aa0003f6     	mov	x22, x0
     978: 14000003     	b	0x984 <__ZN67_$LT$alloc..vec..Vec$LT$T$C$A$GT$$u20$as$u20$core..clone..Clone$GT$5clone17h2e4903f83153160dE+0x5c>
     97c: d2800014     	mov	x20, #0
     980: 52800056     	mov	w22, #2
     984: aa1603e0     	mov	x0, x22
     988: aa1503e1     	mov	x1, x21
     98c: aa1403e2     	mov	x2, x20
     990: 94000000     	bl	0x990 <__ZN67_$LT$alloc..vec..Vec$LT$T$C$A$GT$$u20$as$u20$core..clone..Clone$GT$5clone17h2e4903f83153160dE+0x68>
     994: a9005a78     	stp	x24, x22, [x19]
     998: f9000a78     	str	x24, [x19, #16]
     99c: a9437bfd     	ldp	x29, x30, [sp, #48]
     9a0: a9424ff4     	ldp	x20, x19, [sp, #32]
     9a4: a94157f6     	ldp	x22, x21, [sp, #16]
     9a8: a8c45ff8     	ldp	x24, x23, [sp], #64
     9ac: d65f03c0     	ret
     9b0: d2800017     	mov	x23, #0
     9b4: aa1703e0     	mov	x0, x23
     9b8: aa1403e1     	mov	x1, x20
     9bc: 94000000     	bl	0x9bc <__ZN67_$LT$alloc..vec..Vec$LT$T$C$A$GT$$u20$as$u20$core..clone..Clone$GT$5clone17h2e4903f83153160dE+0x94>

00000000000009c0 <__ZN67_$LT$alloc..vec..Vec$LT$T$C$A$GT$$u20$as$u20$core..clone..Clone$GT$5clone17h7c7cc840a74d0931E>:
     9c0: a9bc5ff8     	stp	x24, x23, [sp, #-64]!
     9c4: a90157f6     	stp	x22, x21, [sp, #16]
     9c8: a9024ff4     	stp	x20, x19, [sp, #32]
     9cc: a9037bfd     	stp	x29, x30, [sp, #48]
     9d0: 9100c3fd     	add	x29, sp, #48
     9d4: aa0803f3     	mov	x19, x8
     9d8: a940e015     	ldp	x21, x24, [x0, #8]
     9dc: b40001d8     	cbz	x24, 0xa14 <__ZN67_$LT$alloc..vec..Vec$LT$T$C$A$GT$$u20$as$u20$core..clone..Clone$GT$5clone17h7c7cc840a74d0931E+0x54>
     9e0: d37df314     	lsl	x20, x24, #3
     9e4: d37cff08     	lsr	x8, x24, #60
     9e8: b5000308     	cbnz	x8, 0xa48 <__ZN67_$LT$alloc..vec..Vec$LT$T$C$A$GT$$u20$as$u20$core..clone..Clone$GT$5clone17h7c7cc840a74d0931E+0x88>
     9ec: 90000008     	adrp	x8, 0x0 <__ZN67_$LT$alloc..vec..Vec$LT$T$C$A$GT$$u20$as$u20$core..clone..Clone$GT$5clone17h7c7cc840a74d0931E+0x2c>
     9f0: f9400108     	ldr	x8, [x8]
     9f4: 3940011f     	ldrb	wzr, [x8]
     9f8: 52800117     	mov	w23, #8
     9fc: aa1403e0     	mov	x0, x20
     a00: 52800101     	mov	w1, #8
     a04: 94000000     	bl	0xa04 <__ZN67_$LT$alloc..vec..Vec$LT$T$C$A$GT$$u20$as$u20$core..clone..Clone$GT$5clone17h7c7cc840a74d0931E+0x44>
     a08: b4000220     	cbz	x0, 0xa4c <__ZN67_$LT$alloc..vec..Vec$LT$T$C$A$GT$$u20$as$u20$core..clone..Clone$GT$5clone17h7c7cc840a74d0931E+0x8c>
     a0c: aa0003f6     	mov	x22, x0
     a10: 14000003     	b	0xa1c <__ZN67_$LT$alloc..vec..Vec$LT$T$C$A$GT$$u20$as$u20$core..clone..Clone$GT$5clone17h7c7cc840a74d0931E+0x5c>
     a14: d2800014     	mov	x20, #0
     a18: 52800116     	mov	w22, #8
     a1c: aa1603e0     	mov	x0, x22
     a20: aa1503e1     	mov	x1, x21
     a24: aa1403e2     	mov	x2, x20
     a28: 94000000     	bl	0xa28 <__ZN67_$LT$alloc..vec..Vec$LT$T$C$A$GT$$u20$as$u20$core..clone..Clone$GT$5clone17h7c7cc840a74d0931E+0x68>
     a2c: a9005a78     	stp	x24, x22, [x19]
     a30: f9000a78     	str	x24, [x19, #16]
     a34: a9437bfd     	ldp	x29, x30, [sp, #48]
     a38: a9424ff4     	ldp	x20, x19, [sp, #32]
     a3c: a94157f6     	ldp	x22, x21, [sp, #16]
     a40: a8c45ff8     	ldp	x24, x23, [sp], #64
     a44: d65f03c0     	ret
     a48: d2800017     	mov	x23, #0
     a4c: aa1703e0     	mov	x0, x23
     a50: aa1403e1     	mov	x1, x20
     a54: 94000000     	bl	0xa54 <__ZN67_$LT$alloc..vec..Vec$LT$T$C$A$GT$$u20$as$u20$core..clone..Clone$GT$5clone17h7c7cc840a74d0931E+0x94>

0000000000000a58 <__ZN67_$LT$alloc..vec..Vec$LT$T$C$A$GT$$u20$as$u20$core..clone..Clone$GT$5clone17hab11d58aa06546fcE>:
     a58: a9bc5ff8     	stp	x24, x23, [sp, #-64]!
     a5c: a90157f6     	stp	x22, x21, [sp, #16]
     a60: a9024ff4     	stp	x20, x19, [sp, #32]
     a64: a9037bfd     	stp	x29, x30, [sp, #48]
     a68: 9100c3fd     	add	x29, sp, #48
     a6c: aa0803f3     	mov	x19, x8
     a70: a940e015     	ldp	x21, x24, [x0, #8]
     a74: b40001d8     	cbz	x24, 0xaac <__ZN67_$LT$alloc..vec..Vec$LT$T$C$A$GT$$u20$as$u20$core..clone..Clone$GT$5clone17hab11d58aa06546fcE+0x54>
     a78: d37ef714     	lsl	x20, x24, #2
     a7c: d37dff08     	lsr	x8, x24, #61
     a80: b5000308     	cbnz	x8, 0xae0 <__ZN67_$LT$alloc..vec..Vec$LT$T$C$A$GT$$u20$as$u20$core..clone..Clone$GT$5clone17hab11d58aa06546fcE+0x88>
     a84: 90000008     	adrp	x8, 0x0 <__ZN67_$LT$alloc..vec..Vec$LT$T$C$A$GT$$u20$as$u20$core..clone..Clone$GT$5clone17hab11d58aa06546fcE+0x2c>
     a88: f9400108     	ldr	x8, [x8]
     a8c: 3940011f     	ldrb	wzr, [x8]
     a90: 52800097     	mov	w23, #4
     a94: aa1403e0     	mov	x0, x20
     a98: 52800081     	mov	w1, #4
     a9c: 94000000     	bl	0xa9c <__ZN67_$LT$alloc..vec..Vec$LT$T$C$A$GT$$u20$as$u20$core..clone..Clone$GT$5clone17hab11d58aa06546fcE+0x44>
     aa0: b4000220     	cbz	x0, 0xae4 <__ZN67_$LT$alloc..vec..Vec$LT$T$C$A$GT$$u20$as$u20$core..clone..Clone$GT$5clone17hab11d58aa06546fcE+0x8c>
     aa4: aa0003f6     	mov	x22, x0
     aa8: 14000003     	b	0xab4 <__ZN67_$LT$alloc..vec..Vec$LT$T$C$A$GT$$u20$as$u20$core..clone..Clone$GT$5clone17hab11d58aa06546fcE+0x5c>
     aac: d2800014     	mov	x20, #0
     ab0: 52800096     	mov	w22, #4
     ab4: aa1603e0     	mov	x0, x22
     ab8: aa1503e1     	mov	x1, x21
     abc: aa1403e2     	mov	x2, x20
     ac0: 94000000     	bl	0xac0 <__ZN67_$LT$alloc..vec..Vec$LT$T$C$A$GT$$u20$as$u20$core..clone..Clone$GT$5clone17hab11d58aa06546fcE+0x68>
     ac4: a9005a78     	stp	x24, x22, [x19]
     ac8: f9000a78     	str	x24, [x19, #16]
     acc: a9437bfd     	ldp	x29, x30, [sp, #48]
     ad0: a9424ff4     	ldp	x20, x19, [sp, #32]
     ad4: a94157f6     	ldp	x22, x21, [sp, #16]
     ad8: a8c45ff8     	ldp	x24, x23, [sp], #64
     adc: d65f03c0     	ret
     ae0: d2800017     	mov	x23, #0
     ae4: aa1703e0     	mov	x0, x23
     ae8: aa1403e1     	mov	x1, x20
     aec: 94000000     	bl	0xaec <__ZN67_$LT$alloc..vec..Vec$LT$T$C$A$GT$$u20$as$u20$core..clone..Clone$GT$5clone17hab11d58aa06546fcE+0x94>

0000000000000af0 <__ZN67_$LT$alloc..vec..Vec$LT$T$C$A$GT$$u20$as$u20$core..clone..Clone$GT$5clone17hb014ee0e8d644e0eE>:
     af0: d10243ff     	sub	sp, sp, #144
     af4: a9036ffc     	stp	x28, x27, [sp, #48]
     af8: a90467fa     	stp	x26, x25, [sp, #64]
     afc: a9055ff8     	stp	x24, x23, [sp, #80]
     b00: a90657f6     	stp	x22, x21, [sp, #96]
     b04: a9074ff4     	stp	x20, x19, [sp, #112]
     b08: a9087bfd     	stp	x29, x30, [sp, #128]
     b0c: 910203fd     	add	x29, sp, #128
     b10: f9400819     	ldr	x25, [x0, #16]
     b14: f9000be8     	str	x8, [sp, #16]
     b18: b4000659     	cbz	x25, 0xbe0 <__ZN67_$LT$alloc..vec..Vec$LT$T$C$A$GT$$u20$as$u20$core..clone..Clone$GT$5clone17hb014ee0e8d644e0eE+0xf0>
     b1c: d37beb34     	lsl	x20, x25, #5
     b20: d37aff29     	lsr	x9, x25, #58
     b24: b5000889     	cbnz	x9, 0xc34 <__ZN67_$LT$alloc..vec..Vec$LT$T$C$A$GT$$u20$as$u20$core..clone..Clone$GT$5clone17hb014ee0e8d644e0eE+0x144>
     b28: f940041b     	ldr	x27, [x0, #8]
     b2c: 90000008     	adrp	x8, 0x0 <__ZN67_$LT$alloc..vec..Vec$LT$T$C$A$GT$$u20$as$u20$core..clone..Clone$GT$5clone17hb014ee0e8d644e0eE+0x3c>
     b30: f9400108     	ldr	x8, [x8]
     b34: 3940011f     	ldrb	wzr, [x8]
     b38: 52800115     	mov	w21, #8
     b3c: aa1403e0     	mov	x0, x20
     b40: 52800101     	mov	w1, #8
     b44: 94000000     	bl	0xb44 <__ZN67_$LT$alloc..vec..Vec$LT$T$C$A$GT$$u20$as$u20$core..clone..Clone$GT$5clone17hb014ee0e8d644e0eE+0x54>
     b48: b4000780     	cbz	x0, 0xc38 <__ZN67_$LT$alloc..vec..Vec$LT$T$C$A$GT$$u20$as$u20$core..clone..Clone$GT$5clone17hb014ee0e8d644e0eE+0x148>
     b4c: d280001a     	mov	x26, #0
     b50: a90183f9     	stp	x25, x0, [sp, #24]
     b54: 91004015     	add	x21, x0, #16
     b58: 52800108     	mov	w8, #8
     b5c: f90007e8     	str	x8, [sp, #8]
     b60: 14000010     	b	0xba0 <__ZN67_$LT$alloc..vec..Vec$LT$T$C$A$GT$$u20$as$u20$core..clone..Clone$GT$5clone17hb014ee0e8d644e0eE+0xb0>
     b64: d2800018     	mov	x24, #0
     b68: 52800116     	mov	w22, #8
     b6c: 9100837b     	add	x27, x27, #32
     b70: 9100075a     	add	x26, x26, #1
     b74: aa1603e0     	mov	x0, x22
     b78: aa1703e1     	mov	x1, x23
     b7c: aa1803e2     	mov	x2, x24
     b80: 94000000     	bl	0xb80 <__ZN67_$LT$alloc..vec..Vec$LT$T$C$A$GT$$u20$as$u20$core..clone..Clone$GT$5clone17hb014ee0e8d644e0eE+0x90>
     b84: a93f5abc     	stp	x28, x22, [x21, #-16]
     b88: d1008294     	sub	x20, x20, #32
     b8c: f90002bc     	str	x28, [x21]
     b90: 390022b3     	strb	w19, [x21, #8]
     b94: 910082b5     	add	x21, x21, #32
     b98: eb1a033f     	cmp	x25, x26
     b9c: 54000260     	b.eq	0xbe8 <__ZN67_$LT$alloc..vec..Vec$LT$T$C$A$GT$$u20$as$u20$core..clone..Clone$GT$5clone17hb014ee0e8d644e0eE+0xf8>
     ba0: b4000254     	cbz	x20, 0xbe8 <__ZN67_$LT$alloc..vec..Vec$LT$T$C$A$GT$$u20$as$u20$core..clone..Clone$GT$5clone17hb014ee0e8d644e0eE+0xf8>
     ba4: 39406373     	ldrb	w19, [x27, #24]
     ba8: a940f377     	ldp	x23, x28, [x27, #8]
     bac: b4fffddc     	cbz	x28, 0xb64 <__ZN67_$LT$alloc..vec..Vec$LT$T$C$A$GT$$u20$as$u20$core..clone..Clone$GT$5clone17hb014ee0e8d644e0eE+0x74>
     bb0: d37cff88     	lsr	x8, x28, #60
     bb4: b5000368     	cbnz	x8, 0xc20 <__ZN67_$LT$alloc..vec..Vec$LT$T$C$A$GT$$u20$as$u20$core..clone..Clone$GT$5clone17hb014ee0e8d644e0eE+0x130>
     bb8: d37df398     	lsl	x24, x28, #3
     bbc: 90000008     	adrp	x8, 0x0 <__ZN67_$LT$alloc..vec..Vec$LT$T$C$A$GT$$u20$as$u20$core..clone..Clone$GT$5clone17hb014ee0e8d644e0eE+0xcc>
     bc0: f9400108     	ldr	x8, [x8]
     bc4: 3940011f     	ldrb	wzr, [x8]
     bc8: aa1803e0     	mov	x0, x24
     bcc: 52800101     	mov	w1, #8
     bd0: 94000000     	bl	0xbd0 <__ZN67_$LT$alloc..vec..Vec$LT$T$C$A$GT$$u20$as$u20$core..clone..Clone$GT$5clone17hb014ee0e8d644e0eE+0xe0>
     bd4: b4000220     	cbz	x0, 0xc18 <__ZN67_$LT$alloc..vec..Vec$LT$T$C$A$GT$$u20$as$u20$core..clone..Clone$GT$5clone17hb014ee0e8d644e0eE+0x128>
     bd8: aa0003f6     	mov	x22, x0
     bdc: 17ffffe4     	b	0xb6c <__ZN67_$LT$alloc..vec..Vec$LT$T$C$A$GT$$u20$as$u20$core..clone..Clone$GT$5clone17hb014ee0e8d644e0eE+0x7c>
     be0: 52800108     	mov	w8, #8
     be4: a901a3ff     	stp	xzr, x8, [sp, #24]
     be8: 3cc183e0     	ldur	q0, [sp, #24]
     bec: f9400be8     	ldr	x8, [sp, #16]
     bf0: 3d800100     	str	q0, [x8]
     bf4: f9000919     	str	x25, [x8, #16]
     bf8: a9487bfd     	ldp	x29, x30, [sp, #128]
     bfc: a9474ff4     	ldp	x20, x19, [sp, #112]
     c00: a94657f6     	ldp	x22, x21, [sp, #96]
     c04: a9455ff8     	ldp	x24, x23, [sp, #80]
     c08: a94467fa     	ldp	x26, x25, [sp, #64]
     c0c: a9436ffc     	ldp	x28, x27, [sp, #48]
     c10: 910243ff     	add	sp, sp, #144
     c14: d65f03c0     	ret
     c18: aa1803f6     	mov	x22, x24
     c1c: 14000002     	b	0xc24 <__ZN67_$LT$alloc..vec..Vec$LT$T$C$A$GT$$u20$as$u20$core..clone..Clone$GT$5clone17hb014ee0e8d644e0eE+0x134>
     c20: f90007ff     	str	xzr, [sp, #8]
     c24: f94007e0     	ldr	x0, [sp, #8]
     c28: aa1603e1     	mov	x1, x22
     c2c: 94000000     	bl	0xc2c <__ZN67_$LT$alloc..vec..Vec$LT$T$C$A$GT$$u20$as$u20$core..clone..Clone$GT$5clone17hb014ee0e8d644e0eE+0x13c>
     c30: d4200020     	brk	#0x1
     c34: d2800015     	mov	x21, #0
     c38: aa1503e0     	mov	x0, x21
     c3c: aa1403e1     	mov	x1, x20
     c40: 94000000     	bl	0xc40 <__ZN67_$LT$alloc..vec..Vec$LT$T$C$A$GT$$u20$as$u20$core..clone..Clone$GT$5clone17hb014ee0e8d644e0eE+0x150>
     c44: aa0003f3     	mov	x19, x0
     c48: f90017fa     	str	x26, [sp, #40]
     c4c: 910063e0     	add	x0, sp, #24
     c50: 94000000     	bl	0xc50 <__ZN67_$LT$alloc..vec..Vec$LT$T$C$A$GT$$u20$as$u20$core..clone..Clone$GT$5clone17hb014ee0e8d644e0eE+0x160>
     c54: aa1303e0     	mov	x0, x19
     c58: 94000000     	bl	0xc58 <__ZN67_$LT$alloc..vec..Vec$LT$T$C$A$GT$$u20$as$u20$core..clone..Clone$GT$5clone17hb014ee0e8d644e0eE+0x168>

0000000000000c5c <__ZN67_$LT$alloc..vec..Vec$LT$T$C$A$GT$$u20$as$u20$core..clone..Clone$GT$5clone17hcc729b9fb4557fbcE>:
     c5c: a9bc5ff8     	stp	x24, x23, [sp, #-64]!
     c60: a90157f6     	stp	x22, x21, [sp, #16]
     c64: a9024ff4     	stp	x20, x19, [sp, #32]
     c68: a9037bfd     	stp	x29, x30, [sp, #48]
     c6c: 9100c3fd     	add	x29, sp, #48
     c70: aa0803f3     	mov	x19, x8
     c74: a940e015     	ldp	x21, x24, [x0, #8]
     c78: b40001d8     	cbz	x24, 0xcb0 <__ZN67_$LT$alloc..vec..Vec$LT$T$C$A$GT$$u20$as$u20$core..clone..Clone$GT$5clone17hcc729b9fb4557fbcE+0x54>
     c7c: d37cef14     	lsl	x20, x24, #4
     c80: d37bff08     	lsr	x8, x24, #59
     c84: b5000308     	cbnz	x8, 0xce4 <__ZN67_$LT$alloc..vec..Vec$LT$T$C$A$GT$$u20$as$u20$core..clone..Clone$GT$5clone17hcc729b9fb4557fbcE+0x88>
     c88: 90000008     	adrp	x8, 0x0 <__ZN67_$LT$alloc..vec..Vec$LT$T$C$A$GT$$u20$as$u20$core..clone..Clone$GT$5clone17hcc729b9fb4557fbcE+0x2c>
     c8c: f9400108     	ldr	x8, [x8]
     c90: 3940011f     	ldrb	wzr, [x8]
     c94: 52800117     	mov	w23, #8
     c98: aa1403e0     	mov	x0, x20
     c9c: 52800101     	mov	w1, #8
     ca0: 94000000     	bl	0xca0 <__ZN67_$LT$alloc..vec..Vec$LT$T$C$A$GT$$u20$as$u20$core..clone..Clone$GT$5clone17hcc729b9fb4557fbcE+0x44>
     ca4: b4000220     	cbz	x0, 0xce8 <__ZN67_$LT$alloc..vec..Vec$LT$T$C$A$GT$$u20$as$u20$core..clone..Clone$GT$5clone17hcc729b9fb4557fbcE+0x8c>
     ca8: aa0003f6     	mov	x22, x0
     cac: 14000003     	b	0xcb8 <__ZN67_$LT$alloc..vec..Vec$LT$T$C$A$GT$$u20$as$u20$core..clone..Clone$GT$5clone17hcc729b9fb4557fbcE+0x5c>
     cb0: d2800014     	mov	x20, #0
     cb4: 52800116     	mov	w22, #8
     cb8: aa1603e0     	mov	x0, x22
     cbc: aa1503e1     	mov	x1, x21
     cc0: aa1403e2     	mov	x2, x20
     cc4: 94000000     	bl	0xcc4 <__ZN67_$LT$alloc..vec..Vec$LT$T$C$A$GT$$u20$as$u20$core..clone..Clone$GT$5clone17hcc729b9fb4557fbcE+0x68>
     cc8: a9005a78     	stp	x24, x22, [x19]
     ccc: f9000a78     	str	x24, [x19, #16]
     cd0: a9437bfd     	ldp	x29, x30, [sp, #48]
     cd4: a9424ff4     	ldp	x20, x19, [sp, #32]
     cd8: a94157f6     	ldp	x22, x21, [sp, #16]
     cdc: a8c45ff8     	ldp	x24, x23, [sp], #64
     ce0: d65f03c0     	ret
     ce4: d2800017     	mov	x23, #0
     ce8: aa1703e0     	mov	x0, x23
     cec: aa1403e1     	mov	x1, x20
     cf0: 94000000     	bl	0xcf0 <__ZN67_$LT$alloc..vec..Vec$LT$T$C$A$GT$$u20$as$u20$core..clone..Clone$GT$5clone17hcc729b9fb4557fbcE+0x94>

0000000000000cf4 <__ZN70_$LT$alloc..vec..Vec$LT$T$C$A$GT$$u20$as$u20$core..ops..drop..Drop$GT$4drop17hf31967d6c9873b43E>:
     cf4: d65f03c0     	ret

0000000000000cf8 <__ZN70_$LT$alloc..vec..Vec$LT$T$C$A$GT$$u20$as$u20$core..ops..drop..Drop$GT$4drop17h5ce4ab6eeaae6f7aE>:
     cf8: a9be4ff4     	stp	x20, x19, [sp, #-32]!
     cfc: a9017bfd     	stp	x29, x30, [sp, #16]
     d00: 910043fd     	add	x29, sp, #16
     d04: f9400813     	ldr	x19, [x0, #16]
     d08: b40001d3     	cbz	x19, 0xd40 <__ZN70_$LT$alloc..vec..Vec$LT$T$C$A$GT$$u20$as$u20$core..ops..drop..Drop$GT$4drop17h5ce4ab6eeaae6f7aE+0x48>
     d0c: f9400408     	ldr	x8, [x0, #8]
     d10: 91002114     	add	x20, x8, #8
     d14: 14000004     	b	0xd24 <__ZN70_$LT$alloc..vec..Vec$LT$T$C$A$GT$$u20$as$u20$core..ops..drop..Drop$GT$4drop17h5ce4ab6eeaae6f7aE+0x2c>
     d18: 91008294     	add	x20, x20, #32
     d1c: f1000673     	subs	x19, x19, #1
     d20: 54000100     	b.eq	0xd40 <__ZN70_$LT$alloc..vec..Vec$LT$T$C$A$GT$$u20$as$u20$core..ops..drop..Drop$GT$4drop17h5ce4ab6eeaae6f7aE+0x48>
     d24: f85f8288     	ldur	x8, [x20, #-8]
     d28: b4ffff88     	cbz	x8, 0xd18 <__ZN70_$LT$alloc..vec..Vec$LT$T$C$A$GT$$u20$as$u20$core..ops..drop..Drop$GT$4drop17h5ce4ab6eeaae6f7aE+0x20>
     d2c: f9400280     	ldr	x0, [x20]
     d30: d37df101     	lsl	x1, x8, #3
     d34: 52800102     	mov	w2, #8
     d38: 94000000     	bl	0xd38 <__ZN70_$LT$alloc..vec..Vec$LT$T$C$A$GT$$u20$as$u20$core..ops..drop..Drop$GT$4drop17h5ce4ab6eeaae6f7aE+0x40>
     d3c: 17fffff7     	b	0xd18 <__ZN70_$LT$alloc..vec..Vec$LT$T$C$A$GT$$u20$as$u20$core..ops..drop..Drop$GT$4drop17h5ce4ab6eeaae6f7aE+0x20>
     d40: a9417bfd     	ldp	x29, x30, [sp, #16]
     d44: a8c24ff4     	ldp	x20, x19, [sp], #32
     d48: d65f03c0     	ret

0000000000000d4c <__ZN98_$LT$alloc..vec..Vec$LT$T$GT$$u20$as$u20$alloc..vec..spec_from_iter..SpecFromIter$LT$T$C$I$GT$$GT$9from_iter17h08e6a79e31427c96E>:
     d4c: d101c3ff     	sub	sp, sp, #112
     d50: a9035ff8     	stp	x24, x23, [sp, #48]
     d54: a90457f6     	stp	x22, x21, [sp, #64]
     d58: a9054ff4     	stp	x20, x19, [sp, #80]
     d5c: a9067bfd     	stp	x29, x30, [sp, #96]
     d60: 910183fd     	add	x29, sp, #96
     d64: aa0803f3     	mov	x19, x8
     d68: eb000038     	subs	x24, x1, x0
     d6c: 54000280     	b.eq	0xdbc <__ZN98_$LT$alloc..vec..Vec$LT$T$GT$$u20$as$u20$alloc..vec..spec_from_iter..SpecFromIter$LT$T$C$I$GT$$GT$9from_iter17h08e6a79e31427c96E+0x70>
     d70: d37ffb14     	lsl	x20, x24, #1
     d74: b27ce7e8     	mov	x8, #4611686018427387888
     d78: eb08031f     	cmp	x24, x8
     d7c: 54000468     	b.hi	0xe08 <__ZN98_$LT$alloc..vec..Vec$LT$T$GT$$u20$as$u20$alloc..vec..spec_from_iter..SpecFromIter$LT$T$C$I$GT$$GT$9from_iter17h08e6a79e31427c96E+0xbc>
     d80: aa0003f6     	mov	x22, x0
     d84: aa0103f7     	mov	x23, x1
     d88: 90000008     	adrp	x8, 0x0 <__ZN98_$LT$alloc..vec..Vec$LT$T$GT$$u20$as$u20$alloc..vec..spec_from_iter..SpecFromIter$LT$T$C$I$GT$$GT$9from_iter17h08e6a79e31427c96E+0x3c>
     d8c: f9400108     	ldr	x8, [x8]
     d90: 3940011f     	ldrb	wzr, [x8]
     d94: 52800115     	mov	w21, #8
     d98: aa1403e0     	mov	x0, x20
     d9c: 52800101     	mov	w1, #8
     da0: 94000000     	bl	0xda0 <__ZN98_$LT$alloc..vec..Vec$LT$T$GT$$u20$as$u20$alloc..vec..spec_from_iter..SpecFromIter$LT$T$C$I$GT$$GT$9from_iter17h08e6a79e31427c96E+0x54>
     da4: b4000340     	cbz	x0, 0xe0c <__ZN98_$LT$alloc..vec..Vec$LT$T$GT$$u20$as$u20$alloc..vec..spec_from_iter..SpecFromIter$LT$T$C$I$GT$$GT$9from_iter17h08e6a79e31427c96E+0xc0>
     da8: aa0003e8     	mov	x8, x0
     dac: d344ff09     	lsr	x9, x24, #4
     db0: aa1703e1     	mov	x1, x23
     db4: aa1603e0     	mov	x0, x22
     db8: 14000003     	b	0xdc4 <__ZN98_$LT$alloc..vec..Vec$LT$T$GT$$u20$as$u20$alloc..vec..spec_from_iter..SpecFromIter$LT$T$C$I$GT$$GT$9from_iter17h08e6a79e31427c96E+0x78>
     dbc: d2800009     	mov	x9, #0
     dc0: 52800108     	mov	w8, #8
     dc4: a90023e9     	stp	x9, x8, [sp]
     dc8: 910003e9     	mov	x9, sp
     dcc: 91004129     	add	x9, x9, #16
     dd0: a90127ff     	stp	xzr, x9, [sp, #16]
     dd4: a90223ff     	stp	xzr, x8, [sp, #32]
     dd8: 910063e2     	add	x2, sp, #24
     ddc: 94000000     	bl	0xddc <__ZN98_$LT$alloc..vec..Vec$LT$T$GT$$u20$as$u20$alloc..vec..spec_from_iter..SpecFromIter$LT$T$C$I$GT$$GT$9from_iter17h08e6a79e31427c96E+0x90>
     de0: 3dc003e0     	ldr	q0, [sp]
     de4: 3d800260     	str	q0, [x19]
     de8: f9400be8     	ldr	x8, [sp, #16]
     dec: f9000a68     	str	x8, [x19, #16]
     df0: a9467bfd     	ldp	x29, x30, [sp, #96]
     df4: a9454ff4     	ldp	x20, x19, [sp, #80]
     df8: a94457f6     	ldp	x22, x21, [sp, #64]
     dfc: a9435ff8     	ldp	x24, x23, [sp, #48]
     e00: 9101c3ff     	add	sp, sp, #112
     e04: d65f03c0     	ret
     e08: d2800015     	mov	x21, #0
     e0c: aa1503e0     	mov	x0, x21
     e10: aa1403e1     	mov	x1, x20
     e14: 94000000     	bl	0xe14 <__ZN98_$LT$alloc..vec..Vec$LT$T$GT$$u20$as$u20$alloc..vec..spec_from_iter..SpecFromIter$LT$T$C$I$GT$$GT$9from_iter17h08e6a79e31427c96E+0xc8>
     e18: aa0003f3     	mov	x19, x0
     e1c: 910003e0     	mov	x0, sp
     e20: 94000000     	bl	0xe20 <__ZN98_$LT$alloc..vec..Vec$LT$T$GT$$u20$as$u20$alloc..vec..spec_from_iter..SpecFromIter$LT$T$C$I$GT$$GT$9from_iter17h08e6a79e31427c96E+0xd4>
     e24: aa1303e0     	mov	x0, x19
     e28: 94000000     	bl	0xe28 <__ZN98_$LT$alloc..vec..Vec$LT$T$GT$$u20$as$u20$alloc..vec..spec_from_iter..SpecFromIter$LT$T$C$I$GT$$GT$9from_iter17h08e6a79e31427c96E+0xdc>

0000000000000e2c <__ZN98_$LT$alloc..vec..Vec$LT$T$GT$$u20$as$u20$alloc..vec..spec_from_iter..SpecFromIter$LT$T$C$I$GT$$GT$9from_iter17h09f4f81475aa929cE>:
     e2c: d10243ff     	sub	sp, sp, #144
     e30: a9055ff8     	stp	x24, x23, [sp, #80]
     e34: a90657f6     	stp	x22, x21, [sp, #96]
     e38: a9074ff4     	stp	x20, x19, [sp, #112]
     e3c: a9087bfd     	stp	x29, x30, [sp, #128]
     e40: 910203fd     	add	x29, sp, #128
     e44: aa0003f4     	mov	x20, x0
     e48: aa0803f3     	mov	x19, x8
     e4c: a9405c16     	ldp	x22, x23, [x0]
     e50: eb1602f8     	subs	x24, x23, x22
     e54: 54000180     	b.eq	0xe84 <__ZN98_$LT$alloc..vec..Vec$LT$T$GT$$u20$as$u20$alloc..vec..spec_from_iter..SpecFromIter$LT$T$C$I$GT$$GT$9from_iter17h09f4f81475aa929cE+0x58>
     e58: d341ff15     	lsr	x21, x24, #1
     e5c: 90000008     	adrp	x8, 0x0 <__ZN98_$LT$alloc..vec..Vec$LT$T$GT$$u20$as$u20$alloc..vec..spec_from_iter..SpecFromIter$LT$T$C$I$GT$$GT$9from_iter17h09f4f81475aa929cE+0x30>
     e60: f9400108     	ldr	x8, [x8]
     e64: 3940011f     	ldrb	wzr, [x8]
     e68: aa1503e0     	mov	x0, x21
     e6c: 52800101     	mov	w1, #8
     e70: 94000000     	bl	0xe70 <__ZN98_$LT$alloc..vec..Vec$LT$T$GT$$u20$as$u20$alloc..vec..spec_from_iter..SpecFromIter$LT$T$C$I$GT$$GT$9from_iter17h09f4f81475aa929cE+0x44>
     e74: b4000340     	cbz	x0, 0xedc <__ZN98_$LT$alloc..vec..Vec$LT$T$GT$$u20$as$u20$alloc..vec..spec_from_iter..SpecFromIter$LT$T$C$I$GT$$GT$9from_iter17h09f4f81475aa929cE+0xb0>
     e78: d345ff08     	lsr	x8, x24, #5
     e7c: f90007e8     	str	x8, [sp, #8]
     e80: 14000003     	b	0xe8c <__ZN98_$LT$alloc..vec..Vec$LT$T$GT$$u20$as$u20$alloc..vec..spec_from_iter..SpecFromIter$LT$T$C$I$GT$$GT$9from_iter17h09f4f81475aa929cE+0x60>
     e84: 52800100     	mov	w0, #8
     e88: f90007ff     	str	xzr, [sp, #8]
     e8c: a9017fe0     	stp	x0, xzr, [sp, #16]
     e90: 910023e8     	add	x8, sp, #8
     e94: 91004108     	add	x8, x8, #16
     e98: f9400a89     	ldr	x9, [x20, #16]
     e9c: a9025ff6     	stp	x22, x23, [sp, #32]
     ea0: a90323e9     	stp	x9, x8, [sp, #48]
     ea4: a90403ff     	stp	xzr, x0, [sp, #64]
     ea8: 910083e0     	add	x0, sp, #32
     eac: 9100e3e1     	add	x1, sp, #56
     eb0: 94000000     	bl	0xeb0 <__ZN98_$LT$alloc..vec..Vec$LT$T$GT$$u20$as$u20$alloc..vec..spec_from_iter..SpecFromIter$LT$T$C$I$GT$$GT$9from_iter17h09f4f81475aa929cE+0x84>
     eb4: 3cc083e0     	ldur	q0, [sp, #8]
     eb8: 3d800260     	str	q0, [x19]
     ebc: f9400fe8     	ldr	x8, [sp, #24]
     ec0: f9000a68     	str	x8, [x19, #16]
     ec4: a9487bfd     	ldp	x29, x30, [sp, #128]
     ec8: a9474ff4     	ldp	x20, x19, [sp, #112]
     ecc: a94657f6     	ldp	x22, x21, [sp, #96]
     ed0: a9455ff8     	ldp	x24, x23, [sp, #80]
     ed4: 910243ff     	add	sp, sp, #144
     ed8: d65f03c0     	ret
     edc: 52800100     	mov	w0, #8
     ee0: aa1503e1     	mov	x1, x21
     ee4: 94000000     	bl	0xee4 <__ZN98_$LT$alloc..vec..Vec$LT$T$GT$$u20$as$u20$alloc..vec..spec_from_iter..SpecFromIter$LT$T$C$I$GT$$GT$9from_iter17h09f4f81475aa929cE+0xb8>
     ee8: aa0003f3     	mov	x19, x0
     eec: f94007e8     	ldr	x8, [sp, #8]
     ef0: b40000a8     	cbz	x8, 0xf04 <__ZN98_$LT$alloc..vec..Vec$LT$T$GT$$u20$as$u20$alloc..vec..spec_from_iter..SpecFromIter$LT$T$C$I$GT$$GT$9from_iter17h09f4f81475aa929cE+0xd8>
     ef4: f9400be0     	ldr	x0, [sp, #16]
     ef8: d37ced01     	lsl	x1, x8, #4
     efc: 52800102     	mov	w2, #8
     f00: 94000000     	bl	0xf00 <__ZN98_$LT$alloc..vec..Vec$LT$T$GT$$u20$as$u20$alloc..vec..spec_from_iter..SpecFromIter$LT$T$C$I$GT$$GT$9from_iter17h09f4f81475aa929cE+0xd4>
     f04: aa1303e0     	mov	x0, x19
     f08: 94000000     	bl	0xf08 <__ZN98_$LT$alloc..vec..Vec$LT$T$GT$$u20$as$u20$alloc..vec..spec_from_iter..SpecFromIter$LT$T$C$I$GT$$GT$9from_iter17h09f4f81475aa929cE+0xdc>

0000000000000f0c <__ZN98_$LT$alloc..vec..Vec$LT$T$GT$$u20$as$u20$alloc..vec..spec_from_iter..SpecFromIter$LT$T$C$I$GT$$GT$9from_iter17h56a57547d41db0f9E>:
     f0c: a9bc5ff8     	stp	x24, x23, [sp, #-64]!
     f10: a90157f6     	stp	x22, x21, [sp, #16]
     f14: a9024ff4     	stp	x20, x19, [sp, #32]
     f18: a9037bfd     	stp	x29, x30, [sp, #48]
     f1c: 9100c3fd     	add	x29, sp, #48
     f20: aa0803f3     	mov	x19, x8
     f24: eb000037     	subs	x23, x1, x0
     f28: 540003e0     	b.eq	0xfa4 <__ZN98_$LT$alloc..vec..Vec$LT$T$GT$$u20$as$u20$alloc..vec..spec_from_iter..SpecFromIter$LT$T$C$I$GT$$GT$9from_iter17h56a57547d41db0f9E+0x98>
     f2c: d37df2f5     	lsl	x21, x23, #3
     f30: b27febe8     	mov	x8, #1152921504606846974
     f34: eb0802ff     	cmp	x23, x8
     f38: 54000a28     	b.hi	0x107c <__ZN98_$LT$alloc..vec..Vec$LT$T$GT$$u20$as$u20$alloc..vec..spec_from_iter..SpecFromIter$LT$T$C$I$GT$$GT$9from_iter17h56a57547d41db0f9E+0x170>
     f3c: aa0003f4     	mov	x20, x0
     f40: 90000008     	adrp	x8, 0x0 <__ZN98_$LT$alloc..vec..Vec$LT$T$GT$$u20$as$u20$alloc..vec..spec_from_iter..SpecFromIter$LT$T$C$I$GT$$GT$9from_iter17h56a57547d41db0f9E+0x34>
     f44: f9400108     	ldr	x8, [x8]
     f48: 3940011f     	ldrb	wzr, [x8]
     f4c: 52800116     	mov	w22, #8
     f50: aa1503e0     	mov	x0, x21
     f54: 52800101     	mov	w1, #8
     f58: 94000000     	bl	0xf58 <__ZN98_$LT$alloc..vec..Vec$LT$T$GT$$u20$as$u20$alloc..vec..spec_from_iter..SpecFromIter$LT$T$C$I$GT$$GT$9from_iter17h56a57547d41db0f9E+0x4c>
     f5c: b4000920     	cbz	x0, 0x1080 <__ZN98_$LT$alloc..vec..Vec$LT$T$GT$$u20$as$u20$alloc..vec..spec_from_iter..SpecFromIter$LT$T$C$I$GT$$GT$9from_iter17h56a57547d41db0f9E+0x174>
     f60: d341fee8     	lsr	x8, x23, #1
     f64: f10082ff     	cmp	x23, #32
     f68: 54000302     	b.hs	0xfc8 <__ZN98_$LT$alloc..vec..Vec$LT$T$GT$$u20$as$u20$alloc..vec..spec_from_iter..SpecFromIter$LT$T$C$I$GT$$GT$9from_iter17h56a57547d41db0f9E+0xbc>
     f6c: d2800009     	mov	x9, #0
     f70: d37ff92a     	lsl	x10, x9, #1
     f74: cb090109     	sub	x9, x8, x9
     f78: 786a6a8b     	ldrh	w11, [x20, x10]
     f7c: 4b0b03eb     	neg	w11, w11
     f80: 13003d6b     	sxth	w11, w11
     f84: 1e620160     	scvtf	d0, w11
     f88: 8b0a0c0b     	add	x11, x0, x10, lsl #3
     f8c: fd000160     	str	d0, [x11]
     f90: f900057f     	str	xzr, [x11, #8]
     f94: 9100094a     	add	x10, x10, #2
     f98: f1000529     	subs	x9, x9, #1
     f9c: 54fffee1     	b.ne	0xf78 <__ZN98_$LT$alloc..vec..Vec$LT$T$GT$$u20$as$u20$alloc..vec..spec_from_iter..SpecFromIter$LT$T$C$I$GT$$GT$9from_iter17h56a57547d41db0f9E+0x6c>
     fa0: 14000003     	b	0xfac <__ZN98_$LT$alloc..vec..Vec$LT$T$GT$$u20$as$u20$alloc..vec..spec_from_iter..SpecFromIter$LT$T$C$I$GT$$GT$9from_iter17h56a57547d41db0f9E+0xa0>
     fa4: d2800008     	mov	x8, #0
     fa8: 52800100     	mov	w0, #8
     fac: a9000268     	stp	x8, x0, [x19]
     fb0: f9000a68     	str	x8, [x19, #16]
     fb4: a9437bfd     	ldp	x29, x30, [sp, #48]
     fb8: a9424ff4     	ldp	x20, x19, [sp, #32]
     fbc: a94157f6     	ldp	x22, x21, [sp, #16]
     fc0: a8c45ff8     	ldp	x24, x23, [sp], #64
     fc4: d65f03c0     	ret
     fc8: d2800009     	mov	x9, #0
     fcc: d100050a     	sub	x10, x8, #1
     fd0: d37ced4b     	lsl	x11, x10, #4
     fd4: 8b0b000c     	add	x12, x0, x11
     fd8: eb00019f     	cmp	x12, x0
     fdc: 54fffca3     	b.lo	0xf70 <__ZN98_$LT$alloc..vec..Vec$LT$T$GT$$u20$as$u20$alloc..vec..spec_from_iter..SpecFromIter$LT$T$C$I$GT$$GT$9from_iter17h56a57547d41db0f9E+0x64>
     fe0: 9100200c     	add	x12, x0, #8
     fe4: 8b0b018b     	add	x11, x12, x11
     fe8: eb0c017f     	cmp	x11, x12
     fec: 54fffc23     	b.lo	0xf70 <__ZN98_$LT$alloc..vec..Vec$LT$T$GT$$u20$as$u20$alloc..vec..spec_from_iter..SpecFromIter$LT$T$C$I$GT$$GT$9from_iter17h56a57547d41db0f9E+0x64>
     ff0: d37cfd4a     	lsr	x10, x10, #60
     ff4: b5fffbea     	cbnz	x10, 0xf70 <__ZN98_$LT$alloc..vec..Vec$LT$T$GT$$u20$as$u20$alloc..vec..spec_from_iter..SpecFromIter$LT$T$C$I$GT$$GT$9from_iter17h56a57547d41db0f9E+0x64>
     ff8: 927ddd09     	and	x9, x8, #0x7fffffffffffff8
     ffc: 6f00e401     	movi.2d	v1, #0000000000000000
    1000: aa0903ea     	mov	x10, x9
    1004: aa1403eb     	mov	x11, x20
    1008: aa0003ec     	mov	x12, x0
    100c: 3cc10562     	ldr	q2, [x11], #16
    1010: 6e60b842     	neg.8h	v2, v2
    1014: 4f10a443     	sshll2.4s	v3, v2, #0
    1018: 4f20a464     	sshll2.2d	v4, v3, #0
    101c: 4e61d880     	scvtf.2d	v0, v4
    1020: 0f20a463     	sshll.2d	v3, v3, #0
    1024: 4e61d863     	scvtf.2d	v3, v3
    1028: 4ea11c24     	mov.16b	v4, v1
    102c: 0f10a442     	sshll.4s	v2, v2, #0
    1030: 4f20a445     	sshll2.2d	v5, v2, #0
    1034: 0f20a442     	sshll.2d	v2, v2, #0
    1038: 4e61d846     	scvtf.2d	v6, v2
    103c: 4ea11c27     	mov.16b	v7, v1
    1040: aa0c03ed     	mov	x13, x12
    1044: 4c9f8da6     	st2.2d	{ v6, v7 }, [x13], #32
    1048: 4e61d8a5     	scvtf.2d	v5, v5
    104c: 4ea11c26     	mov.16b	v6, v1
    1050: 4c008da5     	st2.2d	{ v5, v6 }, [x13]
    1054: 9101018d     	add	x13, x12, #64
    1058: 4c008da3     	st2.2d	{ v3, v4 }, [x13]
    105c: 9101818d     	add	x13, x12, #96
    1060: 4c008da0     	st2.2d	{ v0, v1 }, [x13]
    1064: 9102018c     	add	x12, x12, #128
    1068: f100214a     	subs	x10, x10, #8
    106c: 54fffd01     	b.ne	0x100c <__ZN98_$LT$alloc..vec..Vec$LT$T$GT$$u20$as$u20$alloc..vec..spec_from_iter..SpecFromIter$LT$T$C$I$GT$$GT$9from_iter17h56a57547d41db0f9E+0x100>
    1070: eb09011f     	cmp	x8, x9
    1074: 54fff7e1     	b.ne	0xf70 <__ZN98_$LT$alloc..vec..Vec$LT$T$GT$$u20$as$u20$alloc..vec..spec_from_iter..SpecFromIter$LT$T$C$I$GT$$GT$9from_iter17h56a57547d41db0f9E+0x64>
    1078: 17ffffcd     	b	0xfac <__ZN98_$LT$alloc..vec..Vec$LT$T$GT$$u20$as$u20$alloc..vec..spec_from_iter..SpecFromIter$LT$T$C$I$GT$$GT$9from_iter17h56a57547d41db0f9E+0xa0>
    107c: d2800016     	mov	x22, #0
    1080: aa1603e0     	mov	x0, x22
    1084: aa1503e1     	mov	x1, x21
    1088: 94000000     	bl	0x1088 <__ZN98_$LT$alloc..vec..Vec$LT$T$GT$$u20$as$u20$alloc..vec..spec_from_iter..SpecFromIter$LT$T$C$I$GT$$GT$9from_iter17h56a57547d41db0f9E+0x17c>

000000000000108c <__ZN98_$LT$alloc..vec..Vec$LT$T$GT$$u20$as$u20$alloc..vec..spec_from_iter..SpecFromIter$LT$T$C$I$GT$$GT$9from_iter17he4c4d48ac98a9ae7E>:
    108c: a9bc5ff8     	stp	x24, x23, [sp, #-64]!
    1090: a90157f6     	stp	x22, x21, [sp, #16]
    1094: a9024ff4     	stp	x20, x19, [sp, #32]
    1098: a9037bfd     	stp	x29, x30, [sp, #48]
    109c: 9100c3fd     	add	x29, sp, #48
    10a0: aa0803f3     	mov	x19, x8
    10a4: eb000037     	subs	x23, x1, x0
    10a8: 540003e0     	b.eq	0x1124 <__ZN98_$LT$alloc..vec..Vec$LT$T$GT$$u20$as$u20$alloc..vec..spec_from_iter..SpecFromIter$LT$T$C$I$GT$$GT$9from_iter17he4c4d48ac98a9ae7E+0x98>
    10ac: d37df2f5     	lsl	x21, x23, #3
    10b0: b27febe8     	mov	x8, #1152921504606846974
    10b4: eb0802ff     	cmp	x23, x8
    10b8: 54000a08     	b.hi	0x11f8 <__ZN98_$LT$alloc..vec..Vec$LT$T$GT$$u20$as$u20$alloc..vec..spec_from_iter..SpecFromIter$LT$T$C$I$GT$$GT$9from_iter17he4c4d48ac98a9ae7E+0x16c>
    10bc: aa0003f4     	mov	x20, x0
    10c0: 90000008     	adrp	x8, 0x1000 <__ZN98_$LT$alloc..vec..Vec$LT$T$GT$$u20$as$u20$alloc..vec..spec_from_iter..SpecFromIter$LT$T$C$I$GT$$GT$9from_iter17he4c4d48ac98a9ae7E+0x34>
    10c4: f9400108     	ldr	x8, [x8]
    10c8: 3940011f     	ldrb	wzr, [x8]
    10cc: 52800116     	mov	w22, #8
    10d0: aa1503e0     	mov	x0, x21
    10d4: 52800101     	mov	w1, #8
    10d8: 94000000     	bl	0x10d8 <__ZN98_$LT$alloc..vec..Vec$LT$T$GT$$u20$as$u20$alloc..vec..spec_from_iter..SpecFromIter$LT$T$C$I$GT$$GT$9from_iter17he4c4d48ac98a9ae7E+0x4c>
    10dc: b4000900     	cbz	x0, 0x11fc <__ZN98_$LT$alloc..vec..Vec$LT$T$GT$$u20$as$u20$alloc..vec..spec_from_iter..SpecFromIter$LT$T$C$I$GT$$GT$9from_iter17he4c4d48ac98a9ae7E+0x170>
    10e0: d341fee8     	lsr	x8, x23, #1
    10e4: f10082ff     	cmp	x23, #32
    10e8: 54000302     	b.hs	0x1148 <__ZN98_$LT$alloc..vec..Vec$LT$T$GT$$u20$as$u20$alloc..vec..spec_from_iter..SpecFromIter$LT$T$C$I$GT$$GT$9from_iter17he4c4d48ac98a9ae7E+0xbc>
    10ec: d2800009     	mov	x9, #0
    10f0: d37ff92a     	lsl	x10, x9, #1
    10f4: cb090109     	sub	x9, x8, x9
    10f8: 7c6a6a80     	ldr	h0, [x20, x10]
    10fc: 0f10a400     	sshll.4s	v0, v0, #0
    1100: 0f20a400     	sshll.2d	v0, v0, #0
    1104: 5e61d800     	scvtf	d0, d0
    1108: 8b0a0c0b     	add	x11, x0, x10, lsl #3
    110c: fd000160     	str	d0, [x11]
    1110: f900057f     	str	xzr, [x11, #8]
    1114: 9100094a     	add	x10, x10, #2
    1118: f1000529     	subs	x9, x9, #1
    111c: 54fffee1     	b.ne	0x10f8 <__ZN98_$LT$alloc..vec..Vec$LT$T$GT$$u20$as$u20$alloc..vec..spec_from_iter..SpecFromIter$LT$T$C$I$GT$$GT$9from_iter17he4c4d48ac98a9ae7E+0x6c>
    1120: 14000003     	b	0x112c <__ZN98_$LT$alloc..vec..Vec$LT$T$GT$$u20$as$u20$alloc..vec..spec_from_iter..SpecFromIter$LT$T$C$I$GT$$GT$9from_iter17he4c4d48ac98a9ae7E+0xa0>
    1124: d2800008     	mov	x8, #0
    1128: 52800100     	mov	w0, #8
    112c: a9000268     	stp	x8, x0, [x19]
    1130: f9000a68     	str	x8, [x19, #16]
    1134: a9437bfd     	ldp	x29, x30, [sp, #48]
    1138: a9424ff4     	ldp	x20, x19, [sp, #32]
    113c: a94157f6     	ldp	x22, x21, [sp, #16]
    1140: a8c45ff8     	ldp	x24, x23, [sp], #64
    1144: d65f03c0     	ret
    1148: d2800009     	mov	x9, #0
    114c: d100050a     	sub	x10, x8, #1
    1150: d37ced4b     	lsl	x11, x10, #4
    1154: 8b0b000c     	add	x12, x0, x11
    1158: eb00019f     	cmp	x12, x0
    115c: 54fffca3     	b.lo	0x10f0 <__ZN98_$LT$alloc..vec..Vec$LT$T$GT$$u20$as$u20$alloc..vec..spec_from_iter..SpecFromIter$LT$T$C$I$GT$$GT$9from_iter17he4c4d48ac98a9ae7E+0x64>
    1160: 9100200c     	add	x12, x0, #8
    1164: 8b0b018b     	add	x11, x12, x11
    1168: eb0c017f     	cmp	x11, x12
    116c: 54fffc23     	b.lo	0x10f0 <__ZN98_$LT$alloc..vec..Vec$LT$T$GT$$u20$as$u20$alloc..vec..spec_from_iter..SpecFromIter$LT$T$C$I$GT$$GT$9from_iter17he4c4d48ac98a9ae7E+0x64>
    1170: d37cfd4a     	lsr	x10, x10, #60
    1174: b5fffbea     	cbnz	x10, 0x10f0 <__ZN98_$LT$alloc..vec..Vec$LT$T$GT$$u20$as$u20$alloc..vec..spec_from_iter..SpecFromIter$LT$T$C$I$GT$$GT$9from_iter17he4c4d48ac98a9ae7E+0x64>
    1178: 927ddd09     	and	x9, x8, #0x7fffffffffffff8
    117c: 6f00e401     	movi.2d	v1, #0000000000000000
    1180: aa0903ea     	mov	x10, x9
    1184: aa1403eb     	mov	x11, x20
    1188: aa0003ec     	mov	x12, x0
    118c: 3cc10562     	ldr	q2, [x11], #16
    1190: 4f10a443     	sshll2.4s	v3, v2, #0
    1194: 4f20a464     	sshll2.2d	v4, v3, #0
    1198: 4e61d880     	scvtf.2d	v0, v4
    119c: 0f20a463     	sshll.2d	v3, v3, #0
    11a0: 4e61d863     	scvtf.2d	v3, v3
    11a4: 4ea11c24     	mov.16b	v4, v1
    11a8: 0f10a442     	sshll.4s	v2, v2, #0
    11ac: 4f20a445     	sshll2.2d	v5, v2, #0
    11b0: 0f20a442     	sshll.2d	v2, v2, #0
    11b4: 4e61d846     	scvtf.2d	v6, v2
    11b8: 4ea11c27     	mov.16b	v7, v1
    11bc: aa0c03ed     	mov	x13, x12
    11c0: 4c9f8da6     	st2.2d	{ v6, v7 }, [x13], #32
    11c4: 4e61d8a5     	scvtf.2d	v5, v5
    11c8: 4ea11c26     	mov.16b	v6, v1
    11cc: 4c008da5     	st2.2d	{ v5, v6 }, [x13]
    11d0: 9101018d     	add	x13, x12, #64
    11d4: 4c008da3     	st2.2d	{ v3, v4 }, [x13]
    11d8: 9101818d     	add	x13, x12, #96
    11dc: 4c008da0     	st2.2d	{ v0, v1 }, [x13]
    11e0: 9102018c     	add	x12, x12, #128
    11e4: f100214a     	subs	x10, x10, #8
    11e8: 54fffd21     	b.ne	0x118c <__ZN98_$LT$alloc..vec..Vec$LT$T$GT$$u20$as$u20$alloc..vec..spec_from_iter..SpecFromIter$LT$T$C$I$GT$$GT$9from_iter17he4c4d48ac98a9ae7E+0x100>
    11ec: eb09011f     	cmp	x8, x9
    11f0: 54fff801     	b.ne	0x10f0 <__ZN98_$LT$alloc..vec..Vec$LT$T$GT$$u20$as$u20$alloc..vec..spec_from_iter..SpecFromIter$LT$T$C$I$GT$$GT$9from_iter17he4c4d48ac98a9ae7E+0x64>
    11f4: 17ffffce     	b	0x112c <__ZN98_$LT$alloc..vec..Vec$LT$T$GT$$u20$as$u20$alloc..vec..spec_from_iter..SpecFromIter$LT$T$C$I$GT$$GT$9from_iter17he4c4d48ac98a9ae7E+0xa0>
    11f8: d2800016     	mov	x22, #0
    11fc: aa1603e0     	mov	x0, x22
    1200: aa1503e1     	mov	x1, x21
    1204: 94000000     	bl	0x1204 <__ZN98_$LT$alloc..vec..Vec$LT$T$GT$$u20$as$u20$alloc..vec..spec_from_iter..SpecFromIter$LT$T$C$I$GT$$GT$9from_iter17he4c4d48ac98a9ae7E+0x178>

0000000000001208 <__ZN98_$LT$alloc..vec..Vec$LT$T$GT$$u20$as$u20$alloc..vec..spec_from_iter..SpecFromIter$LT$T$C$I$GT$$GT$9from_iter17h62ff7b1e105d18c4E>:
    1208: a9bd57f6     	stp	x22, x21, [sp, #-48]!
    120c: a9014ff4     	stp	x20, x19, [sp, #16]
    1210: a9027bfd     	stp	x29, x30, [sp, #32]
    1214: 910083fd     	add	x29, sp, #32
    1218: aa0803f3     	mov	x19, x8
    121c: eb000035     	subs	x21, x1, x0
    1220: 54000380     	b.eq	0x1290 <__ZN98_$LT$alloc..vec..Vec$LT$T$GT$$u20$as$u20$alloc..vec..spec_from_iter..SpecFromIter$LT$T$C$I$GT$$GT$9from_iter17h62ff7b1e105d18c4E+0x88>
    1224: b27cebe8     	mov	x8, #9223372036854775792
    1228: eb0802bf     	cmp	x21, x8
    122c: 54000848     	b.hi	0x1334 <__ZN98_$LT$alloc..vec..Vec$LT$T$GT$$u20$as$u20$alloc..vec..spec_from_iter..SpecFromIter$LT$T$C$I$GT$$GT$9from_iter17h62ff7b1e105d18c4E+0x12c>
    1230: aa0003f4     	mov	x20, x0
    1234: 90000008     	adrp	x8, 0x1000 <__ZN98_$LT$alloc..vec..Vec$LT$T$GT$$u20$as$u20$alloc..vec..spec_from_iter..SpecFromIter$LT$T$C$I$GT$$GT$9from_iter17h62ff7b1e105d18c4E+0x2c>
    1238: f9400108     	ldr	x8, [x8]
    123c: 3940011f     	ldrb	wzr, [x8]
    1240: 52800116     	mov	w22, #8
    1244: aa1503e0     	mov	x0, x21
    1248: 52800101     	mov	w1, #8
    124c: 94000000     	bl	0x124c <__ZN98_$LT$alloc..vec..Vec$LT$T$GT$$u20$as$u20$alloc..vec..spec_from_iter..SpecFromIter$LT$T$C$I$GT$$GT$9from_iter17h62ff7b1e105d18c4E+0x44>
    1250: b4000740     	cbz	x0, 0x1338 <__ZN98_$LT$alloc..vec..Vec$LT$T$GT$$u20$as$u20$alloc..vec..spec_from_iter..SpecFromIter$LT$T$C$I$GT$$GT$9from_iter17h62ff7b1e105d18c4E+0x130>
    1254: d344fea8     	lsr	x8, x21, #4
    1258: f10282bf     	cmp	x21, #160
    125c: 540002a2     	b.hs	0x12b0 <__ZN98_$LT$alloc..vec..Vec$LT$T$GT$$u20$as$u20$alloc..vec..spec_from_iter..SpecFromIter$LT$T$C$I$GT$$GT$9from_iter17h62ff7b1e105d18c4E+0xa8>
    1260: d2800009     	mov	x9, #0
    1264: d2c0100a     	mov	x10, #549755813888
    1268: f2e8190a     	movk	x10, #16584, lsl #48
    126c: 4e080d40     	dup.2d	v0, x10
    1270: d37ced2a     	lsl	x10, x9, #4
    1274: 3cea6a81     	ldr	q1, [x20, x10]
    1278: 6e60dc21     	fmul.2d	v1, v1, v0
    127c: 3caa6801     	str	q1, [x0, x10]
    1280: 91000529     	add	x9, x9, #1
    1284: eb09011f     	cmp	x8, x9
    1288: 54ffff41     	b.ne	0x1270 <__ZN98_$LT$alloc..vec..Vec$LT$T$GT$$u20$as$u20$alloc..vec..spec_from_iter..SpecFromIter$LT$T$C$I$GT$$GT$9from_iter17h62ff7b1e105d18c4E+0x68>
    128c: 14000003     	b	0x1298 <__ZN98_$LT$alloc..vec..Vec$LT$T$GT$$u20$as$u20$alloc..vec..spec_from_iter..SpecFromIter$LT$T$C$I$GT$$GT$9from_iter17h62ff7b1e105d18c4E+0x90>
    1290: d2800008     	mov	x8, #0
    1294: 52800100     	mov	w0, #8
    1298: a9000268     	stp	x8, x0, [x19]
    129c: f9000a68     	str	x8, [x19, #16]
    12a0: a9427bfd     	ldp	x29, x30, [sp, #32]
    12a4: a9414ff4     	ldp	x20, x19, [sp, #16]
    12a8: a8c357f6     	ldp	x22, x21, [sp], #48
    12ac: d65f03c0     	ret
    12b0: d2800009     	mov	x9, #0
    12b4: d100050a     	sub	x10, x8, #1
    12b8: d37ced4b     	lsl	x11, x10, #4
    12bc: 8b0b000c     	add	x12, x0, x11
    12c0: eb00019f     	cmp	x12, x0
    12c4: 54fffd03     	b.lo	0x1264 <__ZN98_$LT$alloc..vec..Vec$LT$T$GT$$u20$as$u20$alloc..vec..spec_from_iter..SpecFromIter$LT$T$C$I$GT$$GT$9from_iter17h62ff7b1e105d18c4E+0x5c>
    12c8: 9100200c     	add	x12, x0, #8
    12cc: 8b0b018b     	add	x11, x12, x11
    12d0: eb0c017f     	cmp	x11, x12
    12d4: 54fffc83     	b.lo	0x1264 <__ZN98_$LT$alloc..vec..Vec$LT$T$GT$$u20$as$u20$alloc..vec..spec_from_iter..SpecFromIter$LT$T$C$I$GT$$GT$9from_iter17h62ff7b1e105d18c4E+0x5c>
    12d8: d37cfd4a     	lsr	x10, x10, #60
    12dc: b5fffc4a     	cbnz	x10, 0x1264 <__ZN98_$LT$alloc..vec..Vec$LT$T$GT$$u20$as$u20$alloc..vec..spec_from_iter..SpecFromIter$LT$T$C$I$GT$$GT$9from_iter17h62ff7b1e105d18c4E+0x5c>
    12e0: 927ee109     	and	x9, x8, #0x7fffffffffffffc
    12e4: d2c0100b     	mov	x11, #549755813888
    12e8: f2e8190b     	movk	x11, #16584, lsl #48
    12ec: 4e080d60     	dup.2d	v0, x11
    12f0: aa0903eb     	mov	x11, x9
    12f4: 8b0a028c     	add	x12, x20, x10
    12f8: ad400582     	ldp	q2, q1, [x12]
    12fc: ad410d84     	ldp	q4, q3, [x12, #32]
    1300: 8b0a000c     	add	x12, x0, x10
    1304: 6e60dc42     	fmul.2d	v2, v2, v0
    1308: 6e60dc21     	fmul.2d	v1, v1, v0
    130c: ad000582     	stp	q2, q1, [x12]
    1310: 6e60dc81     	fmul.2d	v1, v4, v0
    1314: 6e60dc62     	fmul.2d	v2, v3, v0
    1318: ad010981     	stp	q1, q2, [x12, #32]
    131c: 9101014a     	add	x10, x10, #64
    1320: f100116b     	subs	x11, x11, #4
    1324: 54fffe81     	b.ne	0x12f4 <__ZN98_$LT$alloc..vec..Vec$LT$T$GT$$u20$as$u20$alloc..vec..spec_from_iter..SpecFromIter$LT$T$C$I$GT$$GT$9from_iter17h62ff7b1e105d18c4E+0xec>
    1328: eb09011f     	cmp	x8, x9
    132c: 54fff9c1     	b.ne	0x1264 <__ZN98_$LT$alloc..vec..Vec$LT$T$GT$$u20$as$u20$alloc..vec..spec_from_iter..SpecFromIter$LT$T$C$I$GT$$GT$9from_iter17h62ff7b1e105d18c4E+0x5c>
    1330: 17ffffda     	b	0x1298 <__ZN98_$LT$alloc..vec..Vec$LT$T$GT$$u20$as$u20$alloc..vec..spec_from_iter..SpecFromIter$LT$T$C$I$GT$$GT$9from_iter17h62ff7b1e105d18c4E+0x90>
    1334: d2800016     	mov	x22, #0
    1338: aa1603e0     	mov	x0, x22
    133c: aa1503e1     	mov	x1, x21
    1340: 94000000     	bl	0x1340 <__ZN98_$LT$alloc..vec..Vec$LT$T$GT$$u20$as$u20$alloc..vec..spec_from_iter..SpecFromIter$LT$T$C$I$GT$$GT$9from_iter17h62ff7b1e105d18c4E+0x138>

0000000000001344 <__ZN98_$LT$alloc..vec..Vec$LT$T$GT$$u20$as$u20$alloc..vec..spec_from_iter..SpecFromIter$LT$T$C$I$GT$$GT$9from_iter17h26566f0a9cc3fb0cE>:
    1344: a9bd57f6     	stp	x22, x21, [sp, #-48]!
    1348: a9014ff4     	stp	x20, x19, [sp, #16]
    134c: a9027bfd     	stp	x29, x30, [sp, #32]
    1350: 910083fd     	add	x29, sp, #32
    1354: aa0803f3     	mov	x19, x8
    1358: eb000035     	subs	x21, x1, x0
    135c: 54000460     	b.eq	0x13e8 <__ZN98_$LT$alloc..vec..Vec$LT$T$GT$$u20$as$u20$alloc..vec..spec_from_iter..SpecFromIter$LT$T$C$I$GT$$GT$9from_iter17h26566f0a9cc3fb0cE+0xa4>
    1360: b27cebe8     	mov	x8, #9223372036854775792
    1364: eb0802bf     	cmp	x21, x8
    1368: 54000948     	b.hi	0x1490 <__ZN98_$LT$alloc..vec..Vec$LT$T$GT$$u20$as$u20$alloc..vec..spec_from_iter..SpecFromIter$LT$T$C$I$GT$$GT$9from_iter17h26566f0a9cc3fb0cE+0x14c>
    136c: aa0003f4     	mov	x20, x0
    1370: 90000008     	adrp	x8, 0x1000 <__ZN98_$LT$alloc..vec..Vec$LT$T$GT$$u20$as$u20$alloc..vec..spec_from_iter..SpecFromIter$LT$T$C$I$GT$$GT$9from_iter17h26566f0a9cc3fb0cE+0x2c>
    1374: f9400108     	ldr	x8, [x8]
    1378: 3940011f     	ldrb	wzr, [x8]
    137c: 52800116     	mov	w22, #8
    1380: aa1503e0     	mov	x0, x21
    1384: 52800101     	mov	w1, #8
    1388: 94000000     	bl	0x1388 <__ZN98_$LT$alloc..vec..Vec$LT$T$GT$$u20$as$u20$alloc..vec..spec_from_iter..SpecFromIter$LT$T$C$I$GT$$GT$9from_iter17h26566f0a9cc3fb0cE+0x44>
    138c: b4000840     	cbz	x0, 0x1494 <__ZN98_$LT$alloc..vec..Vec$LT$T$GT$$u20$as$u20$alloc..vec..spec_from_iter..SpecFromIter$LT$T$C$I$GT$$GT$9from_iter17h26566f0a9cc3fb0cE+0x150>
    1390: d344fea8     	lsr	x8, x21, #4
    1394: f10182bf     	cmp	x21, #96
    1398: 54000382     	b.hs	0x1408 <__ZN98_$LT$alloc..vec..Vec$LT$T$GT$$u20$as$u20$alloc..vec..spec_from_iter..SpecFromIter$LT$T$C$I$GT$$GT$9from_iter17h26566f0a9cc3fb0cE+0xc4>
    139c: d2800009     	mov	x9, #0
    13a0: 6f00e400     	movi.2d	v0, #0000000000000000
    13a4: d37ced2a     	lsl	x10, x9, #4
    13a8: 3cea6a81     	ldr	q1, [x20, x10]
    13ac: 6e61dc22     	fmul.2d	v2, v1, v1
    13b0: 4e180443     	dup.2d	v3, v2[1]
    13b4: 4e63d442     	fadd.2d	v2, v2, v3
    13b8: 6e60dc23     	fmul.2d	v3, v1, v0
    13bc: 6e034063     	ext.16b	v3, v3, v3, #8
    13c0: 4e61d464     	fadd.2d	v4, v3, v1
    13c4: 4ee1d461     	fsub.2d	v1, v3, v1
    13c8: 6e184424     	mov.d	v4[1], v1[1]
    13cc: 4e080441     	dup.2d	v1, v2[0]
    13d0: 6e61fc81     	fdiv.2d	v1, v4, v1
    13d4: 3caa6801     	str	q1, [x0, x10]
    13d8: 91000529     	add	x9, x9, #1
    13dc: eb09011f     	cmp	x8, x9
    13e0: 54fffe21     	b.ne	0x13a4 <__ZN98_$LT$alloc..vec..Vec$LT$T$GT$$u20$as$u20$alloc..vec..spec_from_iter..SpecFromIter$LT$T$C$I$GT$$GT$9from_iter17h26566f0a9cc3fb0cE+0x60>
    13e4: 14000003     	b	0x13f0 <__ZN98_$LT$alloc..vec..Vec$LT$T$GT$$u20$as$u20$alloc..vec..spec_from_iter..SpecFromIter$LT$T$C$I$GT$$GT$9from_iter17h26566f0a9cc3fb0cE+0xac>
    13e8: d2800008     	mov	x8, #0
    13ec: 52800100     	mov	w0, #8
    13f0: a9000268     	stp	x8, x0, [x19]
    13f4: f9000a68     	str	x8, [x19, #16]
    13f8: a9427bfd     	ldp	x29, x30, [sp, #32]
    13fc: a9414ff4     	ldp	x20, x19, [sp, #16]
    1400: a8c357f6     	ldp	x22, x21, [sp], #48
    1404: d65f03c0     	ret
    1408: d2800009     	mov	x9, #0
    140c: d100050a     	sub	x10, x8, #1
    1410: d37ced4b     	lsl	x11, x10, #4
    1414: 8b0b000c     	add	x12, x0, x11
    1418: eb00019f     	cmp	x12, x0
    141c: 54fffc23     	b.lo	0x13a0 <__ZN98_$LT$alloc..vec..Vec$LT$T$GT$$u20$as$u20$alloc..vec..spec_from_iter..SpecFromIter$LT$T$C$I$GT$$GT$9from_iter17h26566f0a9cc3fb0cE+0x5c>
    1420: 9100200c     	add	x12, x0, #8
    1424: 8b0b018b     	add	x11, x12, x11
    1428: eb0c017f     	cmp	x11, x12
    142c: 54fffba3     	b.lo	0x13a0 <__ZN98_$LT$alloc..vec..Vec$LT$T$GT$$u20$as$u20$alloc..vec..spec_from_iter..SpecFromIter$LT$T$C$I$GT$$GT$9from_iter17h26566f0a9cc3fb0cE+0x5c>
    1430: d37cfd4a     	lsr	x10, x10, #60
    1434: b5fffb6a     	cbnz	x10, 0x13a0 <__ZN98_$LT$alloc..vec..Vec$LT$T$GT$$u20$as$u20$alloc..vec..spec_from_iter..SpecFromIter$LT$T$C$I$GT$$GT$9from_iter17h26566f0a9cc3fb0cE+0x5c>
    1438: 927fe509     	and	x9, x8, #0x7fffffffffffffe
    143c: 6f00e400     	movi.2d	v0, #0000000000000000
    1440: aa0903eb     	mov	x11, x9
    1444: 8b0a028c     	add	x12, x20, x10
    1448: 4c408d81     	ld2.2d	{ v1, v2 }, [x12]
    144c: 6e61dc23     	fmul.2d	v3, v1, v1
    1450: 6e62dc44     	fmul.2d	v4, v2, v2
    1454: 4e64d463     	fadd.2d	v3, v3, v4
    1458: 6e60dc44     	fmul.2d	v4, v2, v0
    145c: 4e64d424     	fadd.2d	v4, v1, v4
    1460: 6e60dc25     	fmul.2d	v5, v1, v0
    1464: 4ee2d4a1     	fsub.2d	v1, v5, v2
    1468: 6e63fc84     	fdiv.2d	v4, v4, v3
    146c: 6e63fc25     	fdiv.2d	v5, v1, v3
    1470: 8b0a000c     	add	x12, x0, x10
    1474: 4c008d84     	st2.2d	{ v4, v5 }, [x12]
    1478: 9100814a     	add	x10, x10, #32
    147c: f100096b     	subs	x11, x11, #2
    1480: 54fffe21     	b.ne	0x1444 <__ZN98_$LT$alloc..vec..Vec$LT$T$GT$$u20$as$u20$alloc..vec..spec_from_iter..SpecFromIter$LT$T$C$I$GT$$GT$9from_iter17h26566f0a9cc3fb0cE+0x100>
    1484: eb09011f     	cmp	x8, x9
    1488: 54fff8c1     	b.ne	0x13a0 <__ZN98_$LT$alloc..vec..Vec$LT$T$GT$$u20$as$u20$alloc..vec..spec_from_iter..SpecFromIter$LT$T$C$I$GT$$GT$9from_iter17h26566f0a9cc3fb0cE+0x5c>
    148c: 17ffffd9     	b	0x13f0 <__ZN98_$LT$alloc..vec..Vec$LT$T$GT$$u20$as$u20$alloc..vec..spec_from_iter..SpecFromIter$LT$T$C$I$GT$$GT$9from_iter17h26566f0a9cc3fb0cE+0xac>
    1490: d2800016     	mov	x22, #0
    1494: aa1603e0     	mov	x0, x22
    1498: aa1503e1     	mov	x1, x21
    149c: 94000000     	bl	0x149c <__ZN98_$LT$alloc..vec..Vec$LT$T$GT$$u20$as$u20$alloc..vec..spec_from_iter..SpecFromIter$LT$T$C$I$GT$$GT$9from_iter17h26566f0a9cc3fb0cE+0x158>

00000000000014a0 <__ZN98_$LT$alloc..vec..Vec$LT$T$GT$$u20$as$u20$alloc..vec..spec_from_iter..SpecFromIter$LT$T$C$I$GT$$GT$9from_iter17hd7a9e23cbb6924e0E>:
    14a0: a9bd57f6     	stp	x22, x21, [sp, #-48]!
    14a4: a9014ff4     	stp	x20, x19, [sp, #16]
    14a8: a9027bfd     	stp	x29, x30, [sp, #32]
    14ac: 910083fd     	add	x29, sp, #32
    14b0: aa0803f3     	mov	x19, x8
    14b4: eb000035     	subs	x21, x1, x0
    14b8: 54000380     	b.eq	0x1528 <__ZN98_$LT$alloc..vec..Vec$LT$T$GT$$u20$as$u20$alloc..vec..spec_from_iter..SpecFromIter$LT$T$C$I$GT$$GT$9from_iter17hd7a9e23cbb6924e0E+0x88>
    14bc: b27cebe8     	mov	x8, #9223372036854775792
    14c0: eb0802bf     	cmp	x21, x8
    14c4: 540007a8     	b.hi	0x15b8 <__ZN98_$LT$alloc..vec..Vec$LT$T$GT$$u20$as$u20$alloc..vec..spec_from_iter..SpecFromIter$LT$T$C$I$GT$$GT$9from_iter17hd7a9e23cbb6924e0E+0x118>
    14c8: aa0003f4     	mov	x20, x0
    14cc: 90000008     	adrp	x8, 0x1000 <__ZN98_$LT$alloc..vec..Vec$LT$T$GT$$u20$as$u20$alloc..vec..spec_from_iter..SpecFromIter$LT$T$C$I$GT$$GT$9from_iter17hd7a9e23cbb6924e0E+0x2c>
    14d0: f9400108     	ldr	x8, [x8]
    14d4: 3940011f     	ldrb	wzr, [x8]
    14d8: 52800116     	mov	w22, #8
    14dc: aa1503e0     	mov	x0, x21
    14e0: 52800101     	mov	w1, #8
    14e4: 94000000     	bl	0x14e4 <__ZN98_$LT$alloc..vec..Vec$LT$T$GT$$u20$as$u20$alloc..vec..spec_from_iter..SpecFromIter$LT$T$C$I$GT$$GT$9from_iter17hd7a9e23cbb6924e0E+0x44>
    14e8: b40006a0     	cbz	x0, 0x15bc <__ZN98_$LT$alloc..vec..Vec$LT$T$GT$$u20$as$u20$alloc..vec..spec_from_iter..SpecFromIter$LT$T$C$I$GT$$GT$9from_iter17hd7a9e23cbb6924e0E+0x11c>
    14ec: d344fea8     	lsr	x8, x21, #4
    14f0: f10382bf     	cmp	x21, #224
    14f4: 540002a2     	b.hs	0x1548 <__ZN98_$LT$alloc..vec..Vec$LT$T$GT$$u20$as$u20$alloc..vec..spec_from_iter..SpecFromIter$LT$T$C$I$GT$$GT$9from_iter17hd7a9e23cbb6924e0E+0xa8>
    14f8: d2800009     	mov	x9, #0
    14fc: d37ced2a     	lsl	x10, x9, #4
    1500: cb090109     	sub	x9, x8, x9
    1504: 8b0a028b     	add	x11, x20, x10
    1508: 6d400560     	ldp	d0, d1, [x11]
    150c: 1e614021     	fneg	d1, d1
    1510: 8b0a000b     	add	x11, x0, x10
    1514: 6d000560     	stp	d0, d1, [x11]
    1518: 9100414a     	add	x10, x10, #16
    151c: f1000529     	subs	x9, x9, #1
    1520: 54ffff21     	b.ne	0x1504 <__ZN98_$LT$alloc..vec..Vec$LT$T$GT$$u20$as$u20$alloc..vec..spec_from_iter..SpecFromIter$LT$T$C$I$GT$$GT$9from_iter17hd7a9e23cbb6924e0E+0x64>
    1524: 14000003     	b	0x1530 <__ZN98_$LT$alloc..vec..Vec$LT$T$GT$$u20$as$u20$alloc..vec..spec_from_iter..SpecFromIter$LT$T$C$I$GT$$GT$9from_iter17hd7a9e23cbb6924e0E+0x90>
    1528: d2800008     	mov	x8, #0
    152c: 52800100     	mov	w0, #8
    1530: a9000268     	stp	x8, x0, [x19]
    1534: f9000a68     	str	x8, [x19, #16]
    1538: a9427bfd     	ldp	x29, x30, [sp, #32]
    153c: a9414ff4     	ldp	x20, x19, [sp, #16]
    1540: a8c357f6     	ldp	x22, x21, [sp], #48
    1544: d65f03c0     	ret
    1548: d2800009     	mov	x9, #0
    154c: d100050a     	sub	x10, x8, #1
    1550: d37ced4b     	lsl	x11, x10, #4
    1554: 8b0b000c     	add	x12, x0, x11
    1558: eb00019f     	cmp	x12, x0
    155c: 54fffd03     	b.lo	0x14fc <__ZN98_$LT$alloc..vec..Vec$LT$T$GT$$u20$as$u20$alloc..vec..spec_from_iter..SpecFromIter$LT$T$C$I$GT$$GT$9from_iter17hd7a9e23cbb6924e0E+0x5c>
    1560: 9100200c     	add	x12, x0, #8
    1564: 8b0b018b     	add	x11, x12, x11
    1568: eb0c017f     	cmp	x11, x12
    156c: 54fffc83     	b.lo	0x14fc <__ZN98_$LT$alloc..vec..Vec$LT$T$GT$$u20$as$u20$alloc..vec..spec_from_iter..SpecFromIter$LT$T$C$I$GT$$GT$9from_iter17hd7a9e23cbb6924e0E+0x5c>
    1570: d37cfd4a     	lsr	x10, x10, #60
    1574: b5fffc4a     	cbnz	x10, 0x14fc <__ZN98_$LT$alloc..vec..Vec$LT$T$GT$$u20$as$u20$alloc..vec..spec_from_iter..SpecFromIter$LT$T$C$I$GT$$GT$9from_iter17hd7a9e23cbb6924e0E+0x5c>
    1578: 927ee109     	and	x9, x8, #0x7fffffffffffffc
    157c: aa0903eb     	mov	x11, x9
    1580: 8b0a028c     	add	x12, x20, x10
    1584: 4cdf8d80     	ld2.2d	{ v0, v1 }, [x12], #32
    1588: 6ee0f821     	fneg.2d	v1, v1
    158c: 4c408d82     	ld2.2d	{ v2, v3 }, [x12]
    1590: 6ee0f863     	fneg.2d	v3, v3
    1594: 8b0a000c     	add	x12, x0, x10
    1598: 4c9f8d80     	st2.2d	{ v0, v1 }, [x12], #32
    159c: 4c008d82     	st2.2d	{ v2, v3 }, [x12]
    15a0: 9101014a     	add	x10, x10, #64
    15a4: f100116b     	subs	x11, x11, #4
    15a8: 54fffec1     	b.ne	0x1580 <__ZN98_$LT$alloc..vec..Vec$LT$T$GT$$u20$as$u20$alloc..vec..spec_from_iter..SpecFromIter$LT$T$C$I$GT$$GT$9from_iter17hd7a9e23cbb6924e0E+0xe0>
    15ac: eb09011f     	cmp	x8, x9
    15b0: 54fffa61     	b.ne	0x14fc <__ZN98_$LT$alloc..vec..Vec$LT$T$GT$$u20$as$u20$alloc..vec..spec_from_iter..SpecFromIter$LT$T$C$I$GT$$GT$9from_iter17hd7a9e23cbb6924e0E+0x5c>
    15b4: 17ffffdf     	b	0x1530 <__ZN98_$LT$alloc..vec..Vec$LT$T$GT$$u20$as$u20$alloc..vec..spec_from_iter..SpecFromIter$LT$T$C$I$GT$$GT$9from_iter17hd7a9e23cbb6924e0E+0x90>
    15b8: d2800016     	mov	x22, #0
    15bc: aa1603e0     	mov	x0, x22
    15c0: aa1503e1     	mov	x1, x21
    15c4: 94000000     	bl	0x15c4 <__ZN98_$LT$alloc..vec..Vec$LT$T$GT$$u20$as$u20$alloc..vec..spec_from_iter..SpecFromIter$LT$T$C$I$GT$$GT$9from_iter17hd7a9e23cbb6924e0E+0x124>

00000000000015c8 <__ZN98_$LT$alloc..vec..Vec$LT$T$GT$$u20$as$u20$alloc..vec..spec_from_iter..SpecFromIter$LT$T$C$I$GT$$GT$9from_iter17hea67f6d5386402e6E>:
    15c8: a9bc5ff8     	stp	x24, x23, [sp, #-64]!
    15cc: a90157f6     	stp	x22, x21, [sp, #16]
    15d0: a9024ff4     	stp	x20, x19, [sp, #32]
    15d4: a9037bfd     	stp	x29, x30, [sp, #48]
    15d8: 9100c3fd     	add	x29, sp, #48
    15dc: aa0803f3     	mov	x19, x8
    15e0: a9402017     	ldp	x23, x8, [x0]
    15e4: eb170118     	subs	x24, x8, x23
    15e8: 54000540     	b.eq	0x1690 <__ZN98_$LT$alloc..vec..Vec$LT$T$GT$$u20$as$u20$alloc..vec..spec_from_iter..SpecFromIter$LT$T$C$I$GT$$GT$9from_iter17hea67f6d5386402e6E+0xc8>
    15ec: d37ef715     	lsl	x21, x24, #2
    15f0: b27eebe8     	mov	x8, #2305843009213693948
    15f4: eb08031f     	cmp	x24, x8
    15f8: 54000ae8     	b.hi	0x1754 <__ZN98_$LT$alloc..vec..Vec$LT$T$GT$$u20$as$u20$alloc..vec..spec_from_iter..SpecFromIter$LT$T$C$I$GT$$GT$9from_iter17hea67f6d5386402e6E+0x18c>
    15fc: aa0003f4     	mov	x20, x0
    1600: 90000008     	adrp	x8, 0x1000 <__ZN98_$LT$alloc..vec..Vec$LT$T$GT$$u20$as$u20$alloc..vec..spec_from_iter..SpecFromIter$LT$T$C$I$GT$$GT$9from_iter17hea67f6d5386402e6E+0x38>
    1604: f9400108     	ldr	x8, [x8]
    1608: 3940011f     	ldrb	wzr, [x8]
    160c: 52800116     	mov	w22, #8
    1610: aa1503e0     	mov	x0, x21
    1614: 52800101     	mov	w1, #8
    1618: 94000000     	bl	0x1618 <__ZN98_$LT$alloc..vec..Vec$LT$T$GT$$u20$as$u20$alloc..vec..spec_from_iter..SpecFromIter$LT$T$C$I$GT$$GT$9from_iter17hea67f6d5386402e6E+0x50>
    161c: b40009e0     	cbz	x0, 0x1758 <__ZN98_$LT$alloc..vec..Vec$LT$T$GT$$u20$as$u20$alloc..vec..spec_from_iter..SpecFromIter$LT$T$C$I$GT$$GT$9from_iter17hea67f6d5386402e6E+0x190>
    1620: d342ff08     	lsr	x8, x24, #2
    1624: f9400a89     	ldr	x9, [x20, #16]
    1628: f101431f     	cmp	x24, #80
    162c: 54000163     	b.lo	0x1658 <__ZN98_$LT$alloc..vec..Vec$LT$T$GT$$u20$as$u20$alloc..vec..spec_from_iter..SpecFromIter$LT$T$C$I$GT$$GT$9from_iter17hea67f6d5386402e6E+0x90>
    1630: d100050a     	sub	x10, x8, #1
    1634: d37ced4b     	lsl	x11, x10, #4
    1638: 9100200c     	add	x12, x0, #8
    163c: 8b0b018d     	add	x13, x12, x11
    1640: 8b0b000b     	add	x11, x0, x11
    1644: eb00017f     	cmp	x11, x0
    1648: fa4c21a0     	ccmp	x13, x12, #0, hs
    164c: d37cfd4a     	lsr	x10, x10, #60
    1650: fa402940     	ccmp	x10, #0, #0, hs
    1654: 54000300     	b.eq	0x16b4 <__ZN98_$LT$alloc..vec..Vec$LT$T$GT$$u20$as$u20$alloc..vec..spec_from_iter..SpecFromIter$LT$T$C$I$GT$$GT$9from_iter17hea67f6d5386402e6E+0xec>
    1658: d280000a     	mov	x10, #0
    165c: 8b0a0aeb     	add	x11, x23, x10, lsl #2
    1660: cb0a010c     	sub	x12, x8, x10
    1664: 8b0a100a     	add	x10, x0, x10, lsl #4
    1668: 9100214a     	add	x10, x10, #8
    166c: 78c0456d     	ldrsh	w13, [x11], #4
    1670: 1e6201a0     	scvtf	d0, w13
    1674: fd400121     	ldr	d1, [x9]
    1678: 1e600820     	fmul	d0, d1, d0
    167c: fc1f8140     	stur	d0, [x10, #-8]
    1680: f801055f     	str	xzr, [x10], #16
    1684: f100058c     	subs	x12, x12, #1
    1688: 54ffff21     	b.ne	0x166c <__ZN98_$LT$alloc..vec..Vec$LT$T$GT$$u20$as$u20$alloc..vec..spec_from_iter..SpecFromIter$LT$T$C$I$GT$$GT$9from_iter17hea67f6d5386402e6E+0xa4>
    168c: 14000003     	b	0x1698 <__ZN98_$LT$alloc..vec..Vec$LT$T$GT$$u20$as$u20$alloc..vec..spec_from_iter..SpecFromIter$LT$T$C$I$GT$$GT$9from_iter17hea67f6d5386402e6E+0xd0>
    1690: d2800008     	mov	x8, #0
    1694: 52800100     	mov	w0, #8
    1698: a9000268     	stp	x8, x0, [x19]
    169c: f9000a68     	str	x8, [x19, #16]
    16a0: a9437bfd     	ldp	x29, x30, [sp, #48]
    16a4: a9424ff4     	ldp	x20, x19, [sp, #32]
    16a8: a94157f6     	ldp	x22, x21, [sp, #16]
    16ac: a8c45ff8     	ldp	x24, x23, [sp], #64
    16b0: d65f03c0     	ret
    16b4: d280000a     	mov	x10, #0
    16b8: 8b08100c     	add	x12, x0, x8, lsl #4
    16bc: 927eeb0b     	and	x11, x24, #0x1ffffffffffffffc
    16c0: 8b0b02ed     	add	x13, x23, x11
    16c4: 9100212b     	add	x11, x9, #8
    16c8: eb0b001f     	cmp	x0, x11
    16cc: fa493180     	ccmp	x12, x9, #0, lo
    16d0: 1a9f97eb     	cset	w11, hi
    16d4: eb0c02ff     	cmp	x23, x12
    16d8: fa4d3002     	ccmp	x0, x13, #2, lo
    16dc: 54fffc03     	b.lo	0x165c <__ZN98_$LT$alloc..vec..Vec$LT$T$GT$$u20$as$u20$alloc..vec..spec_from_iter..SpecFromIter$LT$T$C$I$GT$$GT$9from_iter17hea67f6d5386402e6E+0x94>
    16e0: 3707fbeb     	tbnz	w11, #0, 0x165c <__ZN98_$LT$alloc..vec..Vec$LT$T$GT$$u20$as$u20$alloc..vec..spec_from_iter..SpecFromIter$LT$T$C$I$GT$$GT$9from_iter17hea67f6d5386402e6E+0x94>
    16e4: 927ee10a     	and	x10, x8, #0x7fffffffffffffc
    16e8: 6f00e401     	movi.2d	v1, #0000000000000000
    16ec: aa0a03eb     	mov	x11, x10
    16f0: aa1703ec     	mov	x12, x23
    16f4: aa0003ed     	mov	x13, x0
    16f8: 3cc10582     	ldr	q2, [x12], #16
    16fc: fd400123     	ldr	d3, [x9]
    1700: 0f305444     	shl.2s	v4, v2, #16
    1704: 0f300484     	sshr.2s	v4, v4, #16
    1708: 0f20a484     	sshll.2d	v4, v4, #0
    170c: 4e61d884     	scvtf.2d	v4, v4
    1710: 6e024042     	ext.16b	v2, v2, v2, #8
    1714: 0f305442     	shl.2s	v2, v2, #16
    1718: 0f300442     	sshr.2s	v2, v2, #16
    171c: 0f20a442     	sshll.2d	v2, v2, #0
    1720: 4e61d842     	scvtf.2d	v2, v2
    1724: 4fc39040     	fmul.2d	v0, v2, v3[0]
    1728: 4fc39082     	fmul.2d	v2, v4, v3[0]
    172c: 4ea11c23     	mov.16b	v3, v1
    1730: 910101ae     	add	x14, x13, #64
    1734: 4c9f8da2     	st2.2d	{ v2, v3 }, [x13], #32
    1738: 4c008da0     	st2.2d	{ v0, v1 }, [x13]
    173c: aa0e03ed     	mov	x13, x14
    1740: f100116b     	subs	x11, x11, #4
    1744: 54fffda1     	b.ne	0x16f8 <__ZN98_$LT$alloc..vec..Vec$LT$T$GT$$u20$as$u20$alloc..vec..spec_from_iter..SpecFromIter$LT$T$C$I$GT$$GT$9from_iter17hea67f6d5386402e6E+0x130>
    1748: eb0a011f     	cmp	x8, x10
    174c: 54fff881     	b.ne	0x165c <__ZN98_$LT$alloc..vec..Vec$LT$T$GT$$u20$as$u20$alloc..vec..spec_from_iter..SpecFromIter$LT$T$C$I$GT$$GT$9from_iter17hea67f6d5386402e6E+0x94>
    1750: 17ffffd2     	b	0x1698 <__ZN98_$LT$alloc..vec..Vec$LT$T$GT$$u20$as$u20$alloc..vec..spec_from_iter..SpecFromIter$LT$T$C$I$GT$$GT$9from_iter17hea67f6d5386402e6E+0xd0>
    1754: d2800016     	mov	x22, #0
    1758: aa1603e0     	mov	x0, x22
    175c: aa1503e1     	mov	x1, x21
    1760: 94000000     	bl	0x1760 <__ZN98_$LT$alloc..vec..Vec$LT$T$GT$$u20$as$u20$alloc..vec..spec_from_iter..SpecFromIter$LT$T$C$I$GT$$GT$9from_iter17hea67f6d5386402e6E+0x198>

0000000000001764 <__ZN98_$LT$alloc..vec..Vec$LT$T$GT$$u20$as$u20$alloc..vec..spec_from_iter..SpecFromIter$LT$T$C$I$GT$$GT$9from_iter17h39f91119fc0815e4E>:
    1764: a9bd57f6     	stp	x22, x21, [sp, #-48]!
    1768: a9014ff4     	stp	x20, x19, [sp, #16]
    176c: a9027bfd     	stp	x29, x30, [sp, #32]
    1770: 910083fd     	add	x29, sp, #32
    1774: aa0803f3     	mov	x19, x8
    1778: eb000036     	subs	x22, x1, x0
    177c: 540003c0     	b.eq	0x17f4 <__ZN98_$LT$alloc..vec..Vec$LT$T$GT$$u20$as$u20$alloc..vec..spec_from_iter..SpecFromIter$LT$T$C$I$GT$$GT$9from_iter17h39f91119fc0815e4E+0x90>
    1780: aa0003f4     	mov	x20, x0
    1784: d342fed5     	lsr	x21, x22, #2
    1788: 90000008     	adrp	x8, 0x1000 <__ZN98_$LT$alloc..vec..Vec$LT$T$GT$$u20$as$u20$alloc..vec..spec_from_iter..SpecFromIter$LT$T$C$I$GT$$GT$9from_iter17h39f91119fc0815e4E+0x24>
    178c: f9400108     	ldr	x8, [x8]
    1790: 3940011f     	ldrb	wzr, [x8]
    1794: aa1503e0     	mov	x0, x21
    1798: 52800101     	mov	w1, #8
    179c: 94000000     	bl	0x179c <__ZN98_$LT$alloc..vec..Vec$LT$T$GT$$u20$as$u20$alloc..vec..spec_from_iter..SpecFromIter$LT$T$C$I$GT$$GT$9from_iter17h39f91119fc0815e4E+0x38>
    17a0: b40003a0     	cbz	x0, 0x1814 <__ZN98_$LT$alloc..vec..Vec$LT$T$GT$$u20$as$u20$alloc..vec..spec_from_iter..SpecFromIter$LT$T$C$I$GT$$GT$9from_iter17h39f91119fc0815e4E+0xb0>
    17a4: d2800009     	mov	x9, #0
    17a8: d345fec8     	lsr	x8, x22, #5
    17ac: 9100428a     	add	x10, x20, #16
    17b0: 528000eb     	mov	w11, #7
    17b4: 14000006     	b	0x17cc <__ZN98_$LT$alloc..vec..Vec$LT$T$GT$$u20$as$u20$alloc..vec..spec_from_iter..SpecFromIter$LT$T$C$I$GT$$GT$9from_iter17h39f91119fc0815e4E+0x68>
    17b8: f829780c     	str	x12, [x0, x9, lsl #3]
    17bc: 91000529     	add	x9, x9, #1
    17c0: 9100814a     	add	x10, x10, #32
    17c4: eb09011f     	cmp	x8, x9
    17c8: 540001a0     	b.eq	0x17fc <__ZN98_$LT$alloc..vec..Vec$LT$T$GT$$u20$as$u20$alloc..vec..spec_from_iter..SpecFromIter$LT$T$C$I$GT$$GT$9from_iter17h39f91119fc0815e4E+0x98>
    17cc: f940014c     	ldr	x12, [x10]
    17d0: b4ffff4c     	cbz	x12, 0x17b8 <__ZN98_$LT$alloc..vec..Vec$LT$T$GT$$u20$as$u20$alloc..vec..spec_from_iter..SpecFromIter$LT$T$C$I$GT$$GT$9from_iter17h39f91119fc0815e4E+0x54>
    17d4: f85f814d     	ldur	x13, [x10, #-8]
    17d8: 8b0c0dad     	add	x13, x13, x12, lsl #3
    17dc: f85f81ad     	ldur	x13, [x13, #-8]
    17e0: dac011ad     	clz	x13, x13
    17e4: aa0c196c     	orr	x12, x11, x12, lsl #6
    17e8: cb0d018c     	sub	x12, x12, x13
    17ec: 927df18c     	and	x12, x12, #0xfffffffffffffff8
    17f0: 17fffff2     	b	0x17b8 <__ZN98_$LT$alloc..vec..Vec$LT$T$GT$$u20$as$u20$alloc..vec..spec_from_iter..SpecFromIter$LT$T$C$I$GT$$GT$9from_iter17h39f91119fc0815e4E+0x54>
    17f4: d2800008     	mov	x8, #0
    17f8: 52800100     	mov	w0, #8
    17fc: a9000268     	stp	x8, x0, [x19]
    1800: f9000a68     	str	x8, [x19, #16]
    1804: a9427bfd     	ldp	x29, x30, [sp, #32]
    1808: a9414ff4     	ldp	x20, x19, [sp, #16]
    180c: a8c357f6     	ldp	x22, x21, [sp], #48
    1810: d65f03c0     	ret
    1814: 52800100     	mov	w0, #8
    1818: aa1503e1     	mov	x1, x21
    181c: 94000000     	bl	0x181c <__ZN98_$LT$alloc..vec..Vec$LT$T$GT$$u20$as$u20$alloc..vec..spec_from_iter..SpecFromIter$LT$T$C$I$GT$$GT$9from_iter17h39f91119fc0815e4E+0xb8>

0000000000001820 <__ZN98_$LT$alloc..vec..Vec$LT$T$GT$$u20$as$u20$alloc..vec..spec_from_iter..SpecFromIter$LT$T$C$I$GT$$GT$9from_iter17h4a74e546bfb3f66dE>:
    1820: d10143ff     	sub	sp, sp, #80
    1824: a9015ff8     	stp	x24, x23, [sp, #16]
    1828: a90257f6     	stp	x22, x21, [sp, #32]
    182c: a9034ff4     	stp	x20, x19, [sp, #48]
    1830: a9047bfd     	stp	x29, x30, [sp, #64]
    1834: 910103fd     	add	x29, sp, #64
    1838: aa0803f6     	mov	x22, x8
    183c: eb000038     	subs	x24, x1, x0
    1840: 54000700     	b.eq	0x1920 <__ZN98_$LT$alloc..vec..Vec$LT$T$GT$$u20$as$u20$alloc..vec..spec_from_iter..SpecFromIter$LT$T$C$I$GT$$GT$9from_iter17h4a74e546bfb3f66dE+0x100>
    1844: aa0003f5     	mov	x21, x0
    1848: aa0103f7     	mov	x23, x1
    184c: d344ff13     	lsr	x19, x24, #4
    1850: 90000008     	adrp	x8, 0x1000 <__ZN98_$LT$alloc..vec..Vec$LT$T$GT$$u20$as$u20$alloc..vec..spec_from_iter..SpecFromIter$LT$T$C$I$GT$$GT$9from_iter17h4a74e546bfb3f66dE+0x30>
    1854: f9400108     	ldr	x8, [x8]
    1858: 3940011f     	ldrb	wzr, [x8]
    185c: aa1303e0     	mov	x0, x19
    1860: 52800041     	mov	w1, #2
    1864: 94000000     	bl	0x1864 <__ZN98_$LT$alloc..vec..Vec$LT$T$GT$$u20$as$u20$alloc..vec..spec_from_iter..SpecFromIter$LT$T$C$I$GT$$GT$9from_iter17h4a74e546bfb3f66dE+0x44>
    1868: b4000700     	cbz	x0, 0x1948 <__ZN98_$LT$alloc..vec..Vec$LT$T$GT$$u20$as$u20$alloc..vec..spec_from_iter..SpecFromIter$LT$T$C$I$GT$$GT$9from_iter17h4a74e546bfb3f66dE+0x128>
    186c: aa0003f4     	mov	x20, x0
    1870: d2800009     	mov	x9, #0
    1874: d345ff08     	lsr	x8, x24, #5
    1878: 910042aa     	add	x10, x21, #16
    187c: 14000007     	b	0x1898 <__ZN98_$LT$alloc..vec..Vec$LT$T$GT$$u20$as$u20$alloc..vec..spec_from_iter..SpecFromIter$LT$T$C$I$GT$$GT$9from_iter17h4a74e546bfb3f66dE+0x78>
    1880: 5280000b     	mov	w11, #0
    1884: 78297a8b     	strh	w11, [x20, x9, lsl #1]
    1888: 91000529     	add	x9, x9, #1
    188c: 9100814a     	add	x10, x10, #32
    1890: eb09011f     	cmp	x8, x9
    1894: 540004a0     	b.eq	0x1928 <__ZN98_$LT$alloc..vec..Vec$LT$T$GT$$u20$as$u20$alloc..vec..spec_from_iter..SpecFromIter$LT$T$C$I$GT$$GT$9from_iter17h4a74e546bfb3f66dE+0x108>
    1898: 3940214b     	ldrb	w11, [x10, #8]
    189c: 340001ab     	cbz	w11, 0x18d0 <__ZN98_$LT$alloc..vec..Vec$LT$T$GT$$u20$as$u20$alloc..vec..spec_from_iter..SpecFromIter$LT$T$C$I$GT$$GT$9from_iter17h4a74e546bfb3f66dE+0xb0>
    18a0: 7100057f     	cmp	w11, #1
    18a4: 54fffee0     	b.eq	0x1880 <__ZN98_$LT$alloc..vec..Vec$LT$T$GT$$u20$as$u20$alloc..vec..spec_from_iter..SpecFromIter$LT$T$C$I$GT$$GT$9from_iter17h4a74e546bfb3f66dE+0x60>
    18a8: f940014b     	ldr	x11, [x10]
    18ac: b4fffecb     	cbz	x11, 0x1884 <__ZN98_$LT$alloc..vec..Vec$LT$T$GT$$u20$as$u20$alloc..vec..spec_from_iter..SpecFromIter$LT$T$C$I$GT$$GT$9from_iter17h4a74e546bfb3f66dE+0x64>
    18b0: f100057f     	cmp	x11, #1
    18b4: 54000221     	b.ne	0x18f8 <__ZN98_$LT$alloc..vec..Vec$LT$T$GT$$u20$as$u20$alloc..vec..spec_from_iter..SpecFromIter$LT$T$C$I$GT$$GT$9from_iter17h4a74e546bfb3f66dE+0xd8>
    18b8: f85f814b     	ldur	x11, [x10, #-8]
    18bc: f940016b     	ldr	x11, [x11]
    18c0: b7f801cb     	tbnz	x11, #63, 0x18f8 <__ZN98_$LT$alloc..vec..Vec$LT$T$GT$$u20$as$u20$alloc..vec..spec_from_iter..SpecFromIter$LT$T$C$I$GT$$GT$9from_iter17h4a74e546bfb3f66dE+0xd8>
    18c4: eb2ba17f     	cmp	x11, w11, sxth
    18c8: 54fffde0     	b.eq	0x1884 <__ZN98_$LT$alloc..vec..Vec$LT$T$GT$$u20$as$u20$alloc..vec..spec_from_iter..SpecFromIter$LT$T$C$I$GT$$GT$9from_iter17h4a74e546bfb3f66dE+0x64>
    18cc: 1400000b     	b	0x18f8 <__ZN98_$LT$alloc..vec..Vec$LT$T$GT$$u20$as$u20$alloc..vec..spec_from_iter..SpecFromIter$LT$T$C$I$GT$$GT$9from_iter17h4a74e546bfb3f66dE+0xd8>
    18d0: f940014b     	ldr	x11, [x10]
    18d4: b40000cb     	cbz	x11, 0x18ec <__ZN98_$LT$alloc..vec..Vec$LT$T$GT$$u20$as$u20$alloc..vec..spec_from_iter..SpecFromIter$LT$T$C$I$GT$$GT$9from_iter17h4a74e546bfb3f66dE+0xcc>
    18d8: f100057f     	cmp	x11, #1
    18dc: 540000e1     	b.ne	0x18f8 <__ZN98_$LT$alloc..vec..Vec$LT$T$GT$$u20$as$u20$alloc..vec..spec_from_iter..SpecFromIter$LT$T$C$I$GT$$GT$9from_iter17h4a74e546bfb3f66dE+0xd8>
    18e0: f85f814b     	ldur	x11, [x10, #-8]
    18e4: f940016b     	ldr	x11, [x11]
    18e8: b7f8008b     	tbnz	x11, #63, 0x18f8 <__ZN98_$LT$alloc..vec..Vec$LT$T$GT$$u20$as$u20$alloc..vec..spec_from_iter..SpecFromIter$LT$T$C$I$GT$$GT$9from_iter17h4a74e546bfb3f66dE+0xd8>
    18ec: cb0b03eb     	neg	x11, x11
    18f0: eb2ba17f     	cmp	x11, w11, sxth
    18f4: 54fffc80     	b.eq	0x1884 <__ZN98_$LT$alloc..vec..Vec$LT$T$GT$$u20$as$u20$alloc..vec..spec_from_iter..SpecFromIter$LT$T$C$I$GT$$GT$9from_iter17h4a74e546bfb3f66dE+0x64>
    18f8: 90000000     	adrp	x0, 0x1000 <__ZN98_$LT$alloc..vec..Vec$LT$T$GT$$u20$as$u20$alloc..vec..spec_from_iter..SpecFromIter$LT$T$C$I$GT$$GT$9from_iter17h4a74e546bfb3f66dE+0xd8>
    18fc: 91000000     	add	x0, x0, #0
    1900: 90000003     	adrp	x3, 0x1000 <__ZN98_$LT$alloc..vec..Vec$LT$T$GT$$u20$as$u20$alloc..vec..spec_from_iter..SpecFromIter$LT$T$C$I$GT$$GT$9from_iter17h4a74e546bfb3f66dE+0xe0>
    1904: 91000063     	add	x3, x3, #0
    1908: 90000004     	adrp	x4, 0x1000 <__ZN98_$LT$alloc..vec..Vec$LT$T$GT$$u20$as$u20$alloc..vec..spec_from_iter..SpecFromIter$LT$T$C$I$GT$$GT$9from_iter17h4a74e546bfb3f66dE+0xe8>
    190c: 91000084     	add	x4, x4, #0
    1910: 91003fe2     	add	x2, sp, #15
    1914: 52800561     	mov	w1, #43
    1918: 94000000     	bl	0x1918 <__ZN98_$LT$alloc..vec..Vec$LT$T$GT$$u20$as$u20$alloc..vec..spec_from_iter..SpecFromIter$LT$T$C$I$GT$$GT$9from_iter17h4a74e546bfb3f66dE+0xf8>
    191c: d4200020     	brk	#0x1
    1920: d2800008     	mov	x8, #0
    1924: 52800054     	mov	w20, #2
    1928: a90052c8     	stp	x8, x20, [x22]
    192c: f9000ac8     	str	x8, [x22, #16]
    1930: a9447bfd     	ldp	x29, x30, [sp, #64]
    1934: a9434ff4     	ldp	x20, x19, [sp, #48]
    1938: a94257f6     	ldp	x22, x21, [sp, #32]
    193c: a9415ff8     	ldp	x24, x23, [sp, #16]
    1940: 910143ff     	add	sp, sp, #80
    1944: d65f03c0     	ret
    1948: 52800040     	mov	w0, #2
    194c: aa1303e1     	mov	x1, x19
    1950: 94000000     	bl	0x1950 <__ZN98_$LT$alloc..vec..Vec$LT$T$GT$$u20$as$u20$alloc..vec..spec_from_iter..SpecFromIter$LT$T$C$I$GT$$GT$9from_iter17h4a74e546bfb3f66dE+0x130>
    1954: aa0003f6     	mov	x22, x0
    1958: eb1502ff     	cmp	x23, x21
    195c: 540000a0     	b.eq	0x1970 <__ZN98_$LT$alloc..vec..Vec$LT$T$GT$$u20$as$u20$alloc..vec..spec_from_iter..SpecFromIter$LT$T$C$I$GT$$GT$9from_iter17h4a74e546bfb3f66dE+0x150>
    1960: aa1403e0     	mov	x0, x20
    1964: aa1303e1     	mov	x1, x19
    1968: 52800042     	mov	w2, #2
    196c: 94000000     	bl	0x196c <__ZN98_$LT$alloc..vec..Vec$LT$T$GT$$u20$as$u20$alloc..vec..spec_from_iter..SpecFromIter$LT$T$C$I$GT$$GT$9from_iter17h4a74e546bfb3f66dE+0x14c>
    1970: aa1603e0     	mov	x0, x22
    1974: 94000000     	bl	0x1974 <__ZN98_$LT$alloc..vec..Vec$LT$T$GT$$u20$as$u20$alloc..vec..spec_from_iter..SpecFromIter$LT$T$C$I$GT$$GT$9from_iter17h4a74e546bfb3f66dE+0x154>

0000000000001978 <__ZN98_$LT$alloc..vec..Vec$LT$T$GT$$u20$as$u20$alloc..vec..spec_from_iter..SpecFromIter$LT$T$C$I$GT$$GT$9from_iter17h9dbcd46843473442E>:
    1978: a9bd57f6     	stp	x22, x21, [sp, #-48]!
    197c: a9014ff4     	stp	x20, x19, [sp, #16]
    1980: a9027bfd     	stp	x29, x30, [sp, #32]
    1984: 910083fd     	add	x29, sp, #32
    1988: aa0803f3     	mov	x19, x8
    198c: eb000035     	subs	x21, x1, x0
    1990: 54000380     	b.eq	0x1a00 <__ZN98_$LT$alloc..vec..Vec$LT$T$GT$$u20$as$u20$alloc..vec..spec_from_iter..SpecFromIter$LT$T$C$I$GT$$GT$9from_iter17h9dbcd46843473442E+0x88>
    1994: b27cebe8     	mov	x8, #9223372036854775792
    1998: eb0802bf     	cmp	x21, x8
    199c: 540007a8     	b.hi	0x1a90 <__ZN98_$LT$alloc..vec..Vec$LT$T$GT$$u20$as$u20$alloc..vec..spec_from_iter..SpecFromIter$LT$T$C$I$GT$$GT$9from_iter17h9dbcd46843473442E+0x118>
    19a0: aa0003f4     	mov	x20, x0
    19a4: 90000008     	adrp	x8, 0x1000 <__ZN98_$LT$alloc..vec..Vec$LT$T$GT$$u20$as$u20$alloc..vec..spec_from_iter..SpecFromIter$LT$T$C$I$GT$$GT$9from_iter17h9dbcd46843473442E+0x2c>
    19a8: f9400108     	ldr	x8, [x8]
    19ac: 3940011f     	ldrb	wzr, [x8]
    19b0: 52800116     	mov	w22, #8
    19b4: aa1503e0     	mov	x0, x21
    19b8: 52800101     	mov	w1, #8
    19bc: 94000000     	bl	0x19bc <__ZN98_$LT$alloc..vec..Vec$LT$T$GT$$u20$as$u20$alloc..vec..spec_from_iter..SpecFromIter$LT$T$C$I$GT$$GT$9from_iter17h9dbcd46843473442E+0x44>
    19c0: b40006a0     	cbz	x0, 0x1a94 <__ZN98_$LT$alloc..vec..Vec$LT$T$GT$$u20$as$u20$alloc..vec..spec_from_iter..SpecFromIter$LT$T$C$I$GT$$GT$9from_iter17h9dbcd46843473442E+0x11c>
    19c4: d344fea8     	lsr	x8, x21, #4
    19c8: f10382bf     	cmp	x21, #224
    19cc: 540002a2     	b.hs	0x1a20 <__ZN98_$LT$alloc..vec..Vec$LT$T$GT$$u20$as$u20$alloc..vec..spec_from_iter..SpecFromIter$LT$T$C$I$GT$$GT$9from_iter17h9dbcd46843473442E+0xa8>
    19d0: d2800009     	mov	x9, #0
    19d4: d37ced2a     	lsl	x10, x9, #4
    19d8: cb090109     	sub	x9, x8, x9
    19dc: 8b0a028b     	add	x11, x20, x10
    19e0: 6d400560     	ldp	d0, d1, [x11]
    19e4: 1e614021     	fneg	d1, d1
    19e8: 8b0a000b     	add	x11, x0, x10
    19ec: 6d000560     	stp	d0, d1, [x11]
    19f0: 9100414a     	add	x10, x10, #16
    19f4: f1000529     	subs	x9, x9, #1
    19f8: 54ffff21     	b.ne	0x19dc <__ZN98_$LT$alloc..vec..Vec$LT$T$GT$$u20$as$u20$alloc..vec..spec_from_iter..SpecFromIter$LT$T$C$I$GT$$GT$9from_iter17h9dbcd46843473442E+0x64>
    19fc: 14000003     	b	0x1a08 <__ZN98_$LT$alloc..vec..Vec$LT$T$GT$$u20$as$u20$alloc..vec..spec_from_iter..SpecFromIter$LT$T$C$I$GT$$GT$9from_iter17h9dbcd46843473442E+0x90>
    1a00: d2800008     	mov	x8, #0
    1a04: 52800100     	mov	w0, #8
    1a08: a9000268     	stp	x8, x0, [x19]
    1a0c: f9000a68     	str	x8, [x19, #16]
    1a10: a9427bfd     	ldp	x29, x30, [sp, #32]
    1a14: a9414ff4     	ldp	x20, x19, [sp, #16]
    1a18: a8c357f6     	ldp	x22, x21, [sp], #48
    1a1c: d65f03c0     	ret
    1a20: d2800009     	mov	x9, #0
    1a24: d100050a     	sub	x10, x8, #1
    1a28: d37ced4b     	lsl	x11, x10, #4
    1a2c: 8b0b000c     	add	x12, x0, x11
    1a30: eb00019f     	cmp	x12, x0
    1a34: 54fffd03     	b.lo	0x19d4 <__ZN98_$LT$alloc..vec..Vec$LT$T$GT$$u20$as$u20$alloc..vec..spec_from_iter..SpecFromIter$LT$T$C$I$GT$$GT$9from_iter17h9dbcd46843473442E+0x5c>
    1a38: 9100200c     	add	x12, x0, #8
    1a3c: 8b0b018b     	add	x11, x12, x11
    1a40: eb0c017f     	cmp	x11, x12
    1a44: 54fffc83     	b.lo	0x19d4 <__ZN98_$LT$alloc..vec..Vec$LT$T$GT$$u20$as$u20$alloc..vec..spec_from_iter..SpecFromIter$LT$T$C$I$GT$$GT$9from_iter17h9dbcd46843473442E+0x5c>
    1a48: d37cfd4a     	lsr	x10, x10, #60
    1a4c: b5fffc4a     	cbnz	x10, 0x19d4 <__ZN98_$LT$alloc..vec..Vec$LT$T$GT$$u20$as$u20$alloc..vec..spec_from_iter..SpecFromIter$LT$T$C$I$GT$$GT$9from_iter17h9dbcd46843473442E+0x5c>
    1a50: 927ee109     	and	x9, x8, #0x7fffffffffffffc
    1a54: aa0903eb     	mov	x11, x9
    1a58: 8b0a028c     	add	x12, x20, x10
    1a5c: 4cdf8d80     	ld2.2d	{ v0, v1 }, [x12], #32
    1a60: 6ee0f821     	fneg.2d	v1, v1
    1a64: 4c408d82     	ld2.2d	{ v2, v3 }, [x12]
    1a68: 6ee0f863     	fneg.2d	v3, v3
    1a6c: 8b0a000c     	add	x12, x0, x10
    1a70: 4c9f8d80     	st2.2d	{ v0, v1 }, [x12], #32
    1a74: 4c008d82     	st2.2d	{ v2, v3 }, [x12]
    1a78: 9101014a     	add	x10, x10, #64
    1a7c: f100116b     	subs	x11, x11, #4
    1a80: 54fffec1     	b.ne	0x1a58 <__ZN98_$LT$alloc..vec..Vec$LT$T$GT$$u20$as$u20$alloc..vec..spec_from_iter..SpecFromIter$LT$T$C$I$GT$$GT$9from_iter17h9dbcd46843473442E+0xe0>
    1a84: eb09011f     	cmp	x8, x9
    1a88: 54fffa61     	b.ne	0x19d4 <__ZN98_$LT$alloc..vec..Vec$LT$T$GT$$u20$as$u20$alloc..vec..spec_from_iter..SpecFromIter$LT$T$C$I$GT$$GT$9from_iter17h9dbcd46843473442E+0x5c>
    1a8c: 17ffffdf     	b	0x1a08 <__ZN98_$LT$alloc..vec..Vec$LT$T$GT$$u20$as$u20$alloc..vec..spec_from_iter..SpecFromIter$LT$T$C$I$GT$$GT$9from_iter17h9dbcd46843473442E+0x90>
    1a90: d2800016     	mov	x22, #0
    1a94: aa1603e0     	mov	x0, x22
    1a98: aa1503e1     	mov	x1, x21
    1a9c: 94000000     	bl	0x1a9c <__ZN98_$LT$alloc..vec..Vec$LT$T$GT$$u20$as$u20$alloc..vec..spec_from_iter..SpecFromIter$LT$T$C$I$GT$$GT$9from_iter17h9dbcd46843473442E+0x124>

0000000000001aa0 <__ZN98_$LT$alloc..vec..Vec$LT$T$GT$$u20$as$u20$alloc..vec..spec_from_iter..SpecFromIter$LT$T$C$I$GT$$GT$9from_iter17he008527a584c36ccE>:
    1aa0: a9bc5ff8     	stp	x24, x23, [sp, #-64]!
    1aa4: a90157f6     	stp	x22, x21, [sp, #16]
    1aa8: a9024ff4     	stp	x20, x19, [sp, #32]
    1aac: a9037bfd     	stp	x29, x30, [sp, #48]
    1ab0: 9100c3fd     	add	x29, sp, #48
    1ab4: aa0803f3     	mov	x19, x8
    1ab8: a9422018     	ldp	x24, x8, [x0, #32]
    1abc: eb180117     	subs	x23, x8, x24
    1ac0: 54000061     	b.ne	0x1acc <__ZN98_$LT$alloc..vec..Vec$LT$T$GT$$u20$as$u20$alloc..vec..spec_from_iter..SpecFromIter$LT$T$C$I$GT$$GT$9from_iter17he008527a584c36ccE+0x2c>
    1ac4: 52800080     	mov	w0, #4
    1ac8: 1400002b     	b	0x1b74 <__ZN98_$LT$alloc..vec..Vec$LT$T$GT$$u20$as$u20$alloc..vec..spec_from_iter..SpecFromIter$LT$T$C$I$GT$$GT$9from_iter17he008527a584c36ccE+0xd4>
    1acc: d37ef6f5     	lsl	x21, x23, #2
    1ad0: d37dfee8     	lsr	x8, x23, #61
    1ad4: b5000908     	cbnz	x8, 0x1bf4 <__ZN98_$LT$alloc..vec..Vec$LT$T$GT$$u20$as$u20$alloc..vec..spec_from_iter..SpecFromIter$LT$T$C$I$GT$$GT$9from_iter17he008527a584c36ccE+0x154>
    1ad8: aa0003f4     	mov	x20, x0
    1adc: 90000008     	adrp	x8, 0x1000 <__ZN98_$LT$alloc..vec..Vec$LT$T$GT$$u20$as$u20$alloc..vec..spec_from_iter..SpecFromIter$LT$T$C$I$GT$$GT$9from_iter17he008527a584c36ccE+0x3c>
    1ae0: f9400108     	ldr	x8, [x8]
    1ae4: 3940011f     	ldrb	wzr, [x8]
    1ae8: 52800096     	mov	w22, #4
    1aec: aa1503e0     	mov	x0, x21
    1af0: 52800081     	mov	w1, #4
    1af4: 94000000     	bl	0x1af4 <__ZN98_$LT$alloc..vec..Vec$LT$T$GT$$u20$as$u20$alloc..vec..spec_from_iter..SpecFromIter$LT$T$C$I$GT$$GT$9from_iter17he008527a584c36ccE+0x54>
    1af8: b4000800     	cbz	x0, 0x1bf8 <__ZN98_$LT$alloc..vec..Vec$LT$T$GT$$u20$as$u20$alloc..vec..spec_from_iter..SpecFromIter$LT$T$C$I$GT$$GT$9from_iter17he008527a584c36ccE+0x158>
    1afc: f9400288     	ldr	x8, [x20]
    1b00: f9400a89     	ldr	x9, [x20, #16]
    1b04: d37ef70a     	lsl	x10, x24, #2
    1b08: f10022ff     	cmp	x23, #8
    1b0c: 54000103     	b.lo	0x1b2c <__ZN98_$LT$alloc..vec..Vec$LT$T$GT$$u20$as$u20$alloc..vec..spec_from_iter..SpecFromIter$LT$T$C$I$GT$$GT$9from_iter17he008527a584c36ccE+0x8c>
    1b10: 8b08014b     	add	x11, x10, x8
    1b14: cb0b000b     	sub	x11, x0, x11
    1b18: 8b09014c     	add	x12, x10, x9
    1b1c: cb0c000c     	sub	x12, x0, x12
    1b20: f100417f     	cmp	x11, #16
    1b24: fa502980     	ccmp	x12, #16, #0, hs
    1b28: 54000342     	b.hs	0x1b90 <__ZN98_$LT$alloc..vec..Vec$LT$T$GT$$u20$as$u20$alloc..vec..spec_from_iter..SpecFromIter$LT$T$C$I$GT$$GT$9from_iter17he008527a584c36ccE+0xf0>
    1b2c: d280000b     	mov	x11, #0
    1b30: 8b0a0129     	add	x9, x9, x10
    1b34: 8b0a0108     	add	x8, x8, x10
    1b38: 528390aa     	mov	w10, #7301
    1b3c: 72b554ea     	movk	w10, #43687, lsl #16
    1b40: 5286002c     	mov	w12, #12289
    1b44: d37ef56d     	lsl	x13, x11, #2
    1b48: 9100056e     	add	x14, x11, #1
    1b4c: b86d690b     	ldr	w11, [x8, x13]
    1b50: b86d692f     	ldr	w15, [x9, x13]
    1b54: 1b0b7deb     	mul	w11, w15, w11
    1b58: 9baa7d6f     	umull	x15, w11, w10
    1b5c: d36dfdef     	lsr	x15, x15, #45
    1b60: 1b0cadeb     	msub	w11, w15, w12, w11
    1b64: b82d680b     	str	w11, [x0, x13]
    1b68: aa0e03eb     	mov	x11, x14
    1b6c: eb0e02ff     	cmp	x23, x14
    1b70: 54fffea1     	b.ne	0x1b44 <__ZN98_$LT$alloc..vec..Vec$LT$T$GT$$u20$as$u20$alloc..vec..spec_from_iter..SpecFromIter$LT$T$C$I$GT$$GT$9from_iter17he008527a584c36ccE+0xa4>
    1b74: a9000277     	stp	x23, x0, [x19]
    1b78: f9000a77     	str	x23, [x19, #16]
    1b7c: a9437bfd     	ldp	x29, x30, [sp, #48]
    1b80: a9424ff4     	ldp	x20, x19, [sp, #32]
    1b84: a94157f6     	ldp	x22, x21, [sp, #16]
    1b88: a8c45ff8     	ldp	x24, x23, [sp], #64
    1b8c: d65f03c0     	ret
    1b90: d280000c     	mov	x12, #0
    1b94: 927eeaeb     	and	x11, x23, #0x1ffffffffffffffc
    1b98: 8b0a012d     	add	x13, x9, x10
    1b9c: 8b0a010e     	add	x14, x8, x10
    1ba0: 528390af     	mov	w15, #7301
    1ba4: 72b554ef     	movk	w15, #43687, lsl #16
    1ba8: 4e040de0     	dup.4s	v0, w15
    1bac: 5286002f     	mov	w15, #12289
    1bb0: 4e040de1     	dup.4s	v1, w15
    1bb4: aa0b03ef     	mov	x15, x11
    1bb8: 3cec69c2     	ldr	q2, [x14, x12]
    1bbc: 3cec69a3     	ldr	q3, [x13, x12]
    1bc0: 4ea29c62     	mul.4s	v2, v3, v2
    1bc4: 6ea0c043     	umull2.2d	v3, v2, v0
    1bc8: 2ea0c044     	umull.2d	v4, v2, v0
    1bcc: 4e835883     	uzp2.4s	v3, v4, v3
    1bd0: 6f330463     	ushr.4s	v3, v3, #13
    1bd4: 6ea19462     	mls.4s	v2, v3, v1
    1bd8: 3cac6802     	str	q2, [x0, x12]
    1bdc: 9100418c     	add	x12, x12, #16
    1be0: f10011ef     	subs	x15, x15, #4
    1be4: 54fffea1     	b.ne	0x1bb8 <__ZN98_$LT$alloc..vec..Vec$LT$T$GT$$u20$as$u20$alloc..vec..spec_from_iter..SpecFromIter$LT$T$C$I$GT$$GT$9from_iter17he008527a584c36ccE+0x118>
    1be8: eb0b02ff     	cmp	x23, x11
    1bec: 54fffc40     	b.eq	0x1b74 <__ZN98_$LT$alloc..vec..Vec$LT$T$GT$$u20$as$u20$alloc..vec..spec_from_iter..SpecFromIter$LT$T$C$I$GT$$GT$9from_iter17he008527a584c36ccE+0xd4>
    1bf0: 17ffffd0     	b	0x1b30 <__ZN98_$LT$alloc..vec..Vec$LT$T$GT$$u20$as$u20$alloc..vec..spec_from_iter..SpecFromIter$LT$T$C$I$GT$$GT$9from_iter17he008527a584c36ccE+0x90>
    1bf4: d2800016     	mov	x22, #0
    1bf8: aa1603e0     	mov	x0, x22
    1bfc: aa1503e1     	mov	x1, x21
    1c00: 94000000     	bl	0x1c00 <__ZN98_$LT$alloc..vec..Vec$LT$T$GT$$u20$as$u20$alloc..vec..spec_from_iter..SpecFromIter$LT$T$C$I$GT$$GT$9from_iter17he008527a584c36ccE+0x160>

0000000000001c04 <__ZN98_$LT$alloc..vec..Vec$LT$T$GT$$u20$as$u20$alloc..vec..spec_from_iter..SpecFromIter$LT$T$C$I$GT$$GT$9from_iter17h8fe5a53b7a0b76b2E>:
    1c04: a9bb67fa     	stp	x26, x25, [sp, #-80]!
    1c08: a9015ff8     	stp	x24, x23, [sp, #16]
    1c0c: a90257f6     	stp	x22, x21, [sp, #32]
    1c10: a9034ff4     	stp	x20, x19, [sp, #48]
    1c14: a9047bfd     	stp	x29, x30, [sp, #64]
    1c18: 910103fd     	add	x29, sp, #64
    1c1c: aa0803f3     	mov	x19, x8
    1c20: a9426418     	ldp	x24, x25, [x0, #32]
    1c24: eb180337     	subs	x23, x25, x24
    1c28: 54000061     	b.ne	0x1c34 <__ZN98_$LT$alloc..vec..Vec$LT$T$GT$$u20$as$u20$alloc..vec..spec_from_iter..SpecFromIter$LT$T$C$I$GT$$GT$9from_iter17h8fe5a53b7a0b76b2E+0x30>
    1c2c: 52800100     	mov	w0, #8
    1c30: 14000030     	b	0x1cf0 <__ZN98_$LT$alloc..vec..Vec$LT$T$GT$$u20$as$u20$alloc..vec..spec_from_iter..SpecFromIter$LT$T$C$I$GT$$GT$9from_iter17h8fe5a53b7a0b76b2E+0xec>
    1c34: d37ceef5     	lsl	x21, x23, #4
    1c38: d37bfee8     	lsr	x8, x23, #59
    1c3c: b5000ca8     	cbnz	x8, 0x1dd0 <__ZN98_$LT$alloc..vec..Vec$LT$T$GT$$u20$as$u20$alloc..vec..spec_from_iter..SpecFromIter$LT$T$C$I$GT$$GT$9from_iter17h8fe5a53b7a0b76b2E+0x1cc>
    1c40: aa0003f4     	mov	x20, x0
    1c44: 90000008     	adrp	x8, 0x1000 <__ZN98_$LT$alloc..vec..Vec$LT$T$GT$$u20$as$u20$alloc..vec..spec_from_iter..SpecFromIter$LT$T$C$I$GT$$GT$9from_iter17h8fe5a53b7a0b76b2E+0x40>
    1c48: f9400108     	ldr	x8, [x8]
    1c4c: 3940011f     	ldrb	wzr, [x8]
    1c50: 52800116     	mov	w22, #8
    1c54: aa1503e0     	mov	x0, x21
    1c58: 52800101     	mov	w1, #8
    1c5c: 94000000     	bl	0x1c5c <__ZN98_$LT$alloc..vec..Vec$LT$T$GT$$u20$as$u20$alloc..vec..spec_from_iter..SpecFromIter$LT$T$C$I$GT$$GT$9from_iter17h8fe5a53b7a0b76b2E+0x58>
    1c60: b4000ba0     	cbz	x0, 0x1dd4 <__ZN98_$LT$alloc..vec..Vec$LT$T$GT$$u20$as$u20$alloc..vec..spec_from_iter..SpecFromIter$LT$T$C$I$GT$$GT$9from_iter17h8fe5a53b7a0b76b2E+0x1d0>
    1c64: f9400288     	ldr	x8, [x20]
    1c68: f9400a8a     	ldr	x10, [x20, #16]
    1c6c: f1002aff     	cmp	x23, #10
    1c70: 54000183     	b.lo	0x1ca0 <__ZN98_$LT$alloc..vec..Vec$LT$T$GT$$u20$as$u20$alloc..vec..spec_from_iter..SpecFromIter$LT$T$C$I$GT$$GT$9from_iter17h8fe5a53b7a0b76b2E+0x9c>
    1c74: aa3803e9     	mvn	x9, x24
    1c78: 8b090329     	add	x9, x25, x9
    1c7c: d37ced2b     	lsl	x11, x9, #4
    1c80: 9100200c     	add	x12, x0, #8
    1c84: 8b0b018d     	add	x13, x12, x11
    1c88: 8b0b000b     	add	x11, x0, x11
    1c8c: eb00017f     	cmp	x11, x0
    1c90: fa4c21a0     	ccmp	x13, x12, #0, hs
    1c94: d37cfd29     	lsr	x9, x9, #60
    1c98: fa402920     	ccmp	x9, #0, #0, hs
    1c9c: 540003a0     	b.eq	0x1d10 <__ZN98_$LT$alloc..vec..Vec$LT$T$GT$$u20$as$u20$alloc..vec..spec_from_iter..SpecFromIter$LT$T$C$I$GT$$GT$9from_iter17h8fe5a53b7a0b76b2E+0x10c>
    1ca0: d2800009     	mov	x9, #0
    1ca4: 8b18012b     	add	x11, x9, x24
    1ca8: 8b0b114a     	add	x10, x10, x11, lsl #4
    1cac: 9100214a     	add	x10, x10, #8
    1cb0: 8b181108     	add	x8, x8, x24, lsl #4
    1cb4: d37ced2b     	lsl	x11, x9, #4
    1cb8: 6d7f8540     	ldp	d0, d1, [x10, #-8]
    1cbc: 3ceb6902     	ldr	q2, [x8, x11]
    1cc0: 4fc19041     	fmul.2d	v1, v2, v1[0]
    1cc4: 6e014021     	ext.16b	v1, v1, v1, #8
    1cc8: 4fc09040     	fmul.2d	v0, v2, v0[0]
    1ccc: 4ee1d402     	fsub.2d	v2, v0, v1
    1cd0: 4e61d400     	fadd.2d	v0, v0, v1
    1cd4: 6e184402     	mov.d	v2[1], v0[1]
    1cd8: 9100052c     	add	x12, x9, #1
    1cdc: 3cab6802     	str	q2, [x0, x11]
    1ce0: 9100414a     	add	x10, x10, #16
    1ce4: aa0c03e9     	mov	x9, x12
    1ce8: eb0c02ff     	cmp	x23, x12
    1cec: 54fffe41     	b.ne	0x1cb4 <__ZN98_$LT$alloc..vec..Vec$LT$T$GT$$u20$as$u20$alloc..vec..spec_from_iter..SpecFromIter$LT$T$C$I$GT$$GT$9from_iter17h8fe5a53b7a0b76b2E+0xb0>
    1cf0: a9000277     	stp	x23, x0, [x19]
    1cf4: f9000a77     	str	x23, [x19, #16]
    1cf8: a9447bfd     	ldp	x29, x30, [sp, #64]
    1cfc: a9434ff4     	ldp	x20, x19, [sp, #48]
    1d00: a94257f6     	ldp	x22, x21, [sp, #32]
    1d04: a9415ff8     	ldp	x24, x23, [sp, #16]
    1d08: a8c567fa     	ldp	x26, x25, [sp], #80
    1d0c: d65f03c0     	ret
    1d10: d2800009     	mov	x9, #0
    1d14: d37cef2b     	lsl	x11, x25, #4
    1d18: d37cef0d     	lsl	x13, x24, #4
    1d1c: cb0d016c     	sub	x12, x11, x13
    1d20: 8b0c000c     	add	x12, x0, x12
    1d24: 8b0b010e     	add	x14, x8, x11
    1d28: 8b0d014f     	add	x15, x10, x13
    1d2c: 8b0b014b     	add	x11, x10, x11
    1d30: eb0b001f     	cmp	x0, x11
    1d34: fa4c31e2     	ccmp	x15, x12, #2, lo
    1d38: 1a9f27eb     	cset	w11, lo
    1d3c: 8b0d010f     	add	x15, x8, x13
    1d40: eb0c01ff     	cmp	x15, x12
    1d44: fa4e3002     	ccmp	x0, x14, #2, lo
    1d48: 54fffae3     	b.lo	0x1ca4 <__ZN98_$LT$alloc..vec..Vec$LT$T$GT$$u20$as$u20$alloc..vec..spec_from_iter..SpecFromIter$LT$T$C$I$GT$$GT$9from_iter17h8fe5a53b7a0b76b2E+0xa0>
    1d4c: 3707facb     	tbnz	w11, #0, 0x1ca4 <__ZN98_$LT$alloc..vec..Vec$LT$T$GT$$u20$as$u20$alloc..vec..spec_from_iter..SpecFromIter$LT$T$C$I$GT$$GT$9from_iter17h8fe5a53b7a0b76b2E+0xa0>
    1d50: d280000b     	mov	x11, #0
    1d54: 927ee2e9     	and	x9, x23, #0x7fffffffffffffc
    1d58: 8b0d010c     	add	x12, x8, x13
    1d5c: 8b0d014d     	add	x13, x10, x13
    1d60: aa0903ee     	mov	x14, x9
    1d64: 8b0b018f     	add	x15, x12, x11
    1d68: 4cdf8de0     	ld2.2d	{ v0, v1 }, [x15], #32
    1d6c: 4c408de2     	ld2.2d	{ v2, v3 }, [x15]
    1d70: 8b0b01af     	add	x15, x13, x11
    1d74: 4cdf8de4     	ld2.2d	{ v4, v5 }, [x15], #32
    1d78: 4c408de6     	ld2.2d	{ v6, v7 }, [x15]
    1d7c: 6e64dc10     	fmul.2d	v16, v0, v4
    1d80: 6e66dc51     	fmul.2d	v17, v2, v6
    1d84: 6e65dc32     	fmul.2d	v18, v1, v5
    1d88: 6e67dc73     	fmul.2d	v19, v3, v7
    1d8c: 4ef2d614     	fsub.2d	v20, v16, v18
    1d90: 6e65dc10     	fmul.2d	v16, v0, v5
    1d94: 6e64dc20     	fmul.2d	v0, v1, v4
    1d98: 4e70d415     	fadd.2d	v21, v0, v16
    1d9c: 4ef3d620     	fsub.2d	v0, v17, v19
    1da0: 6e67dc44     	fmul.2d	v4, v2, v7
    1da4: 6e66dc62     	fmul.2d	v2, v3, v6
    1da8: 4e64d441     	fadd.2d	v1, v2, v4
    1dac: 8b0b000f     	add	x15, x0, x11
    1db0: 4c9f8df4     	st2.2d	{ v20, v21 }, [x15], #32
    1db4: 4c008de0     	st2.2d	{ v0, v1 }, [x15]
    1db8: 9101016b     	add	x11, x11, #64
    1dbc: f10011ce     	subs	x14, x14, #4
    1dc0: 54fffd21     	b.ne	0x1d64 <__ZN98_$LT$alloc..vec..Vec$LT$T$GT$$u20$as$u20$alloc..vec..spec_from_iter..SpecFromIter$LT$T$C$I$GT$$GT$9from_iter17h8fe5a53b7a0b76b2E+0x160>
    1dc4: eb0902ff     	cmp	x23, x9
    1dc8: 54fff6e1     	b.ne	0x1ca4 <__ZN98_$LT$alloc..vec..Vec$LT$T$GT$$u20$as$u20$alloc..vec..spec_from_iter..SpecFromIter$LT$T$C$I$GT$$GT$9from_iter17h8fe5a53b7a0b76b2E+0xa0>
    1dcc: 17ffffc9     	b	0x1cf0 <__ZN98_$LT$alloc..vec..Vec$LT$T$GT$$u20$as$u20$alloc..vec..spec_from_iter..SpecFromIter$LT$T$C$I$GT$$GT$9from_iter17h8fe5a53b7a0b76b2E+0xec>
    1dd0: d2800016     	mov	x22, #0
    1dd4: aa1603e0     	mov	x0, x22
    1dd8: aa1503e1     	mov	x1, x21
    1ddc: 94000000     	bl	0x1ddc <__ZN98_$LT$alloc..vec..Vec$LT$T$GT$$u20$as$u20$alloc..vec..spec_from_iter..SpecFromIter$LT$T$C$I$GT$$GT$9from_iter17h8fe5a53b7a0b76b2E+0x1d8>

0000000000001de0 <__ZN98_$LT$alloc..vec..Vec$LT$T$GT$$u20$as$u20$alloc..vec..spec_from_iter..SpecFromIter$LT$T$C$I$GT$$GT$9from_iter17h5ac9da5e8384485dE>:
    1de0: a9bb67fa     	stp	x26, x25, [sp, #-80]!
    1de4: a9015ff8     	stp	x24, x23, [sp, #16]
    1de8: a90257f6     	stp	x22, x21, [sp, #32]
    1dec: a9034ff4     	stp	x20, x19, [sp, #48]
    1df0: a9047bfd     	stp	x29, x30, [sp, #64]
    1df4: 910103fd     	add	x29, sp, #64
    1df8: aa0803f3     	mov	x19, x8
    1dfc: f9400418     	ldr	x24, [x0, #8]
    1e00: b40002b8     	cbz	x24, 0x1e54 <__ZN98_$LT$alloc..vec..Vec$LT$T$GT$$u20$as$u20$alloc..vec..spec_from_iter..SpecFromIter$LT$T$C$I$GT$$GT$9from_iter17h5ac9da5e8384485dE+0x74>
    1e04: aa0003f4     	mov	x20, x0
    1e08: f9400819     	ldr	x25, [x0, #16]
    1e0c: b4000959     	cbz	x25, 0x1f34 <__ZN98_$LT$alloc..vec..Vec$LT$T$GT$$u20$as$u20$alloc..vec..spec_from_iter..SpecFromIter$LT$T$C$I$GT$$GT$9from_iter17h5ac9da5e8384485dE+0x154>
    1e10: 9ad90b08     	udiv	x8, x24, x25
    1e14: 9b19e109     	msub	x9, x8, x25, x24
    1e18: f100013f     	cmp	x9, #0
    1e1c: 9a880517     	cinc	x23, x8, ne
    1e20: b4000317     	cbz	x23, 0x1e80 <__ZN98_$LT$alloc..vec..Vec$LT$T$GT$$u20$as$u20$alloc..vec..spec_from_iter..SpecFromIter$LT$T$C$I$GT$$GT$9from_iter17h5ac9da5e8384485dE+0xa0>
    1e24: d37ffaf5     	lsl	x21, x23, #1
    1e28: d37efee8     	lsr	x8, x23, #62
    1e2c: b50008a8     	cbnz	x8, 0x1f40 <__ZN98_$LT$alloc..vec..Vec$LT$T$GT$$u20$as$u20$alloc..vec..spec_from_iter..SpecFromIter$LT$T$C$I$GT$$GT$9from_iter17h5ac9da5e8384485dE+0x160>
    1e30: 90000008     	adrp	x8, 0x1000 <__ZN98_$LT$alloc..vec..Vec$LT$T$GT$$u20$as$u20$alloc..vec..spec_from_iter..SpecFromIter$LT$T$C$I$GT$$GT$9from_iter17h5ac9da5e8384485dE+0x50>
    1e34: f9400108     	ldr	x8, [x8]
    1e38: 3940011f     	ldrb	wzr, [x8]
    1e3c: 52800056     	mov	w22, #2
    1e40: aa1503e0     	mov	x0, x21
    1e44: 52800041     	mov	w1, #2
    1e48: 94000000     	bl	0x1e48 <__ZN98_$LT$alloc..vec..Vec$LT$T$GT$$u20$as$u20$alloc..vec..spec_from_iter..SpecFromIter$LT$T$C$I$GT$$GT$9from_iter17h5ac9da5e8384485dE+0x68>
    1e4c: b50001c0     	cbnz	x0, 0x1e84 <__ZN98_$LT$alloc..vec..Vec$LT$T$GT$$u20$as$u20$alloc..vec..spec_from_iter..SpecFromIter$LT$T$C$I$GT$$GT$9from_iter17h5ac9da5e8384485dE+0xa4>
    1e50: 1400003d     	b	0x1f44 <__ZN98_$LT$alloc..vec..Vec$LT$T$GT$$u20$as$u20$alloc..vec..spec_from_iter..SpecFromIter$LT$T$C$I$GT$$GT$9from_iter17h5ac9da5e8384485dE+0x164>
    1e54: d2800017     	mov	x23, #0
    1e58: d2800008     	mov	x8, #0
    1e5c: 52800040     	mov	w0, #2
    1e60: a9000277     	stp	x23, x0, [x19]
    1e64: f9000a68     	str	x8, [x19, #16]
    1e68: a9447bfd     	ldp	x29, x30, [sp, #64]
    1e6c: a9434ff4     	ldp	x20, x19, [sp, #48]
    1e70: a94257f6     	ldp	x22, x21, [sp, #32]
    1e74: a9415ff8     	ldp	x24, x23, [sp, #16]
    1e78: a8c567fa     	ldp	x26, x25, [sp], #80
    1e7c: d65f03c0     	ret
    1e80: 52800040     	mov	w0, #2
    1e84: d2800008     	mov	x8, #0
    1e88: f9400289     	ldr	x9, [x20]
    1e8c: 14000006     	b	0x1ea4 <__ZN98_$LT$alloc..vec..Vec$LT$T$GT$$u20$as$u20$alloc..vec..spec_from_iter..SpecFromIter$LT$T$C$I$GT$$GT$9from_iter17h5ac9da5e8384485dE+0xc4>
    1e90: 7828780c     	strh	w12, [x0, x8, lsl #1]
    1e94: 91000508     	add	x8, x8, #1
    1e98: 8b0a0529     	add	x9, x9, x10, lsl #1
    1e9c: eb0a0318     	subs	x24, x24, x10
    1ea0: 54fffe00     	b.eq	0x1e60 <__ZN98_$LT$alloc..vec..Vec$LT$T$GT$$u20$as$u20$alloc..vec..spec_from_iter..SpecFromIter$LT$T$C$I$GT$$GT$9from_iter17h5ac9da5e8384485dE+0x80>
    1ea4: eb19031f     	cmp	x24, x25
    1ea8: 9a99330a     	csel	x10, x24, x25, lo
    1eac: f100815f     	cmp	x10, #32
    1eb0: 54000082     	b.hs	0x1ec0 <__ZN98_$LT$alloc..vec..Vec$LT$T$GT$$u20$as$u20$alloc..vec..spec_from_iter..SpecFromIter$LT$T$C$I$GT$$GT$9from_iter17h5ac9da5e8384485dE+0xe0>
    1eb4: 5280000c     	mov	w12, #0
    1eb8: d280000b     	mov	x11, #0
    1ebc: 14000017     	b	0x1f18 <__ZN98_$LT$alloc..vec..Vec$LT$T$GT$$u20$as$u20$alloc..vec..spec_from_iter..SpecFromIter$LT$T$C$I$GT$$GT$9from_iter17h5ac9da5e8384485dE+0x138>
    1ec0: 927be94b     	and	x11, x10, #0xffffffffffffffe0
    1ec4: 9100812c     	add	x12, x9, #32
    1ec8: 6f00e400     	movi.2d	v0, #0000000000000000
    1ecc: aa0b03ed     	mov	x13, x11
    1ed0: 6f00e401     	movi.2d	v1, #0000000000000000
    1ed4: 6f00e402     	movi.2d	v2, #0000000000000000
    1ed8: 6f00e403     	movi.2d	v3, #0000000000000000
    1edc: ad7f1584     	ldp	q4, q5, [x12, #-32]
    1ee0: acc21d86     	ldp	q6, q7, [x12], #64
    1ee4: 4e608480     	add.8h	v0, v4, v0
    1ee8: 4e6184a1     	add.8h	v1, v5, v1
    1eec: 4e6284c2     	add.8h	v2, v6, v2
    1ef0: 4e6384e3     	add.8h	v3, v7, v3
    1ef4: f10081ad     	subs	x13, x13, #32
    1ef8: 54ffff21     	b.ne	0x1edc <__ZN98_$LT$alloc..vec..Vec$LT$T$GT$$u20$as$u20$alloc..vec..spec_from_iter..SpecFromIter$LT$T$C$I$GT$$GT$9from_iter17h5ac9da5e8384485dE+0xfc>
    1efc: 4e608420     	add.8h	v0, v1, v0
    1f00: 4e608440     	add.8h	v0, v2, v0
    1f04: 4e608460     	add.8h	v0, v3, v0
    1f08: 4e71b800     	addv.8h	h0, v0
    1f0c: 1e26000c     	fmov	w12, s0
    1f10: eb0b015f     	cmp	x10, x11
    1f14: 54fffbe0     	b.eq	0x1e90 <__ZN98_$LT$alloc..vec..Vec$LT$T$GT$$u20$as$u20$alloc..vec..spec_from_iter..SpecFromIter$LT$T$C$I$GT$$GT$9from_iter17h5ac9da5e8384485dE+0xb0>
    1f18: cb0b014d     	sub	x13, x10, x11
    1f1c: 8b0b052b     	add	x11, x9, x11, lsl #1
    1f20: 7840256e     	ldrh	w14, [x11], #2
    1f24: 0b0c01cc     	add	w12, w14, w12
    1f28: f10005ad     	subs	x13, x13, #1
    1f2c: 54ffffa1     	b.ne	0x1f20 <__ZN98_$LT$alloc..vec..Vec$LT$T$GT$$u20$as$u20$alloc..vec..spec_from_iter..SpecFromIter$LT$T$C$I$GT$$GT$9from_iter17h5ac9da5e8384485dE+0x140>
    1f30: 17ffffd8     	b	0x1e90 <__ZN98_$LT$alloc..vec..Vec$LT$T$GT$$u20$as$u20$alloc..vec..spec_from_iter..SpecFromIter$LT$T$C$I$GT$$GT$9from_iter17h5ac9da5e8384485dE+0xb0>
    1f34: 90000000     	adrp	x0, 0x1000 <__ZN98_$LT$alloc..vec..Vec$LT$T$GT$$u20$as$u20$alloc..vec..spec_from_iter..SpecFromIter$LT$T$C$I$GT$$GT$9from_iter17h5ac9da5e8384485dE+0x154>
    1f38: 91000000     	add	x0, x0, #0
    1f3c: 94000000     	bl	0x1f3c <__ZN98_$LT$alloc..vec..Vec$LT$T$GT$$u20$as$u20$alloc..vec..spec_from_iter..SpecFromIter$LT$T$C$I$GT$$GT$9from_iter17h5ac9da5e8384485dE+0x15c>
    1f40: d2800016     	mov	x22, #0
    1f44: aa1603e0     	mov	x0, x22
    1f48: aa1503e1     	mov	x1, x21
    1f4c: 94000000     	bl	0x1f4c <__ZN98_$LT$alloc..vec..Vec$LT$T$GT$$u20$as$u20$alloc..vec..spec_from_iter..SpecFromIter$LT$T$C$I$GT$$GT$9from_iter17h5ac9da5e8384485dE+0x16c>

0000000000001f50 <__ZN98_$LT$alloc..vec..Vec$LT$T$GT$$u20$as$u20$alloc..vec..spec_from_iter..SpecFromIter$LT$T$C$I$GT$$GT$9from_iter17h615d16c8effd4f0bE>:
    1f50: d10243ff     	sub	sp, sp, #144
    1f54: a9055ff8     	stp	x24, x23, [sp, #80]
    1f58: a90657f6     	stp	x22, x21, [sp, #96]
    1f5c: a9074ff4     	stp	x20, x19, [sp, #112]
    1f60: a9087bfd     	stp	x29, x30, [sp, #128]
    1f64: 910203fd     	add	x29, sp, #128
    1f68: aa0003f4     	mov	x20, x0
    1f6c: aa0803f3     	mov	x19, x8
    1f70: a9405c16     	ldp	x22, x23, [x0]
    1f74: eb1602f8     	subs	x24, x23, x22
    1f78: 54000180     	b.eq	0x1fa8 <__ZN98_$LT$alloc..vec..Vec$LT$T$GT$$u20$as$u20$alloc..vec..spec_from_iter..SpecFromIter$LT$T$C$I$GT$$GT$9from_iter17h615d16c8effd4f0bE+0x58>
    1f7c: d341ff15     	lsr	x21, x24, #1
    1f80: 90000008     	adrp	x8, 0x1000 <__ZN98_$LT$alloc..vec..Vec$LT$T$GT$$u20$as$u20$alloc..vec..spec_from_iter..SpecFromIter$LT$T$C$I$GT$$GT$9from_iter17h615d16c8effd4f0bE+0x30>
    1f84: f9400108     	ldr	x8, [x8]
    1f88: 3940011f     	ldrb	wzr, [x8]
    1f8c: aa1503e0     	mov	x0, x21
    1f90: 52800101     	mov	w1, #8
    1f94: 94000000     	bl	0x1f94 <__ZN98_$LT$alloc..vec..Vec$LT$T$GT$$u20$as$u20$alloc..vec..spec_from_iter..SpecFromIter$LT$T$C$I$GT$$GT$9from_iter17h615d16c8effd4f0bE+0x44>
    1f98: b4000340     	cbz	x0, 0x2000 <__ZN98_$LT$alloc..vec..Vec$LT$T$GT$$u20$as$u20$alloc..vec..spec_from_iter..SpecFromIter$LT$T$C$I$GT$$GT$9from_iter17h615d16c8effd4f0bE+0xb0>
    1f9c: d345ff08     	lsr	x8, x24, #5
    1fa0: f90007e8     	str	x8, [sp, #8]
    1fa4: 14000003     	b	0x1fb0 <__ZN98_$LT$alloc..vec..Vec$LT$T$GT$$u20$as$u20$alloc..vec..spec_from_iter..SpecFromIter$LT$T$C$I$GT$$GT$9from_iter17h615d16c8effd4f0bE+0x60>
    1fa8: 52800100     	mov	w0, #8
    1fac: f90007ff     	str	xzr, [sp, #8]
    1fb0: a9017fe0     	stp	x0, xzr, [sp, #16]
    1fb4: 910023e8     	add	x8, sp, #8
    1fb8: 91004108     	add	x8, x8, #16
    1fbc: f9400a89     	ldr	x9, [x20, #16]
    1fc0: a9025ff6     	stp	x22, x23, [sp, #32]
    1fc4: a90323e9     	stp	x9, x8, [sp, #48]
    1fc8: a90403ff     	stp	xzr, x0, [sp, #64]
    1fcc: 910083e0     	add	x0, sp, #32
    1fd0: 9100e3e1     	add	x1, sp, #56
    1fd4: 94000000     	bl	0x1fd4 <__ZN98_$LT$alloc..vec..Vec$LT$T$GT$$u20$as$u20$alloc..vec..spec_from_iter..SpecFromIter$LT$T$C$I$GT$$GT$9from_iter17h615d16c8effd4f0bE+0x84>
    1fd8: 3cc083e0     	ldur	q0, [sp, #8]
    1fdc: 3d800260     	str	q0, [x19]
    1fe0: f9400fe8     	ldr	x8, [sp, #24]
    1fe4: f9000a68     	str	x8, [x19, #16]
    1fe8: a9487bfd     	ldp	x29, x30, [sp, #128]
    1fec: a9474ff4     	ldp	x20, x19, [sp, #112]
    1ff0: a94657f6     	ldp	x22, x21, [sp, #96]
    1ff4: a9455ff8     	ldp	x24, x23, [sp, #80]
    1ff8: 910243ff     	add	sp, sp, #144
    1ffc: d65f03c0     	ret
    2000: 52800100     	mov	w0, #8
    2004: aa1503e1     	mov	x1, x21
    2008: 94000000     	bl	0x2008 <__ZN98_$LT$alloc..vec..Vec$LT$T$GT$$u20$as$u20$alloc..vec..spec_from_iter..SpecFromIter$LT$T$C$I$GT$$GT$9from_iter17h615d16c8effd4f0bE+0xb8>
    200c: aa0003f3     	mov	x19, x0
    2010: f94007e8     	ldr	x8, [sp, #8]
    2014: b40000a8     	cbz	x8, 0x2028 <__ZN98_$LT$alloc..vec..Vec$LT$T$GT$$u20$as$u20$alloc..vec..spec_from_iter..SpecFromIter$LT$T$C$I$GT$$GT$9from_iter17h615d16c8effd4f0bE+0xd8>
    2018: f9400be0     	ldr	x0, [sp, #16]
    201c: d37ced01     	lsl	x1, x8, #4
    2020: 52800102     	mov	w2, #8
    2024: 94000000     	bl	0x2024 <__ZN98_$LT$alloc..vec..Vec$LT$T$GT$$u20$as$u20$alloc..vec..spec_from_iter..SpecFromIter$LT$T$C$I$GT$$GT$9from_iter17h615d16c8effd4f0bE+0xd4>
    2028: aa1303e0     	mov	x0, x19
    202c: 94000000     	bl	0x202c <__ZN98_$LT$alloc..vec..Vec$LT$T$GT$$u20$as$u20$alloc..vec..spec_from_iter..SpecFromIter$LT$T$C$I$GT$$GT$9from_iter17h615d16c8effd4f0bE+0xdc>

0000000000002030 <__ZN98_$LT$alloc..vec..Vec$LT$T$GT$$u20$as$u20$alloc..vec..spec_from_iter..SpecFromIter$LT$T$C$I$GT$$GT$9from_iter17h6698fe223949b52aE>:
    2030: d10243ff     	sub	sp, sp, #144
    2034: a9055ff8     	stp	x24, x23, [sp, #80]
    2038: a90657f6     	stp	x22, x21, [sp, #96]
    203c: a9074ff4     	stp	x20, x19, [sp, #112]
    2040: a9087bfd     	stp	x29, x30, [sp, #128]
    2044: 910203fd     	add	x29, sp, #128
    2048: aa0003f4     	mov	x20, x0
    204c: aa0803f3     	mov	x19, x8
    2050: a9405c16     	ldp	x22, x23, [x0]
    2054: eb1602f8     	subs	x24, x23, x22
    2058: 54000180     	b.eq	0x2088 <__ZN98_$LT$alloc..vec..Vec$LT$T$GT$$u20$as$u20$alloc..vec..spec_from_iter..SpecFromIter$LT$T$C$I$GT$$GT$9from_iter17h6698fe223949b52aE+0x58>
    205c: d341ff15     	lsr	x21, x24, #1
    2060: 90000008     	adrp	x8, 0x2000 <__ZN98_$LT$alloc..vec..Vec$LT$T$GT$$u20$as$u20$alloc..vec..spec_from_iter..SpecFromIter$LT$T$C$I$GT$$GT$9from_iter17h6698fe223949b52aE+0x30>
    2064: f9400108     	ldr	x8, [x8]
    2068: 3940011f     	ldrb	wzr, [x8]
    206c: aa1503e0     	mov	x0, x21
    2070: 52800101     	mov	w1, #8
    2074: 94000000     	bl	0x2074 <__ZN98_$LT$alloc..vec..Vec$LT$T$GT$$u20$as$u20$alloc..vec..spec_from_iter..SpecFromIter$LT$T$C$I$GT$$GT$9from_iter17h6698fe223949b52aE+0x44>
    2078: b4000340     	cbz	x0, 0x20e0 <__ZN98_$LT$alloc..vec..Vec$LT$T$GT$$u20$as$u20$alloc..vec..spec_from_iter..SpecFromIter$LT$T$C$I$GT$$GT$9from_iter17h6698fe223949b52aE+0xb0>
    207c: d345ff08     	lsr	x8, x24, #5
    2080: f90007e8     	str	x8, [sp, #8]
    2084: 14000003     	b	0x2090 <__ZN98_$LT$alloc..vec..Vec$LT$T$GT$$u20$as$u20$alloc..vec..spec_from_iter..SpecFromIter$LT$T$C$I$GT$$GT$9from_iter17h6698fe223949b52aE+0x60>
    2088: 52800100     	mov	w0, #8
    208c: f90007ff     	str	xzr, [sp, #8]
    2090: a9017fe0     	stp	x0, xzr, [sp, #16]
    2094: 910023e8     	add	x8, sp, #8
    2098: 91004108     	add	x8, x8, #16
    209c: f9400a89     	ldr	x9, [x20, #16]
    20a0: a9025ff6     	stp	x22, x23, [sp, #32]
    20a4: a90323e9     	stp	x9, x8, [sp, #48]
    20a8: a90403ff     	stp	xzr, x0, [sp, #64]
    20ac: 910083e0     	add	x0, sp, #32
    20b0: 9100e3e1     	add	x1, sp, #56
    20b4: 94000000     	bl	0x20b4 <__ZN98_$LT$alloc..vec..Vec$LT$T$GT$$u20$as$u20$alloc..vec..spec_from_iter..SpecFromIter$LT$T$C$I$GT$$GT$9from_iter17h6698fe223949b52aE+0x84>
    20b8: 3cc083e0     	ldur	q0, [sp, #8]
    20bc: 3d800260     	str	q0, [x19]
    20c0: f9400fe8     	ldr	x8, [sp, #24]
    20c4: f9000a68     	str	x8, [x19, #16]
    20c8: a9487bfd     	ldp	x29, x30, [sp, #128]
    20cc: a9474ff4     	ldp	x20, x19, [sp, #112]
    20d0: a94657f6     	ldp	x22, x21, [sp, #96]
    20d4: a9455ff8     	ldp	x24, x23, [sp, #80]
    20d8: 910243ff     	add	sp, sp, #144
    20dc: d65f03c0     	ret
    20e0: 52800100     	mov	w0, #8
    20e4: aa1503e1     	mov	x1, x21
    20e8: 94000000     	bl	0x20e8 <__ZN98_$LT$alloc..vec..Vec$LT$T$GT$$u20$as$u20$alloc..vec..spec_from_iter..SpecFromIter$LT$T$C$I$GT$$GT$9from_iter17h6698fe223949b52aE+0xb8>
    20ec: aa0003f3     	mov	x19, x0
    20f0: f94007e8     	ldr	x8, [sp, #8]
    20f4: b40000a8     	cbz	x8, 0x2108 <__ZN98_$LT$alloc..vec..Vec$LT$T$GT$$u20$as$u20$alloc..vec..spec_from_iter..SpecFromIter$LT$T$C$I$GT$$GT$9from_iter17h6698fe223949b52aE+0xd8>
    20f8: f9400be0     	ldr	x0, [sp, #16]
    20fc: d37ced01     	lsl	x1, x8, #4
    2100: 52800102     	mov	w2, #8
    2104: 94000000     	bl	0x2104 <__ZN98_$LT$alloc..vec..Vec$LT$T$GT$$u20$as$u20$alloc..vec..spec_from_iter..SpecFromIter$LT$T$C$I$GT$$GT$9from_iter17h6698fe223949b52aE+0xd4>
    2108: aa1303e0     	mov	x0, x19
    210c: 94000000     	bl	0x210c <__ZN98_$LT$alloc..vec..Vec$LT$T$GT$$u20$as$u20$alloc..vec..spec_from_iter..SpecFromIter$LT$T$C$I$GT$$GT$9from_iter17h6698fe223949b52aE+0xdc>

0000000000002110 <__ZN98_$LT$alloc..vec..Vec$LT$T$GT$$u20$as$u20$alloc..vec..spec_from_iter..SpecFromIter$LT$T$C$I$GT$$GT$9from_iter17h841ed63e0c96a32fE>:
    2110: d10243ff     	sub	sp, sp, #144
    2114: a9055ff8     	stp	x24, x23, [sp, #80]
    2118: a90657f6     	stp	x22, x21, [sp, #96]
    211c: a9074ff4     	stp	x20, x19, [sp, #112]
    2120: a9087bfd     	stp	x29, x30, [sp, #128]
    2124: 910203fd     	add	x29, sp, #128
    2128: aa0003f4     	mov	x20, x0
    212c: aa0803f3     	mov	x19, x8
    2130: a9406017     	ldp	x23, x24, [x0]
    2134: eb170315     	subs	x21, x24, x23
    2138: 540001c0     	b.eq	0x2170 <__ZN98_$LT$alloc..vec..Vec$LT$T$GT$$u20$as$u20$alloc..vec..spec_from_iter..SpecFromIter$LT$T$C$I$GT$$GT$9from_iter17h841ed63e0c96a32fE+0x60>
    213c: b27be7e8     	mov	x8, #9223372036854775776
    2140: eb0802bf     	cmp	x21, x8
    2144: 54000468     	b.hi	0x21d0 <__ZN98_$LT$alloc..vec..Vec$LT$T$GT$$u20$as$u20$alloc..vec..spec_from_iter..SpecFromIter$LT$T$C$I$GT$$GT$9from_iter17h841ed63e0c96a32fE+0xc0>
    2148: 90000008     	adrp	x8, 0x2000 <__ZN98_$LT$alloc..vec..Vec$LT$T$GT$$u20$as$u20$alloc..vec..spec_from_iter..SpecFromIter$LT$T$C$I$GT$$GT$9from_iter17h841ed63e0c96a32fE+0x38>
    214c: f9400108     	ldr	x8, [x8]
    2150: 3940011f     	ldrb	wzr, [x8]
    2154: 52800116     	mov	w22, #8
    2158: aa1503e0     	mov	x0, x21
    215c: 52800101     	mov	w1, #8
    2160: 94000000     	bl	0x2160 <__ZN98_$LT$alloc..vec..Vec$LT$T$GT$$u20$as$u20$alloc..vec..spec_from_iter..SpecFromIter$LT$T$C$I$GT$$GT$9from_iter17h841ed63e0c96a32fE+0x50>
    2164: b4000380     	cbz	x0, 0x21d4 <__ZN98_$LT$alloc..vec..Vec$LT$T$GT$$u20$as$u20$alloc..vec..spec_from_iter..SpecFromIter$LT$T$C$I$GT$$GT$9from_iter17h841ed63e0c96a32fE+0xc4>
    2168: d345fea8     	lsr	x8, x21, #5
    216c: 14000003     	b	0x2178 <__ZN98_$LT$alloc..vec..Vec$LT$T$GT$$u20$as$u20$alloc..vec..spec_from_iter..SpecFromIter$LT$T$C$I$GT$$GT$9from_iter17h841ed63e0c96a32fE+0x68>
    2170: d2800008     	mov	x8, #0
    2174: 52800100     	mov	w0, #8
    2178: a90003e8     	stp	x8, x0, [sp]
    217c: 910003e8     	mov	x8, sp
    2180: 91004108     	add	x8, x8, #16
    2184: a9015fff     	stp	xzr, x23, [sp, #16]
    2188: f90013f8     	str	x24, [sp, #32]
    218c: 3dc00680     	ldr	q0, [x20, #16]
    2190: 3c8283e0     	stur	q0, [sp, #40]
    2194: a903ffe8     	stp	x8, xzr, [sp, #56]
    2198: f90027e0     	str	x0, [sp, #72]
    219c: 910063e0     	add	x0, sp, #24
    21a0: 9100e3e1     	add	x1, sp, #56
    21a4: 94000000     	bl	0x21a4 <__ZN98_$LT$alloc..vec..Vec$LT$T$GT$$u20$as$u20$alloc..vec..spec_from_iter..SpecFromIter$LT$T$C$I$GT$$GT$9from_iter17h841ed63e0c96a32fE+0x94>
    21a8: 3dc003e0     	ldr	q0, [sp]
    21ac: 3d800260     	str	q0, [x19]
    21b0: f9400be8     	ldr	x8, [sp, #16]
    21b4: f9000a68     	str	x8, [x19, #16]
    21b8: a9487bfd     	ldp	x29, x30, [sp, #128]
    21bc: a9474ff4     	ldp	x20, x19, [sp, #112]
    21c0: a94657f6     	ldp	x22, x21, [sp, #96]
    21c4: a9455ff8     	ldp	x24, x23, [sp, #80]
    21c8: 910243ff     	add	sp, sp, #144
    21cc: d65f03c0     	ret
    21d0: d2800016     	mov	x22, #0
    21d4: aa1603e0     	mov	x0, x22
    21d8: aa1503e1     	mov	x1, x21
    21dc: 94000000     	bl	0x21dc <__ZN98_$LT$alloc..vec..Vec$LT$T$GT$$u20$as$u20$alloc..vec..spec_from_iter..SpecFromIter$LT$T$C$I$GT$$GT$9from_iter17h841ed63e0c96a32fE+0xcc>
    21e0: aa0003f3     	mov	x19, x0
    21e4: 910003e0     	mov	x0, sp
    21e8: 94000000     	bl	0x21e8 <__ZN98_$LT$alloc..vec..Vec$LT$T$GT$$u20$as$u20$alloc..vec..spec_from_iter..SpecFromIter$LT$T$C$I$GT$$GT$9from_iter17h841ed63e0c96a32fE+0xd8>
    21ec: aa1303e0     	mov	x0, x19
    21f0: 94000000     	bl	0x21f0 <__ZN98_$LT$alloc..vec..Vec$LT$T$GT$$u20$as$u20$alloc..vec..spec_from_iter..SpecFromIter$LT$T$C$I$GT$$GT$9from_iter17h841ed63e0c96a32fE+0xe0>

00000000000021f4 <__ZN98_$LT$alloc..vec..Vec$LT$T$GT$$u20$as$u20$alloc..vec..spec_from_iter..SpecFromIter$LT$T$C$I$GT$$GT$9from_iter17h85490f6e00e6d2f8E>:
    21f4: a9bd57f6     	stp	x22, x21, [sp, #-48]!
    21f8: a9014ff4     	stp	x20, x19, [sp, #16]
    21fc: a9027bfd     	stp	x29, x30, [sp, #32]
    2200: 910083fd     	add	x29, sp, #32
    2204: aa0803f3     	mov	x19, x8
    2208: eb000035     	subs	x21, x1, x0
    220c: 54000240     	b.eq	0x2254 <__ZN98_$LT$alloc..vec..Vec$LT$T$GT$$u20$as$u20$alloc..vec..spec_from_iter..SpecFromIter$LT$T$C$I$GT$$GT$9from_iter17h85490f6e00e6d2f8E+0x60>
    2210: b27ef3e8     	mov	x8, #9223372036854775804
    2214: eb0802bf     	cmp	x21, x8
    2218: 540007e8     	b.hi	0x2314 <__ZN98_$LT$alloc..vec..Vec$LT$T$GT$$u20$as$u20$alloc..vec..spec_from_iter..SpecFromIter$LT$T$C$I$GT$$GT$9from_iter17h85490f6e00e6d2f8E+0x120>
    221c: aa0003f4     	mov	x20, x0
    2220: 90000008     	adrp	x8, 0x2000 <__ZN98_$LT$alloc..vec..Vec$LT$T$GT$$u20$as$u20$alloc..vec..spec_from_iter..SpecFromIter$LT$T$C$I$GT$$GT$9from_iter17h85490f6e00e6d2f8E+0x2c>
    2224: f9400108     	ldr	x8, [x8]
    2228: 3940011f     	ldrb	wzr, [x8]
    222c: 52800096     	mov	w22, #4
    2230: aa1503e0     	mov	x0, x21
    2234: 52800081     	mov	w1, #4
    2238: 94000000     	bl	0x2238 <__ZN98_$LT$alloc..vec..Vec$LT$T$GT$$u20$as$u20$alloc..vec..spec_from_iter..SpecFromIter$LT$T$C$I$GT$$GT$9from_iter17h85490f6e00e6d2f8E+0x44>
    223c: b40006e0     	cbz	x0, 0x2318 <__ZN98_$LT$alloc..vec..Vec$LT$T$GT$$u20$as$u20$alloc..vec..spec_from_iter..SpecFromIter$LT$T$C$I$GT$$GT$9from_iter17h85490f6e00e6d2f8E+0x124>
    2240: d342fea8     	lsr	x8, x21, #2
    2244: f10102bf     	cmp	x21, #64
    2248: 540000c2     	b.hs	0x2260 <__ZN98_$LT$alloc..vec..Vec$LT$T$GT$$u20$as$u20$alloc..vec..spec_from_iter..SpecFromIter$LT$T$C$I$GT$$GT$9from_iter17h85490f6e00e6d2f8E+0x6c>
    224c: d2800009     	mov	x9, #0
    2250: 14000021     	b	0x22d4 <__ZN98_$LT$alloc..vec..Vec$LT$T$GT$$u20$as$u20$alloc..vec..spec_from_iter..SpecFromIter$LT$T$C$I$GT$$GT$9from_iter17h85490f6e00e6d2f8E+0xe0>
    2254: d2800008     	mov	x8, #0
    2258: 52800080     	mov	w0, #4
    225c: 14000028     	b	0x22fc <__ZN98_$LT$alloc..vec..Vec$LT$T$GT$$u20$as$u20$alloc..vec..spec_from_iter..SpecFromIter$LT$T$C$I$GT$$GT$9from_iter17h85490f6e00e6d2f8E+0x108>
    2260: d280000a     	mov	x10, #0
    2264: 927ce109     	and	x9, x8, #0x1ffffffffffffff0
    2268: 9100828b     	add	x11, x20, #32
    226c: 5286002c     	mov	w12, #12289
    2270: 4e040d80     	dup.4s	v0, w12
    2274: aa0903ec     	mov	x12, x9
    2278: 8b0a016d     	add	x13, x11, x10
    227c: ad7f09a1     	ldp	q1, q2, [x13, #-32]
    2280: ad4011a3     	ldp	q3, q4, [x13]
    2284: 4ea09825     	cmeq.4s	v5, v1, #0
    2288: 4ea09846     	cmeq.4s	v6, v2, #0
    228c: 4ea09867     	cmeq.4s	v7, v3, #0
    2290: 4ea09890     	cmeq.4s	v16, v4, #0
    2294: 6ea18401     	sub.4s	v1, v0, v1
    2298: 6ea28402     	sub.4s	v2, v0, v2
    229c: 6ea38403     	sub.4s	v3, v0, v3
    22a0: 6ea48404     	sub.4s	v4, v0, v4
    22a4: 4e651c21     	bic.16b	v1, v1, v5
    22a8: 4e661c42     	bic.16b	v2, v2, v6
    22ac: 4e671c63     	bic.16b	v3, v3, v7
    22b0: 8b0a000d     	add	x13, x0, x10
    22b4: ad0009a1     	stp	q1, q2, [x13]
    22b8: 4e701c81     	bic.16b	v1, v4, v16
    22bc: ad0105a3     	stp	q3, q1, [x13, #32]
    22c0: 9101014a     	add	x10, x10, #64
    22c4: f100418c     	subs	x12, x12, #16
    22c8: 54fffd81     	b.ne	0x2278 <__ZN98_$LT$alloc..vec..Vec$LT$T$GT$$u20$as$u20$alloc..vec..spec_from_iter..SpecFromIter$LT$T$C$I$GT$$GT$9from_iter17h85490f6e00e6d2f8E+0x84>
    22cc: eb09011f     	cmp	x8, x9
    22d0: 54000160     	b.eq	0x22fc <__ZN98_$LT$alloc..vec..Vec$LT$T$GT$$u20$as$u20$alloc..vec..spec_from_iter..SpecFromIter$LT$T$C$I$GT$$GT$9from_iter17h85490f6e00e6d2f8E+0x108>
    22d4: 5286002a     	mov	w10, #12289
    22d8: d37ef52b     	lsl	x11, x9, #2
    22dc: b86b6a8c     	ldr	w12, [x20, x11]
    22e0: 4b0c014d     	sub	w13, w10, w12
    22e4: 7100019f     	cmp	w12, #0
    22e8: 1a8d03ec     	csel	w12, wzr, w13, eq
    22ec: b82b680c     	str	w12, [x0, x11]
    22f0: 91000529     	add	x9, x9, #1
    22f4: eb09011f     	cmp	x8, x9
    22f8: 54ffff01     	b.ne	0x22d8 <__ZN98_$LT$alloc..vec..Vec$LT$T$GT$$u20$as$u20$alloc..vec..spec_from_iter..SpecFromIter$LT$T$C$I$GT$$GT$9from_iter17h85490f6e00e6d2f8E+0xe4>
    22fc: a9000268     	stp	x8, x0, [x19]
    2300: f9000a68     	str	x8, [x19, #16]
    2304: a9427bfd     	ldp	x29, x30, [sp, #32]
    2308: a9414ff4     	ldp	x20, x19, [sp, #16]
    230c: a8c357f6     	ldp	x22, x21, [sp], #48
    2310: d65f03c0     	ret
    2314: d2800016     	mov	x22, #0
    2318: aa1603e0     	mov	x0, x22
    231c: aa1503e1     	mov	x1, x21
    2320: 94000000     	bl	0x2320 <__ZN98_$LT$alloc..vec..Vec$LT$T$GT$$u20$as$u20$alloc..vec..spec_from_iter..SpecFromIter$LT$T$C$I$GT$$GT$9from_iter17h85490f6e00e6d2f8E+0x12c>

0000000000002324 <__ZN98_$LT$alloc..vec..Vec$LT$T$GT$$u20$as$u20$alloc..vec..spec_from_iter..SpecFromIter$LT$T$C$I$GT$$GT$9from_iter17h93655fc66c4d58a0E>:
    2324: d10243ff     	sub	sp, sp, #144
    2328: a9055ff8     	stp	x24, x23, [sp, #80]
    232c: a90657f6     	stp	x22, x21, [sp, #96]
    2330: a9074ff4     	stp	x20, x19, [sp, #112]
    2334: a9087bfd     	stp	x29, x30, [sp, #128]
    2338: 910203fd     	add	x29, sp, #128
    233c: aa0003f4     	mov	x20, x0
    2340: aa0803f3     	mov	x19, x8
    2344: a9406017     	ldp	x23, x24, [x0]
    2348: eb170315     	subs	x21, x24, x23
    234c: 540001c0     	b.eq	0x2384 <__ZN98_$LT$alloc..vec..Vec$LT$T$GT$$u20$as$u20$alloc..vec..spec_from_iter..SpecFromIter$LT$T$C$I$GT$$GT$9from_iter17h93655fc66c4d58a0E+0x60>
    2350: b27be7e8     	mov	x8, #9223372036854775776
    2354: eb0802bf     	cmp	x21, x8
    2358: 54000448     	b.hi	0x23e0 <__ZN98_$LT$alloc..vec..Vec$LT$T$GT$$u20$as$u20$alloc..vec..spec_from_iter..SpecFromIter$LT$T$C$I$GT$$GT$9from_iter17h93655fc66c4d58a0E+0xbc>
    235c: 90000008     	adrp	x8, 0x2000 <__ZN98_$LT$alloc..vec..Vec$LT$T$GT$$u20$as$u20$alloc..vec..spec_from_iter..SpecFromIter$LT$T$C$I$GT$$GT$9from_iter17h93655fc66c4d58a0E+0x38>
    2360: f9400108     	ldr	x8, [x8]
    2364: 3940011f     	ldrb	wzr, [x8]
    2368: 52800116     	mov	w22, #8
    236c: aa1503e0     	mov	x0, x21
    2370: 52800101     	mov	w1, #8
    2374: 94000000     	bl	0x2374 <__ZN98_$LT$alloc..vec..Vec$LT$T$GT$$u20$as$u20$alloc..vec..spec_from_iter..SpecFromIter$LT$T$C$I$GT$$GT$9from_iter17h93655fc66c4d58a0E+0x50>
    2378: b4000360     	cbz	x0, 0x23e4 <__ZN98_$LT$alloc..vec..Vec$LT$T$GT$$u20$as$u20$alloc..vec..spec_from_iter..SpecFromIter$LT$T$C$I$GT$$GT$9from_iter17h93655fc66c4d58a0E+0xc0>
    237c: d345fea8     	lsr	x8, x21, #5
    2380: 14000003     	b	0x238c <__ZN98_$LT$alloc..vec..Vec$LT$T$GT$$u20$as$u20$alloc..vec..spec_from_iter..SpecFromIter$LT$T$C$I$GT$$GT$9from_iter17h93655fc66c4d58a0E+0x68>
    2384: d2800008     	mov	x8, #0
    2388: 52800100     	mov	w0, #8
    238c: a90083e8     	stp	x8, x0, [sp, #8]
    2390: 910023e8     	add	x8, sp, #8
    2394: 91004108     	add	x8, x8, #16
    2398: a901dfff     	stp	xzr, x23, [sp, #24]
    239c: f9400a89     	ldr	x9, [x20, #16]
    23a0: a902a7f8     	stp	x24, x9, [sp, #40]
    23a4: a903ffe8     	stp	x8, xzr, [sp, #56]
    23a8: f90027e0     	str	x0, [sp, #72]
    23ac: 910083e0     	add	x0, sp, #32
    23b0: 9100e3e1     	add	x1, sp, #56
    23b4: 94000000     	bl	0x23b4 <__ZN98_$LT$alloc..vec..Vec$LT$T$GT$$u20$as$u20$alloc..vec..spec_from_iter..SpecFromIter$LT$T$C$I$GT$$GT$9from_iter17h93655fc66c4d58a0E+0x90>
    23b8: 3cc083e0     	ldur	q0, [sp, #8]
    23bc: 3d800260     	str	q0, [x19]
    23c0: f9400fe8     	ldr	x8, [sp, #24]
    23c4: f9000a68     	str	x8, [x19, #16]
    23c8: a9487bfd     	ldp	x29, x30, [sp, #128]
    23cc: a9474ff4     	ldp	x20, x19, [sp, #112]
    23d0: a94657f6     	ldp	x22, x21, [sp, #96]
    23d4: a9455ff8     	ldp	x24, x23, [sp, #80]
    23d8: 910243ff     	add	sp, sp, #144
    23dc: d65f03c0     	ret
    23e0: d2800016     	mov	x22, #0
    23e4: aa1603e0     	mov	x0, x22
    23e8: aa1503e1     	mov	x1, x21
    23ec: 94000000     	bl	0x23ec <__ZN98_$LT$alloc..vec..Vec$LT$T$GT$$u20$as$u20$alloc..vec..spec_from_iter..SpecFromIter$LT$T$C$I$GT$$GT$9from_iter17h93655fc66c4d58a0E+0xc8>
    23f0: aa0003f3     	mov	x19, x0
    23f4: 910023e0     	add	x0, sp, #8
    23f8: 94000000     	bl	0x23f8 <__ZN98_$LT$alloc..vec..Vec$LT$T$GT$$u20$as$u20$alloc..vec..spec_from_iter..SpecFromIter$LT$T$C$I$GT$$GT$9from_iter17h93655fc66c4d58a0E+0xd4>
    23fc: aa1303e0     	mov	x0, x19
    2400: 94000000     	bl	0x2400 <__ZN98_$LT$alloc..vec..Vec$LT$T$GT$$u20$as$u20$alloc..vec..spec_from_iter..SpecFromIter$LT$T$C$I$GT$$GT$9from_iter17h93655fc66c4d58a0E+0xdc>

0000000000002404 <__ZN98_$LT$alloc..vec..Vec$LT$T$GT$$u20$as$u20$alloc..vec..spec_from_iter..SpecFromIter$LT$T$C$I$GT$$GT$9from_iter17h9dd6072c136d6e4aE>:
    2404: a9bc5ff8     	stp	x24, x23, [sp, #-64]!
    2408: a90157f6     	stp	x22, x21, [sp, #16]
    240c: a9024ff4     	stp	x20, x19, [sp, #32]
    2410: a9037bfd     	stp	x29, x30, [sp, #48]
    2414: 9100c3fd     	add	x29, sp, #48
    2418: aa0803f3     	mov	x19, x8
    241c: eb000037     	subs	x23, x1, x0
    2420: 54000260     	b.eq	0x246c <__ZN98_$LT$alloc..vec..Vec$LT$T$GT$$u20$as$u20$alloc..vec..spec_from_iter..SpecFromIter$LT$T$C$I$GT$$GT$9from_iter17h9dd6072c136d6e4aE+0x68>
    2424: d37ffaf5     	lsl	x21, x23, #1
    2428: b27ff3e8     	mov	x8, #4611686018427387902
    242c: eb0802ff     	cmp	x23, x8
    2430: 540009e8     	b.hi	0x256c <__ZN98_$LT$alloc..vec..Vec$LT$T$GT$$u20$as$u20$alloc..vec..spec_from_iter..SpecFromIter$LT$T$C$I$GT$$GT$9from_iter17h9dd6072c136d6e4aE+0x168>
    2434: aa0003f4     	mov	x20, x0
    2438: 90000008     	adrp	x8, 0x2000 <__ZN98_$LT$alloc..vec..Vec$LT$T$GT$$u20$as$u20$alloc..vec..spec_from_iter..SpecFromIter$LT$T$C$I$GT$$GT$9from_iter17h9dd6072c136d6e4aE+0x34>
    243c: f9400108     	ldr	x8, [x8]
    2440: 3940011f     	ldrb	wzr, [x8]
    2444: 52800096     	mov	w22, #4
    2448: aa1503e0     	mov	x0, x21
    244c: 52800081     	mov	w1, #4
    2450: 94000000     	bl	0x2450 <__ZN98_$LT$alloc..vec..Vec$LT$T$GT$$u20$as$u20$alloc..vec..spec_from_iter..SpecFromIter$LT$T$C$I$GT$$GT$9from_iter17h9dd6072c136d6e4aE+0x4c>
    2454: b40008e0     	cbz	x0, 0x2570 <__ZN98_$LT$alloc..vec..Vec$LT$T$GT$$u20$as$u20$alloc..vec..spec_from_iter..SpecFromIter$LT$T$C$I$GT$$GT$9from_iter17h9dd6072c136d6e4aE+0x16c>
    2458: d341fee8     	lsr	x8, x23, #1
    245c: f10042ff     	cmp	x23, #16
    2460: 540000c2     	b.hs	0x2478 <__ZN98_$LT$alloc..vec..Vec$LT$T$GT$$u20$as$u20$alloc..vec..spec_from_iter..SpecFromIter$LT$T$C$I$GT$$GT$9from_iter17h9dd6072c136d6e4aE+0x74>
    2464: d2800009     	mov	x9, #0
    2468: 14000026     	b	0x2500 <__ZN98_$LT$alloc..vec..Vec$LT$T$GT$$u20$as$u20$alloc..vec..spec_from_iter..SpecFromIter$LT$T$C$I$GT$$GT$9from_iter17h9dd6072c136d6e4aE+0xfc>
    246c: d2800008     	mov	x8, #0
    2470: 52800080     	mov	w0, #4
    2474: 14000037     	b	0x2550 <__ZN98_$LT$alloc..vec..Vec$LT$T$GT$$u20$as$u20$alloc..vec..spec_from_iter..SpecFromIter$LT$T$C$I$GT$$GT$9from_iter17h9dd6072c136d6e4aE+0x14c>
    2478: 5282aaa9     	mov	w9, #5461
    247c: 4e020d20     	dup.8h	v0, w9
    2480: 5286002a     	mov	w10, #12289
    2484: 4e020d41     	dup.8h	v1, w10
    2488: 927de509     	and	x9, x8, #0x1ffffffffffffff8
    248c: 4e040d42     	dup.4s	v2, w10
    2490: aa0903ea     	mov	x10, x9
    2494: aa0003eb     	mov	x11, x0
    2498: aa1403ec     	mov	x12, x20
    249c: 3cc10583     	ldr	q3, [x12], #16
    24a0: 4e60a864     	cmlt.8h	v4, v3, #0
    24a4: 4e211c85     	and.16b	v5, v4, v1
    24a8: 4f009424     	orr.8h	v4, #1
    24ac: 4e639c83     	mul.8h	v3, v4, v3
    24b0: 4e60c066     	smull2.4s	v6, v3, v0
    24b4: 0e60c067     	smull.4s	v7, v3, v0
    24b8: 4e4658e6     	uzp2.8h	v6, v7, v6
    24bc: 4f1604c6     	sshr.8h	v6, v6, #10
    24c0: 6f1114c6     	usra.8h	v6, v6, #15
    24c4: 6e6194c3     	mls.8h	v3, v6, v1
    24c8: 4e649465     	mla.8h	v5, v3, v4
    24cc: 0f10a4a3     	sshll.4s	v3, v5, #0
    24d0: 4f10a4a4     	sshll2.4s	v4, v5, #0
    24d4: 4ea09884     	cmeq.4s	v4, v4, #0
    24d8: 4ea09863     	cmeq.4s	v3, v3, #0
    24dc: 4e653046     	ssubw2.4s	v6, v2, v5
    24e0: 0e653045     	ssubw.4s	v5, v2, v5
    24e4: 4e631ca3     	bic.16b	v3, v5, v3
    24e8: 4e641cc4     	bic.16b	v4, v6, v4
    24ec: ac811163     	stp	q3, q4, [x11], #32
    24f0: f100214a     	subs	x10, x10, #8
    24f4: 54fffd41     	b.ne	0x249c <__ZN98_$LT$alloc..vec..Vec$LT$T$GT$$u20$as$u20$alloc..vec..spec_from_iter..SpecFromIter$LT$T$C$I$GT$$GT$9from_iter17h9dd6072c136d6e4aE+0x98>
    24f8: eb09011f     	cmp	x8, x9
    24fc: 540002a0     	b.eq	0x2550 <__ZN98_$LT$alloc..vec..Vec$LT$T$GT$$u20$as$u20$alloc..vec..spec_from_iter..SpecFromIter$LT$T$C$I$GT$$GT$9from_iter17h9dd6072c136d6e4aE+0x14c>
    2500: 5282aaaa     	mov	w10, #5461
    2504: 5286002b     	mov	w11, #12289
    2508: 78e97a8c     	ldrsh	w12, [x20, x9, lsl #1]
    250c: 131f7d8d     	asr	w13, w12, #31
    2510: 320001ad     	orr	w13, w13, #0x1
    2514: 1b0c7dae     	mul	w14, w13, w12
    2518: 13003dcf     	sxth	w15, w14
    251c: 1b0a7def     	mul	w15, w15, w10
    2520: 131a7df0     	asr	w16, w15, #26
    2524: 0b4f7e0f     	add	w15, w16, w15, lsr #31
    2528: 1b0bb9ee     	msub	w14, w15, w11, w14
    252c: 0a4c3d6c     	and	w12, w11, w12, lsr #15
    2530: 1b0d31cc     	madd	w12, w14, w13, w12
    2534: 4b2ca16d     	sub	w13, w11, w12, sxth
    2538: 72003d9f     	tst	w12, #0xffff
    253c: 1a8d03ec     	csel	w12, wzr, w13, eq
    2540: b829780c     	str	w12, [x0, x9, lsl #2]
    2544: 91000529     	add	x9, x9, #1
    2548: eb09011f     	cmp	x8, x9
    254c: 54fffde1     	b.ne	0x2508 <__ZN98_$LT$alloc..vec..Vec$LT$T$GT$$u20$as$u20$alloc..vec..spec_from_iter..SpecFromIter$LT$T$C$I$GT$$GT$9from_iter17h9dd6072c136d6e4aE+0x104>
    2550: a9000268     	stp	x8, x0, [x19]
    2554: f9000a68     	str	x8, [x19, #16]
    2558: a9437bfd     	ldp	x29, x30, [sp, #48]
    255c: a9424ff4     	ldp	x20, x19, [sp, #32]
    2560: a94157f6     	ldp	x22, x21, [sp, #16]
    2564: a8c45ff8     	ldp	x24, x23, [sp], #64
    2568: d65f03c0     	ret
    256c: d2800016     	mov	x22, #0
    2570: aa1603e0     	mov	x0, x22
    2574: aa1503e1     	mov	x1, x21
    2578: 94000000     	bl	0x2578 <__ZN98_$LT$alloc..vec..Vec$LT$T$GT$$u20$as$u20$alloc..vec..spec_from_iter..SpecFromIter$LT$T$C$I$GT$$GT$9from_iter17h9dd6072c136d6e4aE+0x174>

000000000000257c <__ZN98_$LT$alloc..vec..Vec$LT$T$GT$$u20$as$u20$alloc..vec..spec_from_iter..SpecFromIter$LT$T$C$I$GT$$GT$9from_iter17hc3686fad5608a601E>:
    257c: a9bd57f6     	stp	x22, x21, [sp, #-48]!
    2580: a9014ff4     	stp	x20, x19, [sp, #16]
    2584: a9027bfd     	stp	x29, x30, [sp, #32]
    2588: 910083fd     	add	x29, sp, #32
    258c: aa0803f3     	mov	x19, x8
    2590: eb000036     	subs	x22, x1, x0
    2594: 540001e0     	b.eq	0x25d0 <__ZN98_$LT$alloc..vec..Vec$LT$T$GT$$u20$as$u20$alloc..vec..spec_from_iter..SpecFromIter$LT$T$C$I$GT$$GT$9from_iter17hc3686fad5608a601E+0x54>
    2598: aa0003f4     	mov	x20, x0
    259c: d343fed5     	lsr	x21, x22, #3
    25a0: 90000008     	adrp	x8, 0x2000 <__ZN98_$LT$alloc..vec..Vec$LT$T$GT$$u20$as$u20$alloc..vec..spec_from_iter..SpecFromIter$LT$T$C$I$GT$$GT$9from_iter17hc3686fad5608a601E+0x24>
    25a4: f9400108     	ldr	x8, [x8]
    25a8: 3940011f     	ldrb	wzr, [x8]
    25ac: aa1503e0     	mov	x0, x21
    25b0: 52800041     	mov	w1, #2
    25b4: 94000000     	bl	0x25b4 <__ZN98_$LT$alloc..vec..Vec$LT$T$GT$$u20$as$u20$alloc..vec..spec_from_iter..SpecFromIter$LT$T$C$I$GT$$GT$9from_iter17hc3686fad5608a601E+0x38>
    25b8: b4000e00     	cbz	x0, 0x2778 <__ZN98_$LT$alloc..vec..Vec$LT$T$GT$$u20$as$u20$alloc..vec..spec_from_iter..SpecFromIter$LT$T$C$I$GT$$GT$9from_iter17hc3686fad5608a601E+0x1fc>
    25bc: d344fec8     	lsr	x8, x22, #4
    25c0: f10202df     	cmp	x22, #128
    25c4: 540000c2     	b.hs	0x25dc <__ZN98_$LT$alloc..vec..Vec$LT$T$GT$$u20$as$u20$alloc..vec..spec_from_iter..SpecFromIter$LT$T$C$I$GT$$GT$9from_iter17hc3686fad5608a601E+0x60>
    25c8: d2800009     	mov	x9, #0
    25cc: 14000058     	b	0x272c <__ZN98_$LT$alloc..vec..Vec$LT$T$GT$$u20$as$u20$alloc..vec..spec_from_iter..SpecFromIter$LT$T$C$I$GT$$GT$9from_iter17hc3686fad5608a601E+0x1b0>
    25d0: d2800008     	mov	x8, #0
    25d4: 52800040     	mov	w0, #2
    25d8: 14000062     	b	0x2760 <__ZN98_$LT$alloc..vec..Vec$LT$T$GT$$u20$as$u20$alloc..vec..spec_from_iter..SpecFromIter$LT$T$C$I$GT$$GT$9from_iter17hc3686fad5608a601E+0x1e4>
    25dc: d280000a     	mov	x10, #0
    25e0: 927de109     	and	x9, x8, #0xffffffffffffff8
    25e4: 9101028b     	add	x11, x20, #64
    25e8: 528fffec     	mov	w12, #32767
    25ec: 128fffed     	mov	w13, #-32768
    25f0: 9000000e     	adrp	x14, 0x2000 <__ZN98_$LT$alloc..vec..Vec$LT$T$GT$$u20$as$u20$alloc..vec..spec_from_iter..SpecFromIter$LT$T$C$I$GT$$GT$9from_iter17hc3686fad5608a601E+0x74>
    25f4: 3dc001c0     	ldr	q0, [x14]
    25f8: aa0903ee     	mov	x14, x9
    25fc: d100c16f     	sub	x15, x11, #48
    2600: d1004170     	sub	x16, x11, #16
    2604: 91004171     	add	x17, x11, #16
    2608: 9100c161     	add	x1, x11, #48
    260c: fc5c0161     	ldur	d1, [x11, #-64]
    2610: fd400162     	ldr	d2, [x11]
    2614: fd401163     	ldr	d3, [x11, #32]
    2618: 4d408423     	ld1.d	{ v3 }[1], [x1]
    261c: 4d408622     	ld1.d	{ v2 }[1], [x17]
    2620: fc5e0164     	ldur	d4, [x11, #-32]
    2624: 4d408604     	ld1.d	{ v4 }[1], [x16]
    2628: 4d4085e1     	ld1.d	{ v1 }[1], [x15]
    262c: 6e618821     	frinta.2d	v1, v1
    2630: 6e618884     	frinta.2d	v4, v4
    2634: 6e618842     	frinta.2d	v2, v2
    2638: 6e618863     	frinta.2d	v3, v3
    263c: 5e180465     	mov	d5, v3[1]
    2640: 1e7800af     	fcvtzs	w15, d5
    2644: 6b0c01ff     	cmp	w15, w12
    2648: 1a8cb1ef     	csel	w15, w15, w12, lt
    264c: 314021ff     	cmn	w15, #8, lsl #12        ; =32768
    2650: 1a8dc1ef     	csel	w15, w15, w13, gt
    2654: 1e780070     	fcvtzs	w16, d3
    2658: 6b0c021f     	cmp	w16, w12
    265c: 1a8cb210     	csel	w16, w16, w12, lt
    2660: 3140221f     	cmn	w16, #8, lsl #12        ; =32768
    2664: 5e180443     	mov	d3, v2[1]
    2668: 1e780071     	fcvtzs	w17, d3
    266c: 1a8dc210     	csel	w16, w16, w13, gt
    2670: 1e270213     	fmov	s19, w16
    2674: 6b0c023f     	cmp	w17, w12
    2678: 1a8cb230     	csel	w16, w17, w12, lt
    267c: 3140221f     	cmn	w16, #8, lsl #12        ; =32768
    2680: 4e0c1df3     	mov.s	v19[1], w15
    2684: 1a8dc20f     	csel	w15, w16, w13, gt
    2688: 1e780050     	fcvtzs	w16, d2
    268c: 6b0c021f     	cmp	w16, w12
    2690: 1a8cb210     	csel	w16, w16, w12, lt
    2694: 3140221f     	cmn	w16, #8, lsl #12        ; =32768
    2698: 1a8dc210     	csel	w16, w16, w13, gt
    269c: 5e180482     	mov	d2, v4[1]
    26a0: 1e780051     	fcvtzs	w17, d2
    26a4: 6b0c023f     	cmp	w17, w12
    26a8: 1e270212     	fmov	s18, w16
    26ac: 1a8cb230     	csel	w16, w17, w12, lt
    26b0: 3140221f     	cmn	w16, #8, lsl #12        ; =32768
    26b4: 1e780091     	fcvtzs	w17, d4
    26b8: 4e0c1df2     	mov.s	v18[1], w15
    26bc: 1a8dc20f     	csel	w15, w16, w13, gt
    26c0: 6b0c023f     	cmp	w17, w12
    26c4: 1a8cb230     	csel	w16, w17, w12, lt
    26c8: 3140221f     	cmn	w16, #8, lsl #12        ; =32768
    26cc: 1a8dc210     	csel	w16, w16, w13, gt
    26d0: 1e270211     	fmov	s17, w16
    26d4: 5e180422     	mov	d2, v1[1]
    26d8: 1e780050     	fcvtzs	w16, d2
    26dc: 6b0c021f     	cmp	w16, w12
    26e0: 4e0c1df1     	mov.s	v17[1], w15
    26e4: 1a8cb20f     	csel	w15, w16, w12, lt
    26e8: 314021ff     	cmn	w15, #8, lsl #12        ; =32768
    26ec: 1a8dc1ef     	csel	w15, w15, w13, gt
    26f0: 1e780030     	fcvtzs	w16, d1
    26f4: 6b0c021f     	cmp	w16, w12
    26f8: 1a8cb210     	csel	w16, w16, w12, lt
    26fc: 3140221f     	cmn	w16, #8, lsl #12        ; =32768
    2700: 1a8dc210     	csel	w16, w16, w13, gt
    2704: 1e270210     	fmov	s16, w16
    2708: 4e0c1df0     	mov.s	v16[1], w15
    270c: 4e006201     	tbl.16b	v1, { v16, v17, v18, v19 }, v0
    2710: 3caa6801     	str	q1, [x0, x10]
    2714: 9100414a     	add	x10, x10, #16
    2718: 9102016b     	add	x11, x11, #128
    271c: f10021ce     	subs	x14, x14, #8
    2720: 54fff6e1     	b.ne	0x25fc <__ZN98_$LT$alloc..vec..Vec$LT$T$GT$$u20$as$u20$alloc..vec..spec_from_iter..SpecFromIter$LT$T$C$I$GT$$GT$9from_iter17hc3686fad5608a601E+0x80>
    2724: eb09011f     	cmp	x8, x9
    2728: 540001c0     	b.eq	0x2760 <__ZN98_$LT$alloc..vec..Vec$LT$T$GT$$u20$as$u20$alloc..vec..spec_from_iter..SpecFromIter$LT$T$C$I$GT$$GT$9from_iter17hc3686fad5608a601E+0x1e4>
    272c: 8b09128a     	add	x10, x20, x9, lsl #4
    2730: 528fffeb     	mov	w11, #32767
    2734: 128fffec     	mov	w12, #-32768
    2738: fc410540     	ldr	d0, [x10], #16
    273c: 1e64000d     	fcvtas	w13, d0
    2740: 6b0b01bf     	cmp	w13, w11
    2744: 1a8bb1ad     	csel	w13, w13, w11, lt
    2748: 314021bf     	cmn	w13, #8, lsl #12        ; =32768
    274c: 1a8cc1ad     	csel	w13, w13, w12, gt
    2750: 7829780d     	strh	w13, [x0, x9, lsl #1]
    2754: 91000529     	add	x9, x9, #1
    2758: eb09011f     	cmp	x8, x9
    275c: 54fffee1     	b.ne	0x2738 <__ZN98_$LT$alloc..vec..Vec$LT$T$GT$$u20$as$u20$alloc..vec..spec_from_iter..SpecFromIter$LT$T$C$I$GT$$GT$9from_iter17hc3686fad5608a601E+0x1bc>
    2760: a9000268     	stp	x8, x0, [x19]
    2764: f9000a68     	str	x8, [x19, #16]
    2768: a9427bfd     	ldp	x29, x30, [sp, #32]
    276c: a9414ff4     	ldp	x20, x19, [sp, #16]
    2770: a8c357f6     	ldp	x22, x21, [sp], #48
    2774: d65f03c0     	ret
    2778: 52800040     	mov	w0, #2
    277c: aa1503e1     	mov	x1, x21
    2780: 94000000     	bl	0x2780 <__ZN98_$LT$alloc..vec..Vec$LT$T$GT$$u20$as$u20$alloc..vec..spec_from_iter..SpecFromIter$LT$T$C$I$GT$$GT$9from_iter17hc3686fad5608a601E+0x204>

0000000000002784 <__ZN98_$LT$alloc..vec..Vec$LT$T$GT$$u20$as$u20$alloc..vec..spec_from_iter..SpecFromIter$LT$T$C$I$GT$$GT$9from_iter17ha2575cd727a3195eE>:
    2784: d10143ff     	sub	sp, sp, #80
    2788: a9015ff8     	stp	x24, x23, [sp, #16]
    278c: a90257f6     	stp	x22, x21, [sp, #32]
    2790: a9034ff4     	stp	x20, x19, [sp, #48]
    2794: a9047bfd     	stp	x29, x30, [sp, #64]
    2798: 910103fd     	add	x29, sp, #64
    279c: aa0803f6     	mov	x22, x8
    27a0: eb000038     	subs	x24, x1, x0
    27a4: 54000700     	b.eq	0x2884 <__ZN98_$LT$alloc..vec..Vec$LT$T$GT$$u20$as$u20$alloc..vec..spec_from_iter..SpecFromIter$LT$T$C$I$GT$$GT$9from_iter17ha2575cd727a3195eE+0x100>
    27a8: aa0003f5     	mov	x21, x0
    27ac: aa0103f7     	mov	x23, x1
    27b0: d344ff13     	lsr	x19, x24, #4
    27b4: 90000008     	adrp	x8, 0x2000 <__ZN98_$LT$alloc..vec..Vec$LT$T$GT$$u20$as$u20$alloc..vec..spec_from_iter..SpecFromIter$LT$T$C$I$GT$$GT$9from_iter17ha2575cd727a3195eE+0x30>
    27b8: f9400108     	ldr	x8, [x8]
    27bc: 3940011f     	ldrb	wzr, [x8]
    27c0: aa1303e0     	mov	x0, x19
    27c4: 52800041     	mov	w1, #2
    27c8: 94000000     	bl	0x27c8 <__ZN98_$LT$alloc..vec..Vec$LT$T$GT$$u20$as$u20$alloc..vec..spec_from_iter..SpecFromIter$LT$T$C$I$GT$$GT$9from_iter17ha2575cd727a3195eE+0x44>
    27cc: b4000700     	cbz	x0, 0x28ac <__ZN98_$LT$alloc..vec..Vec$LT$T$GT$$u20$as$u20$alloc..vec..spec_from_iter..SpecFromIter$LT$T$C$I$GT$$GT$9from_iter17ha2575cd727a3195eE+0x128>
    27d0: aa0003f4     	mov	x20, x0
    27d4: d2800009     	mov	x9, #0
    27d8: d345ff08     	lsr	x8, x24, #5
    27dc: 910042aa     	add	x10, x21, #16
    27e0: 14000007     	b	0x27fc <__ZN98_$LT$alloc..vec..Vec$LT$T$GT$$u20$as$u20$alloc..vec..spec_from_iter..SpecFromIter$LT$T$C$I$GT$$GT$9from_iter17ha2575cd727a3195eE+0x78>
    27e4: 5280000b     	mov	w11, #0
    27e8: 78297a8b     	strh	w11, [x20, x9, lsl #1]
    27ec: 91000529     	add	x9, x9, #1
    27f0: 9100814a     	add	x10, x10, #32
    27f4: eb09011f     	cmp	x8, x9
    27f8: 540004a0     	b.eq	0x288c <__ZN98_$LT$alloc..vec..Vec$LT$T$GT$$u20$as$u20$alloc..vec..spec_from_iter..SpecFromIter$LT$T$C$I$GT$$GT$9from_iter17ha2575cd727a3195eE+0x108>
    27fc: 3940214b     	ldrb	w11, [x10, #8]
    2800: 340001ab     	cbz	w11, 0x2834 <__ZN98_$LT$alloc..vec..Vec$LT$T$GT$$u20$as$u20$alloc..vec..spec_from_iter..SpecFromIter$LT$T$C$I$GT$$GT$9from_iter17ha2575cd727a3195eE+0xb0>
    2804: 7100057f     	cmp	w11, #1
    2808: 54fffee0     	b.eq	0x27e4 <__ZN98_$LT$alloc..vec..Vec$LT$T$GT$$u20$as$u20$alloc..vec..spec_from_iter..SpecFromIter$LT$T$C$I$GT$$GT$9from_iter17ha2575cd727a3195eE+0x60>
    280c: f940014b     	ldr	x11, [x10]
    2810: b4fffecb     	cbz	x11, 0x27e8 <__ZN98_$LT$alloc..vec..Vec$LT$T$GT$$u20$as$u20$alloc..vec..spec_from_iter..SpecFromIter$LT$T$C$I$GT$$GT$9from_iter17ha2575cd727a3195eE+0x64>
    2814: f100057f     	cmp	x11, #1
    2818: 54000221     	b.ne	0x285c <__ZN98_$LT$alloc..vec..Vec$LT$T$GT$$u20$as$u20$alloc..vec..spec_from_iter..SpecFromIter$LT$T$C$I$GT$$GT$9from_iter17ha2575cd727a3195eE+0xd8>
    281c: f85f814b     	ldur	x11, [x10, #-8]
    2820: f940016b     	ldr	x11, [x11]
    2824: b7f801cb     	tbnz	x11, #63, 0x285c <__ZN98_$LT$alloc..vec..Vec$LT$T$GT$$u20$as$u20$alloc..vec..spec_from_iter..SpecFromIter$LT$T$C$I$GT$$GT$9from_iter17ha2575cd727a3195eE+0xd8>
    2828: eb2ba17f     	cmp	x11, w11, sxth
    282c: 54fffde0     	b.eq	0x27e8 <__ZN98_$LT$alloc..vec..Vec$LT$T$GT$$u20$as$u20$alloc..vec..spec_from_iter..SpecFromIter$LT$T$C$I$GT$$GT$9from_iter17ha2575cd727a3195eE+0x64>
    2830: 1400000b     	b	0x285c <__ZN98_$LT$alloc..vec..Vec$LT$T$GT$$u20$as$u20$alloc..vec..spec_from_iter..SpecFromIter$LT$T$C$I$GT$$GT$9from_iter17ha2575cd727a3195eE+0xd8>
    2834: f940014b     	ldr	x11, [x10]
    2838: b40000cb     	cbz	x11, 0x2850 <__ZN98_$LT$alloc..vec..Vec$LT$T$GT$$u20$as$u20$alloc..vec..spec_from_iter..SpecFromIter$LT$T$C$I$GT$$GT$9from_iter17ha2575cd727a3195eE+0xcc>
    283c: f100057f     	cmp	x11, #1
    2840: 540000e1     	b.ne	0x285c <__ZN98_$LT$alloc..vec..Vec$LT$T$GT$$u20$as$u20$alloc..vec..spec_from_iter..SpecFromIter$LT$T$C$I$GT$$GT$9from_iter17ha2575cd727a3195eE+0xd8>
    2844: f85f814b     	ldur	x11, [x10, #-8]
    2848: f940016b     	ldr	x11, [x11]
    284c: b7f8008b     	tbnz	x11, #63, 0x285c <__ZN98_$LT$alloc..vec..Vec$LT$T$GT$$u20$as$u20$alloc..vec..spec_from_iter..SpecFromIter$LT$T$C$I$GT$$GT$9from_iter17ha2575cd727a3195eE+0xd8>
    2850: cb0b03eb     	neg	x11, x11
    2854: eb2ba17f     	cmp	x11, w11, sxth
    2858: 54fffc80     	b.eq	0x27e8 <__ZN98_$LT$alloc..vec..Vec$LT$T$GT$$u20$as$u20$alloc..vec..spec_from_iter..SpecFromIter$LT$T$C$I$GT$$GT$9from_iter17ha2575cd727a3195eE+0x64>
    285c: 90000000     	adrp	x0, 0x2000 <__ZN98_$LT$alloc..vec..Vec$LT$T$GT$$u20$as$u20$alloc..vec..spec_from_iter..SpecFromIter$LT$T$C$I$GT$$GT$9from_iter17ha2575cd727a3195eE+0xd8>
    2860: 91000000     	add	x0, x0, #0
    2864: 90000003     	adrp	x3, 0x2000 <__ZN98_$LT$alloc..vec..Vec$LT$T$GT$$u20$as$u20$alloc..vec..spec_from_iter..SpecFromIter$LT$T$C$I$GT$$GT$9from_iter17ha2575cd727a3195eE+0xe0>
    2868: 91000063     	add	x3, x3, #0
    286c: 90000004     	adrp	x4, 0x2000 <__ZN98_$LT$alloc..vec..Vec$LT$T$GT$$u20$as$u20$alloc..vec..spec_from_iter..SpecFromIter$LT$T$C$I$GT$$GT$9from_iter17ha2575cd727a3195eE+0xe8>
    2870: 91000084     	add	x4, x4, #0
    2874: 91003fe2     	add	x2, sp, #15
    2878: 52800561     	mov	w1, #43
    287c: 94000000     	bl	0x287c <__ZN98_$LT$alloc..vec..Vec$LT$T$GT$$u20$as$u20$alloc..vec..spec_from_iter..SpecFromIter$LT$T$C$I$GT$$GT$9from_iter17ha2575cd727a3195eE+0xf8>
    2880: d4200020     	brk	#0x1
    2884: d2800008     	mov	x8, #0
    2888: 52800054     	mov	w20, #2
    288c: a90052c8     	stp	x8, x20, [x22]
    2890: f9000ac8     	str	x8, [x22, #16]
    2894: a9447bfd     	ldp	x29, x30, [sp, #64]
    2898: a9434ff4     	ldp	x20, x19, [sp, #48]
    289c: a94257f6     	ldp	x22, x21, [sp, #32]
    28a0: a9415ff8     	ldp	x24, x23, [sp, #16]
    28a4: 910143ff     	add	sp, sp, #80
    28a8: d65f03c0     	ret
    28ac: 52800040     	mov	w0, #2
    28b0: aa1303e1     	mov	x1, x19
    28b4: 94000000     	bl	0x28b4 <__ZN98_$LT$alloc..vec..Vec$LT$T$GT$$u20$as$u20$alloc..vec..spec_from_iter..SpecFromIter$LT$T$C$I$GT$$GT$9from_iter17ha2575cd727a3195eE+0x130>
    28b8: aa0003f6     	mov	x22, x0
    28bc: eb1502ff     	cmp	x23, x21
    28c0: 540000a0     	b.eq	0x28d4 <__ZN98_$LT$alloc..vec..Vec$LT$T$GT$$u20$as$u20$alloc..vec..spec_from_iter..SpecFromIter$LT$T$C$I$GT$$GT$9from_iter17ha2575cd727a3195eE+0x150>
    28c4: aa1403e0     	mov	x0, x20
    28c8: aa1303e1     	mov	x1, x19
    28cc: 52800042     	mov	w2, #2
    28d0: 94000000     	bl	0x28d0 <__ZN98_$LT$alloc..vec..Vec$LT$T$GT$$u20$as$u20$alloc..vec..spec_from_iter..SpecFromIter$LT$T$C$I$GT$$GT$9from_iter17ha2575cd727a3195eE+0x14c>
    28d4: aa1603e0     	mov	x0, x22
    28d8: 94000000     	bl	0x28d8 <__ZN98_$LT$alloc..vec..Vec$LT$T$GT$$u20$as$u20$alloc..vec..spec_from_iter..SpecFromIter$LT$T$C$I$GT$$GT$9from_iter17ha2575cd727a3195eE+0x154>

00000000000028dc <__ZN98_$LT$alloc..vec..Vec$LT$T$GT$$u20$as$u20$alloc..vec..spec_from_iter..SpecFromIter$LT$T$C$I$GT$$GT$9from_iter17hfcd14cbba35686d7E>:
    28dc: a9bc5ff8     	stp	x24, x23, [sp, #-64]!
    28e0: a90157f6     	stp	x22, x21, [sp, #16]
    28e4: a9024ff4     	stp	x20, x19, [sp, #32]
    28e8: a9037bfd     	stp	x29, x30, [sp, #48]
    28ec: 9100c3fd     	add	x29, sp, #48
    28f0: aa0803f3     	mov	x19, x8
    28f4: eb000037     	subs	x23, x1, x0
    28f8: 54000260     	b.eq	0x2944 <__ZN98_$LT$alloc..vec..Vec$LT$T$GT$$u20$as$u20$alloc..vec..spec_from_iter..SpecFromIter$LT$T$C$I$GT$$GT$9from_iter17hfcd14cbba35686d7E+0x68>
    28fc: d37ffaf5     	lsl	x21, x23, #1
    2900: b27ff3e8     	mov	x8, #4611686018427387902
    2904: eb0802ff     	cmp	x23, x8
    2908: 540008c8     	b.hi	0x2a20 <__ZN98_$LT$alloc..vec..Vec$LT$T$GT$$u20$as$u20$alloc..vec..spec_from_iter..SpecFromIter$LT$T$C$I$GT$$GT$9from_iter17hfcd14cbba35686d7E+0x144>
    290c: aa0003f4     	mov	x20, x0
    2910: 90000008     	adrp	x8, 0x2000 <__ZN98_$LT$alloc..vec..Vec$LT$T$GT$$u20$as$u20$alloc..vec..spec_from_iter..SpecFromIter$LT$T$C$I$GT$$GT$9from_iter17hfcd14cbba35686d7E+0x34>
    2914: f9400108     	ldr	x8, [x8]
    2918: 3940011f     	ldrb	wzr, [x8]
    291c: 52800096     	mov	w22, #4
    2920: aa1503e0     	mov	x0, x21
    2924: 52800081     	mov	w1, #4
    2928: 94000000     	bl	0x2928 <__ZN98_$LT$alloc..vec..Vec$LT$T$GT$$u20$as$u20$alloc..vec..spec_from_iter..SpecFromIter$LT$T$C$I$GT$$GT$9from_iter17hfcd14cbba35686d7E+0x4c>
    292c: b40007c0     	cbz	x0, 0x2a24 <__ZN98_$LT$alloc..vec..Vec$LT$T$GT$$u20$as$u20$alloc..vec..spec_from_iter..SpecFromIter$LT$T$C$I$GT$$GT$9from_iter17hfcd14cbba35686d7E+0x148>
    2930: d341fee8     	lsr	x8, x23, #1
    2934: f10042ff     	cmp	x23, #16
    2938: 540000c2     	b.hs	0x2950 <__ZN98_$LT$alloc..vec..Vec$LT$T$GT$$u20$as$u20$alloc..vec..spec_from_iter..SpecFromIter$LT$T$C$I$GT$$GT$9from_iter17hfcd14cbba35686d7E+0x74>
    293c: d2800009     	mov	x9, #0
    2940: 1400001f     	b	0x29bc <__ZN98_$LT$alloc..vec..Vec$LT$T$GT$$u20$as$u20$alloc..vec..spec_from_iter..SpecFromIter$LT$T$C$I$GT$$GT$9from_iter17hfcd14cbba35686d7E+0xe0>
    2944: d2800008     	mov	x8, #0
    2948: 52800080     	mov	w0, #4
    294c: 1400002e     	b	0x2a04 <__ZN98_$LT$alloc..vec..Vec$LT$T$GT$$u20$as$u20$alloc..vec..spec_from_iter..SpecFromIter$LT$T$C$I$GT$$GT$9from_iter17hfcd14cbba35686d7E+0x128>
    2950: 927de509     	and	x9, x8, #0x1ffffffffffffff8
    2954: 5282aaaa     	mov	w10, #5461
    2958: 4e020d40     	dup.8h	v0, w10
    295c: 5286002a     	mov	w10, #12289
    2960: 4e020d41     	dup.8h	v1, w10
    2964: aa0903ea     	mov	x10, x9
    2968: aa0003eb     	mov	x11, x0
    296c: aa1403ec     	mov	x12, x20
    2970: 3cc10582     	ldr	q2, [x12], #16
    2974: 4e60a843     	cmlt.8h	v3, v2, #0
    2978: 4e211c64     	and.16b	v4, v3, v1
    297c: 4f009423     	orr.8h	v3, #1
    2980: 4e629c62     	mul.8h	v2, v3, v2
    2984: 4e60c045     	smull2.4s	v5, v2, v0
    2988: 0e60c046     	smull.4s	v6, v2, v0
    298c: 4e4558c5     	uzp2.8h	v5, v6, v5
    2990: 4f1604a5     	sshr.8h	v5, v5, #10
    2994: 6f1114a5     	usra.8h	v5, v5, #15
    2998: 6e6194a2     	mls.8h	v2, v5, v1
    299c: 4e639444     	mla.8h	v4, v2, v3
    29a0: 0f10a482     	sshll.4s	v2, v4, #0
    29a4: 4f10a483     	sshll2.4s	v3, v4, #0
    29a8: ac810d62     	stp	q2, q3, [x11], #32
    29ac: f100214a     	subs	x10, x10, #8
    29b0: 54fffe01     	b.ne	0x2970 <__ZN98_$LT$alloc..vec..Vec$LT$T$GT$$u20$as$u20$alloc..vec..spec_from_iter..SpecFromIter$LT$T$C$I$GT$$GT$9from_iter17hfcd14cbba35686d7E+0x94>
    29b4: eb09011f     	cmp	x8, x9
    29b8: 54000260     	b.eq	0x2a04 <__ZN98_$LT$alloc..vec..Vec$LT$T$GT$$u20$as$u20$alloc..vec..spec_from_iter..SpecFromIter$LT$T$C$I$GT$$GT$9from_iter17hfcd14cbba35686d7E+0x128>
    29bc: 5282aaaa     	mov	w10, #5461
    29c0: 5286002b     	mov	w11, #12289
    29c4: 78e97a8c     	ldrsh	w12, [x20, x9, lsl #1]
    29c8: 131f7d8d     	asr	w13, w12, #31
    29cc: 320001ad     	orr	w13, w13, #0x1
    29d0: 1b0c7dae     	mul	w14, w13, w12
    29d4: 13003dcf     	sxth	w15, w14
    29d8: 1b0a7def     	mul	w15, w15, w10
    29dc: 131a7df0     	asr	w16, w15, #26
    29e0: 0b4f7e0f     	add	w15, w16, w15, lsr #31
    29e4: 1b0bb9ee     	msub	w14, w15, w11, w14
    29e8: 0a4c3d6c     	and	w12, w11, w12, lsr #15
    29ec: 1b0d31cc     	madd	w12, w14, w13, w12
    29f0: 13003d8c     	sxth	w12, w12
    29f4: b829780c     	str	w12, [x0, x9, lsl #2]
    29f8: 91000529     	add	x9, x9, #1
    29fc: eb09011f     	cmp	x8, x9
    2a00: 54fffe21     	b.ne	0x29c4 <__ZN98_$LT$alloc..vec..Vec$LT$T$GT$$u20$as$u20$alloc..vec..spec_from_iter..SpecFromIter$LT$T$C$I$GT$$GT$9from_iter17hfcd14cbba35686d7E+0xe8>
    2a04: a9000268     	stp	x8, x0, [x19]
    2a08: f9000a68     	str	x8, [x19, #16]
    2a0c: a9437bfd     	ldp	x29, x30, [sp, #48]
    2a10: a9424ff4     	ldp	x20, x19, [sp, #32]
    2a14: a94157f6     	ldp	x22, x21, [sp, #16]
    2a18: a8c45ff8     	ldp	x24, x23, [sp], #64
    2a1c: d65f03c0     	ret
    2a20: d2800016     	mov	x22, #0
    2a24: aa1603e0     	mov	x0, x22
    2a28: aa1503e1     	mov	x1, x21
    2a2c: 94000000     	bl	0x2a2c <__ZN98_$LT$alloc..vec..Vec$LT$T$GT$$u20$as$u20$alloc..vec..spec_from_iter..SpecFromIter$LT$T$C$I$GT$$GT$9from_iter17hfcd14cbba35686d7E+0x150>

0000000000002a30 <__ZN98_$LT$alloc..vec..Vec$LT$T$GT$$u20$as$u20$alloc..vec..spec_from_iter..SpecFromIter$LT$T$C$I$GT$$GT$9from_iter17hb098db5fe23643f5E>:
    2a30: d103c3ff     	sub	sp, sp, #240
    2a34: a90a67fa     	stp	x26, x25, [sp, #160]
    2a38: a90b5ff8     	stp	x24, x23, [sp, #176]
    2a3c: a90c57f6     	stp	x22, x21, [sp, #192]
    2a40: a90d4ff4     	stp	x20, x19, [sp, #208]
    2a44: a90e7bfd     	stp	x29, x30, [sp, #224]
    2a48: 910383fd     	add	x29, sp, #224
    2a4c: aa0003f4     	mov	x20, x0
    2a50: aa0803f3     	mov	x19, x8
    2a54: a944e017     	ldp	x23, x24, [x0, #72]
    2a58: eb170319     	subs	x25, x24, x23
    2a5c: 54000061     	b.ne	0x2a68 <__ZN98_$LT$alloc..vec..Vec$LT$T$GT$$u20$as$u20$alloc..vec..spec_from_iter..SpecFromIter$LT$T$C$I$GT$$GT$9from_iter17hb098db5fe23643f5E+0x38>
    2a60: 52800100     	mov	w0, #8
    2a64: 1400000c     	b	0x2a94 <__ZN98_$LT$alloc..vec..Vec$LT$T$GT$$u20$as$u20$alloc..vec..spec_from_iter..SpecFromIter$LT$T$C$I$GT$$GT$9from_iter17hb098db5fe23643f5E+0x64>
    2a68: d37beb35     	lsl	x21, x25, #5
    2a6c: d37aff28     	lsr	x8, x25, #58
    2a70: b50004a8     	cbnz	x8, 0x2b04 <__ZN98_$LT$alloc..vec..Vec$LT$T$GT$$u20$as$u20$alloc..vec..spec_from_iter..SpecFromIter$LT$T$C$I$GT$$GT$9from_iter17hb098db5fe23643f5E+0xd4>
    2a74: 90000008     	adrp	x8, 0x2000 <__ZN98_$LT$alloc..vec..Vec$LT$T$GT$$u20$as$u20$alloc..vec..spec_from_iter..SpecFromIter$LT$T$C$I$GT$$GT$9from_iter17hb098db5fe23643f5E+0x44>
    2a78: f9400108     	ldr	x8, [x8]
    2a7c: 3940011f     	ldrb	wzr, [x8]
    2a80: 52800116     	mov	w22, #8
    2a84: aa1503e0     	mov	x0, x21
    2a88: 52800101     	mov	w1, #8
    2a8c: 94000000     	bl	0x2a8c <__ZN98_$LT$alloc..vec..Vec$LT$T$GT$$u20$as$u20$alloc..vec..spec_from_iter..SpecFromIter$LT$T$C$I$GT$$GT$9from_iter17hb098db5fe23643f5E+0x5c>
    2a90: b40003c0     	cbz	x0, 0x2b08 <__ZN98_$LT$alloc..vec..Vec$LT$T$GT$$u20$as$u20$alloc..vec..spec_from_iter..SpecFromIter$LT$T$C$I$GT$$GT$9from_iter17hb098db5fe23643f5E+0xd8>
    2a94: a90083f9     	stp	x25, x0, [sp, #8]
    2a98: 910023e8     	add	x8, sp, #8
    2a9c: 91004108     	add	x8, x8, #16
    2aa0: f9000fff     	str	xzr, [sp, #24]
    2aa4: f9402e89     	ldr	x9, [x20, #88]
    2aa8: ad410680     	ldp	q0, q1, [x20, #32]
    2aac: ad0207e0     	stp	q0, q1, [sp, #64]
    2ab0: f940228a     	ldr	x10, [x20, #64]
    2ab4: ad400281     	ldp	q1, q0, [x20]
    2ab8: ad0103e1     	stp	q1, q0, [sp, #32]
    2abc: a9065fea     	stp	x10, x23, [sp, #96]
    2ac0: a90727f8     	stp	x24, x9, [sp, #112]
    2ac4: a93affa8     	stp	x8, xzr, [x29, #-88]
    2ac8: f81b83a0     	stur	x0, [x29, #-72]
    2acc: 910083e0     	add	x0, sp, #32
    2ad0: d10163a1     	sub	x1, x29, #88
    2ad4: 94000000     	bl	0x2ad4 <__ZN98_$LT$alloc..vec..Vec$LT$T$GT$$u20$as$u20$alloc..vec..spec_from_iter..SpecFromIter$LT$T$C$I$GT$$GT$9from_iter17hb098db5fe23643f5E+0xa4>
    2ad8: 3cc083e0     	ldur	q0, [sp, #8]
    2adc: 3d800260     	str	q0, [x19]
    2ae0: f9400fe8     	ldr	x8, [sp, #24]
    2ae4: f9000a68     	str	x8, [x19, #16]
    2ae8: a94e7bfd     	ldp	x29, x30, [sp, #224]
    2aec: a94d4ff4     	ldp	x20, x19, [sp, #208]
    2af0: a94c57f6     	ldp	x22, x21, [sp, #192]
    2af4: a94b5ff8     	ldp	x24, x23, [sp, #176]
    2af8: a94a67fa     	ldp	x26, x25, [sp, #160]
    2afc: 9103c3ff     	add	sp, sp, #240
    2b00: d65f03c0     	ret
    2b04: d2800016     	mov	x22, #0
    2b08: aa1603e0     	mov	x0, x22
    2b0c: aa1503e1     	mov	x1, x21
    2b10: 94000000     	bl	0x2b10 <__ZN98_$LT$alloc..vec..Vec$LT$T$GT$$u20$as$u20$alloc..vec..spec_from_iter..SpecFromIter$LT$T$C$I$GT$$GT$9from_iter17hb098db5fe23643f5E+0xe0>
    2b14: aa0003f3     	mov	x19, x0
    2b18: 910023e0     	add	x0, sp, #8
    2b1c: 94000000     	bl	0x2b1c <__ZN98_$LT$alloc..vec..Vec$LT$T$GT$$u20$as$u20$alloc..vec..spec_from_iter..SpecFromIter$LT$T$C$I$GT$$GT$9from_iter17hb098db5fe23643f5E+0xec>
    2b20: aa1303e0     	mov	x0, x19
    2b24: 94000000     	bl	0x2b24 <__ZN98_$LT$alloc..vec..Vec$LT$T$GT$$u20$as$u20$alloc..vec..spec_from_iter..SpecFromIter$LT$T$C$I$GT$$GT$9from_iter17hb098db5fe23643f5E+0xf4>

0000000000002b28 <__ZN98_$LT$alloc..vec..Vec$LT$T$GT$$u20$as$u20$alloc..vec..spec_from_iter..SpecFromIter$LT$T$C$I$GT$$GT$9from_iter17hb3773363f09ae2f1E>:
    2b28: d10303ff     	sub	sp, sp, #192
    2b2c: a90767fa     	stp	x26, x25, [sp, #112]
    2b30: a9085ff8     	stp	x24, x23, [sp, #128]
    2b34: a90957f6     	stp	x22, x21, [sp, #144]
    2b38: a90a4ff4     	stp	x20, x19, [sp, #160]
    2b3c: a90b7bfd     	stp	x29, x30, [sp, #176]
    2b40: 9102c3fd     	add	x29, sp, #176
    2b44: aa0003f4     	mov	x20, x0
    2b48: aa0803f3     	mov	x19, x8
    2b4c: a9426017     	ldp	x23, x24, [x0, #32]
    2b50: eb170319     	subs	x25, x24, x23
    2b54: 54000061     	b.ne	0x2b60 <__ZN98_$LT$alloc..vec..Vec$LT$T$GT$$u20$as$u20$alloc..vec..spec_from_iter..SpecFromIter$LT$T$C$I$GT$$GT$9from_iter17hb3773363f09ae2f1E+0x38>
    2b58: 52800100     	mov	w0, #8
    2b5c: 1400000c     	b	0x2b8c <__ZN98_$LT$alloc..vec..Vec$LT$T$GT$$u20$as$u20$alloc..vec..spec_from_iter..SpecFromIter$LT$T$C$I$GT$$GT$9from_iter17hb3773363f09ae2f1E+0x64>
    2b60: d37beb35     	lsl	x21, x25, #5
    2b64: d37aff28     	lsr	x8, x25, #58
    2b68: b5000428     	cbnz	x8, 0x2bec <__ZN98_$LT$alloc..vec..Vec$LT$T$GT$$u20$as$u20$alloc..vec..spec_from_iter..SpecFromIter$LT$T$C$I$GT$$GT$9from_iter17hb3773363f09ae2f1E+0xc4>
    2b6c: 90000008     	adrp	x8, 0x2000 <__ZN98_$LT$alloc..vec..Vec$LT$T$GT$$u20$as$u20$alloc..vec..spec_from_iter..SpecFromIter$LT$T$C$I$GT$$GT$9from_iter17hb3773363f09ae2f1E+0x44>
    2b70: f9400108     	ldr	x8, [x8]
    2b74: 3940011f     	ldrb	wzr, [x8]
    2b78: 52800116     	mov	w22, #8
    2b7c: aa1503e0     	mov	x0, x21
    2b80: 52800101     	mov	w1, #8
    2b84: 94000000     	bl	0x2b84 <__ZN98_$LT$alloc..vec..Vec$LT$T$GT$$u20$as$u20$alloc..vec..spec_from_iter..SpecFromIter$LT$T$C$I$GT$$GT$9from_iter17hb3773363f09ae2f1E+0x5c>
    2b88: b4000340     	cbz	x0, 0x2bf0 <__ZN98_$LT$alloc..vec..Vec$LT$T$GT$$u20$as$u20$alloc..vec..spec_from_iter..SpecFromIter$LT$T$C$I$GT$$GT$9from_iter17hb3773363f09ae2f1E+0xc8>
    2b8c: a90083f9     	stp	x25, x0, [sp, #8]
    2b90: 910023e8     	add	x8, sp, #8
    2b94: 91004108     	add	x8, x8, #16
    2b98: f9000fff     	str	xzr, [sp, #24]
    2b9c: f9401a89     	ldr	x9, [x20, #48]
    2ba0: ad400680     	ldp	q0, q1, [x20]
    2ba4: ad0107e0     	stp	q0, q1, [sp, #32]
    2ba8: a90463f7     	stp	x23, x24, [sp, #64]
    2bac: a90523e9     	stp	x9, x8, [sp, #80]
    2bb0: a90603ff     	stp	xzr, x0, [sp, #96]
    2bb4: 910083e0     	add	x0, sp, #32
    2bb8: 910163e1     	add	x1, sp, #88
    2bbc: 94000000     	bl	0x2bbc <__ZN98_$LT$alloc..vec..Vec$LT$T$GT$$u20$as$u20$alloc..vec..spec_from_iter..SpecFromIter$LT$T$C$I$GT$$GT$9from_iter17hb3773363f09ae2f1E+0x94>
    2bc0: 3cc083e0     	ldur	q0, [sp, #8]
    2bc4: 3d800260     	str	q0, [x19]
    2bc8: f9400fe8     	ldr	x8, [sp, #24]
    2bcc: f9000a68     	str	x8, [x19, #16]
    2bd0: a94b7bfd     	ldp	x29, x30, [sp, #176]
    2bd4: a94a4ff4     	ldp	x20, x19, [sp, #160]
    2bd8: a94957f6     	ldp	x22, x21, [sp, #144]
    2bdc: a9485ff8     	ldp	x24, x23, [sp, #128]
    2be0: a94767fa     	ldp	x26, x25, [sp, #112]
    2be4: 910303ff     	add	sp, sp, #192
    2be8: d65f03c0     	ret
    2bec: d2800016     	mov	x22, #0
    2bf0: aa1603e0     	mov	x0, x22
    2bf4: aa1503e1     	mov	x1, x21
    2bf8: 94000000     	bl	0x2bf8 <__ZN98_$LT$alloc..vec..Vec$LT$T$GT$$u20$as$u20$alloc..vec..spec_from_iter..SpecFromIter$LT$T$C$I$GT$$GT$9from_iter17hb3773363f09ae2f1E+0xd0>
    2bfc: aa0003f3     	mov	x19, x0
    2c00: 910023e0     	add	x0, sp, #8
    2c04: 94000000     	bl	0x2c04 <__ZN98_$LT$alloc..vec..Vec$LT$T$GT$$u20$as$u20$alloc..vec..spec_from_iter..SpecFromIter$LT$T$C$I$GT$$GT$9from_iter17hb3773363f09ae2f1E+0xdc>
    2c08: aa1303e0     	mov	x0, x19
    2c0c: 94000000     	bl	0x2c0c <__ZN98_$LT$alloc..vec..Vec$LT$T$GT$$u20$as$u20$alloc..vec..spec_from_iter..SpecFromIter$LT$T$C$I$GT$$GT$9from_iter17hb3773363f09ae2f1E+0xe4>

0000000000002c10 <__ZN98_$LT$alloc..vec..Vec$LT$T$GT$$u20$as$u20$alloc..vec..spec_from_iter..SpecFromIter$LT$T$C$I$GT$$GT$9from_iter17hc79ca2b02c031774E>:
    2c10: d10243ff     	sub	sp, sp, #144
    2c14: a9036ffc     	stp	x28, x27, [sp, #48]
    2c18: a90467fa     	stp	x26, x25, [sp, #64]
    2c1c: a9055ff8     	stp	x24, x23, [sp, #80]
    2c20: a90657f6     	stp	x22, x21, [sp, #96]
    2c24: a9074ff4     	stp	x20, x19, [sp, #112]
    2c28: a9087bfd     	stp	x29, x30, [sp, #128]
    2c2c: 910203fd     	add	x29, sp, #128
    2c30: eb000036     	subs	x22, x1, x0
    2c34: 54000700     	b.eq	0x2d14 <__ZN98_$LT$alloc..vec..Vec$LT$T$GT$$u20$as$u20$alloc..vec..spec_from_iter..SpecFromIter$LT$T$C$I$GT$$GT$9from_iter17hc79ca2b02c031774E+0x104>
    2c38: b27be7e9     	mov	x9, #9223372036854775776
    2c3c: eb0902df     	cmp	x22, x9
    2c40: 54000908     	b.hi	0x2d60 <__ZN98_$LT$alloc..vec..Vec$LT$T$GT$$u20$as$u20$alloc..vec..spec_from_iter..SpecFromIter$LT$T$C$I$GT$$GT$9from_iter17hc79ca2b02c031774E+0x150>
    2c44: aa0003f4     	mov	x20, x0
    2c48: f9000be8     	str	x8, [sp, #16]
    2c4c: 90000008     	adrp	x8, 0x2000 <__ZN98_$LT$alloc..vec..Vec$LT$T$GT$$u20$as$u20$alloc..vec..spec_from_iter..SpecFromIter$LT$T$C$I$GT$$GT$9from_iter17hc79ca2b02c031774E+0x3c>
    2c50: f9400108     	ldr	x8, [x8]
    2c54: 3940011f     	ldrb	wzr, [x8]
    2c58: 52800117     	mov	w23, #8
    2c5c: aa1603e0     	mov	x0, x22
    2c60: 52800101     	mov	w1, #8
    2c64: 94000000     	bl	0x2c64 <__ZN98_$LT$alloc..vec..Vec$LT$T$GT$$u20$as$u20$alloc..vec..spec_from_iter..SpecFromIter$LT$T$C$I$GT$$GT$9from_iter17hc79ca2b02c031774E+0x54>
    2c68: b40007e0     	cbz	x0, 0x2d64 <__ZN98_$LT$alloc..vec..Vec$LT$T$GT$$u20$as$u20$alloc..vec..spec_from_iter..SpecFromIter$LT$T$C$I$GT$$GT$9from_iter17hc79ca2b02c031774E+0x154>
    2c6c: aa0003f5     	mov	x21, x0
    2c70: d2800013     	mov	x19, #0
    2c74: d280001a     	mov	x26, #0
    2c78: d345fedb     	lsr	x27, x22, #5
    2c7c: a90183fb     	stp	x27, x0, [sp, #24]
    2c80: 52800108     	mov	w8, #8
    2c84: f90007e8     	str	x8, [sp, #8]
    2c88: 14000011     	b	0x2ccc <__ZN98_$LT$alloc..vec..Vec$LT$T$GT$$u20$as$u20$alloc..vec..spec_from_iter..SpecFromIter$LT$T$C$I$GT$$GT$9from_iter17hc79ca2b02c031774E+0xbc>
    2c8c: d2800017     	mov	x23, #0
    2c90: 52800119     	mov	w25, #8
    2c94: aa1903e0     	mov	x0, x25
    2c98: aa1803e1     	mov	x1, x24
    2c9c: aa1703e2     	mov	x2, x23
    2ca0: 94000000     	bl	0x2ca0 <__ZN98_$LT$alloc..vec..Vec$LT$T$GT$$u20$as$u20$alloc..vec..spec_from_iter..SpecFromIter$LT$T$C$I$GT$$GT$9from_iter17hc79ca2b02c031774E+0x90>
    2ca4: 52800048     	mov	w8, #2
    2ca8: 4b160108     	sub	w8, w8, w22
    2cac: 8b1302a9     	add	x9, x21, x19
    2cb0: a900653c     	stp	x28, x25, [x9]
    2cb4: f900093c     	str	x28, [x9, #16]
    2cb8: 39006128     	strb	w8, [x9, #24]
    2cbc: 9100075a     	add	x26, x26, #1
    2cc0: 91008273     	add	x19, x19, #32
    2cc4: eb1a037f     	cmp	x27, x26
    2cc8: 54000220     	b.eq	0x2d0c <__ZN98_$LT$alloc..vec..Vec$LT$T$GT$$u20$as$u20$alloc..vec..spec_from_iter..SpecFromIter$LT$T$C$I$GT$$GT$9from_iter17hc79ca2b02c031774E+0xfc>
    2ccc: 8b130288     	add	x8, x20, x19
    2cd0: 39406116     	ldrb	w22, [x8, #24]
    2cd4: a940f118     	ldp	x24, x28, [x8, #8]
    2cd8: b4fffdbc     	cbz	x28, 0x2c8c <__ZN98_$LT$alloc..vec..Vec$LT$T$GT$$u20$as$u20$alloc..vec..spec_from_iter..SpecFromIter$LT$T$C$I$GT$$GT$9from_iter17hc79ca2b02c031774E+0x7c>
    2cdc: d37df397     	lsl	x23, x28, #3
    2ce0: d37cff88     	lsr	x8, x28, #60
    2ce4: b5000348     	cbnz	x8, 0x2d4c <__ZN98_$LT$alloc..vec..Vec$LT$T$GT$$u20$as$u20$alloc..vec..spec_from_iter..SpecFromIter$LT$T$C$I$GT$$GT$9from_iter17hc79ca2b02c031774E+0x13c>
    2ce8: 90000008     	adrp	x8, 0x2000 <__ZN98_$LT$alloc..vec..Vec$LT$T$GT$$u20$as$u20$alloc..vec..spec_from_iter..SpecFromIter$LT$T$C$I$GT$$GT$9from_iter17hc79ca2b02c031774E+0xd8>
    2cec: f9400108     	ldr	x8, [x8]
    2cf0: 3940011f     	ldrb	wzr, [x8]
    2cf4: aa1703e0     	mov	x0, x23
    2cf8: 52800101     	mov	w1, #8
    2cfc: 94000000     	bl	0x2cfc <__ZN98_$LT$alloc..vec..Vec$LT$T$GT$$u20$as$u20$alloc..vec..spec_from_iter..SpecFromIter$LT$T$C$I$GT$$GT$9from_iter17hc79ca2b02c031774E+0xec>
    2d00: b4000280     	cbz	x0, 0x2d50 <__ZN98_$LT$alloc..vec..Vec$LT$T$GT$$u20$as$u20$alloc..vec..spec_from_iter..SpecFromIter$LT$T$C$I$GT$$GT$9from_iter17hc79ca2b02c031774E+0x140>
    2d04: aa0003f9     	mov	x25, x0
    2d08: 17ffffe3     	b	0x2c94 <__ZN98_$LT$alloc..vec..Vec$LT$T$GT$$u20$as$u20$alloc..vec..spec_from_iter..SpecFromIter$LT$T$C$I$GT$$GT$9from_iter17hc79ca2b02c031774E+0x84>
    2d0c: f9400be8     	ldr	x8, [sp, #16]
    2d10: 14000004     	b	0x2d20 <__ZN98_$LT$alloc..vec..Vec$LT$T$GT$$u20$as$u20$alloc..vec..spec_from_iter..SpecFromIter$LT$T$C$I$GT$$GT$9from_iter17hc79ca2b02c031774E+0x110>
    2d14: d280001b     	mov	x27, #0
    2d18: 52800109     	mov	w9, #8
    2d1c: a901a7ff     	stp	xzr, x9, [sp, #24]
    2d20: 3cc183e0     	ldur	q0, [sp, #24]
    2d24: 3d800100     	str	q0, [x8]
    2d28: f900091b     	str	x27, [x8, #16]
    2d2c: a9487bfd     	ldp	x29, x30, [sp, #128]
    2d30: a9474ff4     	ldp	x20, x19, [sp, #112]
    2d34: a94657f6     	ldp	x22, x21, [sp, #96]
    2d38: a9455ff8     	ldp	x24, x23, [sp, #80]
    2d3c: a94467fa     	ldp	x26, x25, [sp, #64]
    2d40: a9436ffc     	ldp	x28, x27, [sp, #48]
    2d44: 910243ff     	add	sp, sp, #144
    2d48: d65f03c0     	ret
    2d4c: f90007ff     	str	xzr, [sp, #8]
    2d50: f94007e0     	ldr	x0, [sp, #8]
    2d54: aa1703e1     	mov	x1, x23
    2d58: 94000000     	bl	0x2d58 <__ZN98_$LT$alloc..vec..Vec$LT$T$GT$$u20$as$u20$alloc..vec..spec_from_iter..SpecFromIter$LT$T$C$I$GT$$GT$9from_iter17hc79ca2b02c031774E+0x148>
    2d5c: d4200020     	brk	#0x1
    2d60: d2800017     	mov	x23, #0
    2d64: aa1703e0     	mov	x0, x23
    2d68: aa1603e1     	mov	x1, x22
    2d6c: 94000000     	bl	0x2d6c <__ZN98_$LT$alloc..vec..Vec$LT$T$GT$$u20$as$u20$alloc..vec..spec_from_iter..SpecFromIter$LT$T$C$I$GT$$GT$9from_iter17hc79ca2b02c031774E+0x15c>
    2d70: aa0003f3     	mov	x19, x0
    2d74: f90017fa     	str	x26, [sp, #40]
    2d78: 910063e0     	add	x0, sp, #24
    2d7c: 94000000     	bl	0x2d7c <__ZN98_$LT$alloc..vec..Vec$LT$T$GT$$u20$as$u20$alloc..vec..spec_from_iter..SpecFromIter$LT$T$C$I$GT$$GT$9from_iter17hc79ca2b02c031774E+0x16c>
    2d80: aa1303e0     	mov	x0, x19
    2d84: 94000000     	bl	0x2d84 <__ZN98_$LT$alloc..vec..Vec$LT$T$GT$$u20$as$u20$alloc..vec..spec_from_iter..SpecFromIter$LT$T$C$I$GT$$GT$9from_iter17hc79ca2b02c031774E+0x174>

0000000000002d88 <__ZN98_$LT$alloc..vec..Vec$LT$T$GT$$u20$as$u20$alloc..vec..spec_from_iter..SpecFromIter$LT$T$C$I$GT$$GT$9from_iter17hca7269664f188ba8E>:
    2d88: d101c3ff     	sub	sp, sp, #112
    2d8c: a9035ff8     	stp	x24, x23, [sp, #48]
    2d90: a90457f6     	stp	x22, x21, [sp, #64]
    2d94: a9054ff4     	stp	x20, x19, [sp, #80]
    2d98: a9067bfd     	stp	x29, x30, [sp, #96]
    2d9c: 910183fd     	add	x29, sp, #96
    2da0: aa0803f3     	mov	x19, x8
    2da4: eb000038     	subs	x24, x1, x0
    2da8: 54000280     	b.eq	0x2df8 <__ZN98_$LT$alloc..vec..Vec$LT$T$GT$$u20$as$u20$alloc..vec..spec_from_iter..SpecFromIter$LT$T$C$I$GT$$GT$9from_iter17hca7269664f188ba8E+0x70>
    2dac: d37cef14     	lsl	x20, x24, #4
    2db0: b27fe7e8     	mov	x8, #576460752303423486
    2db4: eb08031f     	cmp	x24, x8
    2db8: 54000468     	b.hi	0x2e44 <__ZN98_$LT$alloc..vec..Vec$LT$T$GT$$u20$as$u20$alloc..vec..spec_from_iter..SpecFromIter$LT$T$C$I$GT$$GT$9from_iter17hca7269664f188ba8E+0xbc>
    2dbc: aa0003f6     	mov	x22, x0
    2dc0: aa0103f7     	mov	x23, x1
    2dc4: 90000008     	adrp	x8, 0x2000 <__ZN98_$LT$alloc..vec..Vec$LT$T$GT$$u20$as$u20$alloc..vec..spec_from_iter..SpecFromIter$LT$T$C$I$GT$$GT$9from_iter17hca7269664f188ba8E+0x3c>
    2dc8: f9400108     	ldr	x8, [x8]
    2dcc: 3940011f     	ldrb	wzr, [x8]
    2dd0: 52800115     	mov	w21, #8
    2dd4: aa1403e0     	mov	x0, x20
    2dd8: 52800101     	mov	w1, #8
    2ddc: 94000000     	bl	0x2ddc <__ZN98_$LT$alloc..vec..Vec$LT$T$GT$$u20$as$u20$alloc..vec..spec_from_iter..SpecFromIter$LT$T$C$I$GT$$GT$9from_iter17hca7269664f188ba8E+0x54>
    2de0: b4000340     	cbz	x0, 0x2e48 <__ZN98_$LT$alloc..vec..Vec$LT$T$GT$$u20$as$u20$alloc..vec..spec_from_iter..SpecFromIter$LT$T$C$I$GT$$GT$9from_iter17hca7269664f188ba8E+0xc0>
    2de4: aa0003e8     	mov	x8, x0
    2de8: d341ff09     	lsr	x9, x24, #1
    2dec: aa1703e1     	mov	x1, x23
    2df0: aa1603e0     	mov	x0, x22
    2df4: 14000003     	b	0x2e00 <__ZN98_$LT$alloc..vec..Vec$LT$T$GT$$u20$as$u20$alloc..vec..spec_from_iter..SpecFromIter$LT$T$C$I$GT$$GT$9from_iter17hca7269664f188ba8E+0x78>
    2df8: d2800009     	mov	x9, #0
    2dfc: 52800108     	mov	w8, #8
    2e00: a90023e9     	stp	x9, x8, [sp]
    2e04: 910003e9     	mov	x9, sp
    2e08: 91004129     	add	x9, x9, #16
    2e0c: a90127ff     	stp	xzr, x9, [sp, #16]
    2e10: a90223ff     	stp	xzr, x8, [sp, #32]
    2e14: 910063e2     	add	x2, sp, #24
    2e18: 94000000     	bl	0x2e18 <__ZN98_$LT$alloc..vec..Vec$LT$T$GT$$u20$as$u20$alloc..vec..spec_from_iter..SpecFromIter$LT$T$C$I$GT$$GT$9from_iter17hca7269664f188ba8E+0x90>
    2e1c: 3dc003e0     	ldr	q0, [sp]
    2e20: 3d800260     	str	q0, [x19]
    2e24: f9400be8     	ldr	x8, [sp, #16]
    2e28: f9000a68     	str	x8, [x19, #16]
    2e2c: a9467bfd     	ldp	x29, x30, [sp, #96]
    2e30: a9454ff4     	ldp	x20, x19, [sp, #80]
    2e34: a94457f6     	ldp	x22, x21, [sp, #64]
    2e38: a9435ff8     	ldp	x24, x23, [sp, #48]
    2e3c: 9101c3ff     	add	sp, sp, #112
    2e40: d65f03c0     	ret
    2e44: d2800015     	mov	x21, #0
    2e48: aa1503e0     	mov	x0, x21
    2e4c: aa1403e1     	mov	x1, x20
    2e50: 94000000     	bl	0x2e50 <__ZN98_$LT$alloc..vec..Vec$LT$T$GT$$u20$as$u20$alloc..vec..spec_from_iter..SpecFromIter$LT$T$C$I$GT$$GT$9from_iter17hca7269664f188ba8E+0xc8>
    2e54: aa0003f3     	mov	x19, x0
    2e58: 910003e0     	mov	x0, sp
    2e5c: 94000000     	bl	0x2e5c <__ZN98_$LT$alloc..vec..Vec$LT$T$GT$$u20$as$u20$alloc..vec..spec_from_iter..SpecFromIter$LT$T$C$I$GT$$GT$9from_iter17hca7269664f188ba8E+0xd4>
    2e60: aa1303e0     	mov	x0, x19
    2e64: 94000000     	bl	0x2e64 <__ZN98_$LT$alloc..vec..Vec$LT$T$GT$$u20$as$u20$alloc..vec..spec_from_iter..SpecFromIter$LT$T$C$I$GT$$GT$9from_iter17hca7269664f188ba8E+0xdc>

0000000000002e68 <__ZN98_$LT$alloc..vec..Vec$LT$T$GT$$u20$as$u20$alloc..vec..spec_from_iter..SpecFromIter$LT$T$C$I$GT$$GT$9from_iter17hd10dac28a508befaE>:
    2e68: a9bd57f6     	stp	x22, x21, [sp, #-48]!
    2e6c: a9014ff4     	stp	x20, x19, [sp, #16]
    2e70: a9027bfd     	stp	x29, x30, [sp, #32]
    2e74: 910083fd     	add	x29, sp, #32
    2e78: aa0803f3     	mov	x19, x8
    2e7c: eb000035     	subs	x21, x1, x0
    2e80: 54000240     	b.eq	0x2ec8 <__ZN98_$LT$alloc..vec..Vec$LT$T$GT$$u20$as$u20$alloc..vec..spec_from_iter..SpecFromIter$LT$T$C$I$GT$$GT$9from_iter17hd10dac28a508befaE+0x60>
    2e84: b27cebe8     	mov	x8, #9223372036854775792
    2e88: eb0802bf     	cmp	x21, x8
    2e8c: 540005c8     	b.hi	0x2f44 <__ZN98_$LT$alloc..vec..Vec$LT$T$GT$$u20$as$u20$alloc..vec..spec_from_iter..SpecFromIter$LT$T$C$I$GT$$GT$9from_iter17hd10dac28a508befaE+0xdc>
    2e90: aa0003f4     	mov	x20, x0
    2e94: 90000008     	adrp	x8, 0x2000 <__ZN98_$LT$alloc..vec..Vec$LT$T$GT$$u20$as$u20$alloc..vec..spec_from_iter..SpecFromIter$LT$T$C$I$GT$$GT$9from_iter17hd10dac28a508befaE+0x2c>
    2e98: f9400108     	ldr	x8, [x8]
    2e9c: 3940011f     	ldrb	wzr, [x8]
    2ea0: 52800116     	mov	w22, #8
    2ea4: aa1503e0     	mov	x0, x21
    2ea8: 52800101     	mov	w1, #8
    2eac: 94000000     	bl	0x2eac <__ZN98_$LT$alloc..vec..Vec$LT$T$GT$$u20$as$u20$alloc..vec..spec_from_iter..SpecFromIter$LT$T$C$I$GT$$GT$9from_iter17hd10dac28a508befaE+0x44>
    2eb0: b40004c0     	cbz	x0, 0x2f48 <__ZN98_$LT$alloc..vec..Vec$LT$T$GT$$u20$as$u20$alloc..vec..spec_from_iter..SpecFromIter$LT$T$C$I$GT$$GT$9from_iter17hd10dac28a508befaE+0xe0>
    2eb4: d344fea8     	lsr	x8, x21, #4
    2eb8: f10302bf     	cmp	x21, #192
    2ebc: 540000c2     	b.hs	0x2ed4 <__ZN98_$LT$alloc..vec..Vec$LT$T$GT$$u20$as$u20$alloc..vec..spec_from_iter..SpecFromIter$LT$T$C$I$GT$$GT$9from_iter17hd10dac28a508befaE+0x6c>
    2ec0: d2800009     	mov	x9, #0
    2ec4: 14000024     	b	0x2f54 <__ZN98_$LT$alloc..vec..Vec$LT$T$GT$$u20$as$u20$alloc..vec..spec_from_iter..SpecFromIter$LT$T$C$I$GT$$GT$9from_iter17hd10dac28a508befaE+0xec>
    2ec8: d2800008     	mov	x8, #0
    2ecc: 52800100     	mov	w0, #8
    2ed0: 14000028     	b	0x2f70 <__ZN98_$LT$alloc..vec..Vec$LT$T$GT$$u20$as$u20$alloc..vec..spec_from_iter..SpecFromIter$LT$T$C$I$GT$$GT$9from_iter17hd10dac28a508befaE+0x108>
    2ed4: d2800009     	mov	x9, #0
    2ed8: d100050a     	sub	x10, x8, #1
    2edc: d37ced4b     	lsl	x11, x10, #4
    2ee0: 8b0b000c     	add	x12, x0, x11
    2ee4: eb00019f     	cmp	x12, x0
    2ee8: 54000363     	b.lo	0x2f54 <__ZN98_$LT$alloc..vec..Vec$LT$T$GT$$u20$as$u20$alloc..vec..spec_from_iter..SpecFromIter$LT$T$C$I$GT$$GT$9from_iter17hd10dac28a508befaE+0xec>
    2eec: 9100200c     	add	x12, x0, #8
    2ef0: 8b0b018b     	add	x11, x12, x11
    2ef4: eb0c017f     	cmp	x11, x12
    2ef8: 540002e3     	b.lo	0x2f54 <__ZN98_$LT$alloc..vec..Vec$LT$T$GT$$u20$as$u20$alloc..vec..spec_from_iter..SpecFromIter$LT$T$C$I$GT$$GT$9from_iter17hd10dac28a508befaE+0xec>
    2efc: d37cfd4a     	lsr	x10, x10, #60
    2f00: b50002aa     	cbnz	x10, 0x2f54 <__ZN98_$LT$alloc..vec..Vec$LT$T$GT$$u20$as$u20$alloc..vec..spec_from_iter..SpecFromIter$LT$T$C$I$GT$$GT$9from_iter17hd10dac28a508befaE+0xec>
    2f04: 927ee109     	and	x9, x8, #0x7fffffffffffffc
    2f08: aa0903eb     	mov	x11, x9
    2f0c: 8b0a028c     	add	x12, x20, x10
    2f10: ad400181     	ldp	q1, q0, [x12]
    2f14: ad410983     	ldp	q3, q2, [x12, #32]
    2f18: 8b0a000c     	add	x12, x0, x10
    2f1c: 6ee0f821     	fneg.2d	v1, v1
    2f20: 6ee0f800     	fneg.2d	v0, v0
    2f24: ad000181     	stp	q1, q0, [x12]
    2f28: 6ee0f860     	fneg.2d	v0, v3
    2f2c: 6ee0f841     	fneg.2d	v1, v2
    2f30: ad010580     	stp	q0, q1, [x12, #32]
    2f34: 9101014a     	add	x10, x10, #64
    2f38: f100116b     	subs	x11, x11, #4
    2f3c: 54fffe81     	b.ne	0x2f0c <__ZN98_$LT$alloc..vec..Vec$LT$T$GT$$u20$as$u20$alloc..vec..spec_from_iter..SpecFromIter$LT$T$C$I$GT$$GT$9from_iter17hd10dac28a508befaE+0xa4>
    2f40: 1400000a     	b	0x2f68 <__ZN98_$LT$alloc..vec..Vec$LT$T$GT$$u20$as$u20$alloc..vec..spec_from_iter..SpecFromIter$LT$T$C$I$GT$$GT$9from_iter17hd10dac28a508befaE+0x100>
    2f44: d2800016     	mov	x22, #0
    2f48: aa1603e0     	mov	x0, x22
    2f4c: aa1503e1     	mov	x1, x21
    2f50: 94000000     	bl	0x2f50 <__ZN98_$LT$alloc..vec..Vec$LT$T$GT$$u20$as$u20$alloc..vec..spec_from_iter..SpecFromIter$LT$T$C$I$GT$$GT$9from_iter17hd10dac28a508befaE+0xe8>
    2f54: d37ced2a     	lsl	x10, x9, #4
    2f58: 3cea6a80     	ldr	q0, [x20, x10]
    2f5c: 6ee0f800     	fneg.2d	v0, v0
    2f60: 3caa6800     	str	q0, [x0, x10]
    2f64: 91000529     	add	x9, x9, #1
    2f68: eb09011f     	cmp	x8, x9
    2f6c: 54ffff41     	b.ne	0x2f54 <__ZN98_$LT$alloc..vec..Vec$LT$T$GT$$u20$as$u20$alloc..vec..spec_from_iter..SpecFromIter$LT$T$C$I$GT$$GT$9from_iter17hd10dac28a508befaE+0xec>
    2f70: a9000268     	stp	x8, x0, [x19]
    2f74: f9000a68     	str	x8, [x19, #16]
    2f78: a9427bfd     	ldp	x29, x30, [sp, #32]
    2f7c: a9414ff4     	ldp	x20, x19, [sp, #16]
    2f80: a8c357f6     	ldp	x22, x21, [sp], #48
    2f84: d65f03c0     	ret

0000000000002f88 <__ZN98_$LT$alloc..vec..Vec$LT$T$GT$$u20$as$u20$alloc..vec..spec_from_iter..SpecFromIter$LT$T$C$I$GT$$GT$9from_iter17hd74520ef9cd770b1E>:
    2f88: d101c3ff     	sub	sp, sp, #112
    2f8c: a9035ff8     	stp	x24, x23, [sp, #48]
    2f90: a90457f6     	stp	x22, x21, [sp, #64]
    2f94: a9054ff4     	stp	x20, x19, [sp, #80]
    2f98: a9067bfd     	stp	x29, x30, [sp, #96]
    2f9c: 910183fd     	add	x29, sp, #96
    2fa0: aa0803f3     	mov	x19, x8
    2fa4: eb000038     	subs	x24, x1, x0
    2fa8: 54000280     	b.eq	0x2ff8 <__ZN98_$LT$alloc..vec..Vec$LT$T$GT$$u20$as$u20$alloc..vec..spec_from_iter..SpecFromIter$LT$T$C$I$GT$$GT$9from_iter17hd74520ef9cd770b1E+0x70>
    2fac: d37cef14     	lsl	x20, x24, #4
    2fb0: b27fe7e8     	mov	x8, #576460752303423486
    2fb4: eb08031f     	cmp	x24, x8
    2fb8: 54000468     	b.hi	0x3044 <__ZN98_$LT$alloc..vec..Vec$LT$T$GT$$u20$as$u20$alloc..vec..spec_from_iter..SpecFromIter$LT$T$C$I$GT$$GT$9from_iter17hd74520ef9cd770b1E+0xbc>
    2fbc: aa0003f6     	mov	x22, x0
    2fc0: aa0103f7     	mov	x23, x1
    2fc4: 90000008     	adrp	x8, 0x2000 <__ZN98_$LT$alloc..vec..Vec$LT$T$GT$$u20$as$u20$alloc..vec..spec_from_iter..SpecFromIter$LT$T$C$I$GT$$GT$9from_iter17hd74520ef9cd770b1E+0x3c>
    2fc8: f9400108     	ldr	x8, [x8]
    2fcc: 3940011f     	ldrb	wzr, [x8]
    2fd0: 52800115     	mov	w21, #8
    2fd4: aa1403e0     	mov	x0, x20
    2fd8: 52800101     	mov	w1, #8
    2fdc: 94000000     	bl	0x2fdc <__ZN98_$LT$alloc..vec..Vec$LT$T$GT$$u20$as$u20$alloc..vec..spec_from_iter..SpecFromIter$LT$T$C$I$GT$$GT$9from_iter17hd74520ef9cd770b1E+0x54>
    2fe0: b4000340     	cbz	x0, 0x3048 <__ZN98_$LT$alloc..vec..Vec$LT$T$GT$$u20$as$u20$alloc..vec..spec_from_iter..SpecFromIter$LT$T$C$I$GT$$GT$9from_iter17hd74520ef9cd770b1E+0xc0>
    2fe4: aa0003e8     	mov	x8, x0
    2fe8: d341ff09     	lsr	x9, x24, #1
    2fec: aa1703e1     	mov	x1, x23
    2ff0: aa1603e0     	mov	x0, x22
    2ff4: 14000003     	b	0x3000 <__ZN98_$LT$alloc..vec..Vec$LT$T$GT$$u20$as$u20$alloc..vec..spec_from_iter..SpecFromIter$LT$T$C$I$GT$$GT$9from_iter17hd74520ef9cd770b1E+0x78>
    2ff8: d2800009     	mov	x9, #0
    2ffc: 52800108     	mov	w8, #8
    3000: a90023e9     	stp	x9, x8, [sp]
    3004: 910003e9     	mov	x9, sp
    3008: 91004129     	add	x9, x9, #16
    300c: a90127ff     	stp	xzr, x9, [sp, #16]
    3010: a90223ff     	stp	xzr, x8, [sp, #32]
    3014: 910063e2     	add	x2, sp, #24
    3018: 94000000     	bl	0x3018 <__ZN98_$LT$alloc..vec..Vec$LT$T$GT$$u20$as$u20$alloc..vec..spec_from_iter..SpecFromIter$LT$T$C$I$GT$$GT$9from_iter17hd74520ef9cd770b1E+0x90>
    301c: 3dc003e0     	ldr	q0, [sp]
    3020: 3d800260     	str	q0, [x19]
    3024: f9400be8     	ldr	x8, [sp, #16]
    3028: f9000a68     	str	x8, [x19, #16]
    302c: a9467bfd     	ldp	x29, x30, [sp, #96]
    3030: a9454ff4     	ldp	x20, x19, [sp, #80]
    3034: a94457f6     	ldp	x22, x21, [sp, #64]
    3038: a9435ff8     	ldp	x24, x23, [sp, #48]
    303c: 9101c3ff     	add	sp, sp, #112
    3040: d65f03c0     	ret
    3044: d2800015     	mov	x21, #0
    3048: aa1503e0     	mov	x0, x21
    304c: aa1403e1     	mov	x1, x20
    3050: 94000000     	bl	0x3050 <__ZN98_$LT$alloc..vec..Vec$LT$T$GT$$u20$as$u20$alloc..vec..spec_from_iter..SpecFromIter$LT$T$C$I$GT$$GT$9from_iter17hd74520ef9cd770b1E+0xc8>
    3054: aa0003f3     	mov	x19, x0
    3058: 910003e0     	mov	x0, sp
    305c: 94000000     	bl	0x305c <__ZN98_$LT$alloc..vec..Vec$LT$T$GT$$u20$as$u20$alloc..vec..spec_from_iter..SpecFromIter$LT$T$C$I$GT$$GT$9from_iter17hd74520ef9cd770b1E+0xd4>
    3060: aa1303e0     	mov	x0, x19
    3064: 94000000     	bl	0x3064 <__ZN98_$LT$alloc..vec..Vec$LT$T$GT$$u20$as$u20$alloc..vec..spec_from_iter..SpecFromIter$LT$T$C$I$GT$$GT$9from_iter17hd74520ef9cd770b1E+0xdc>

0000000000003068 <__ZN98_$LT$alloc..vec..Vec$LT$T$GT$$u20$as$u20$alloc..vec..spec_from_iter..SpecFromIter$LT$T$C$I$GT$$GT$9from_iter17he4fbdf6fc506ac83E>:
    3068: d10243ff     	sub	sp, sp, #144
    306c: a9055ff8     	stp	x24, x23, [sp, #80]
    3070: a90657f6     	stp	x22, x21, [sp, #96]
    3074: a9074ff4     	stp	x20, x19, [sp, #112]
    3078: a9087bfd     	stp	x29, x30, [sp, #128]
    307c: 910203fd     	add	x29, sp, #128
    3080: aa0003f4     	mov	x20, x0
    3084: aa0803f3     	mov	x19, x8
    3088: a9405c16     	ldp	x22, x23, [x0]
    308c: eb1602f8     	subs	x24, x23, x22
    3090: 54000180     	b.eq	0x30c0 <__ZN98_$LT$alloc..vec..Vec$LT$T$GT$$u20$as$u20$alloc..vec..spec_from_iter..SpecFromIter$LT$T$C$I$GT$$GT$9from_iter17he4fbdf6fc506ac83E+0x58>
    3094: d341ff15     	lsr	x21, x24, #1
    3098: 90000008     	adrp	x8, 0x3000 <__ZN98_$LT$alloc..vec..Vec$LT$T$GT$$u20$as$u20$alloc..vec..spec_from_iter..SpecFromIter$LT$T$C$I$GT$$GT$9from_iter17he4fbdf6fc506ac83E+0x30>
    309c: f9400108     	ldr	x8, [x8]
    30a0: 3940011f     	ldrb	wzr, [x8]
    30a4: aa1503e0     	mov	x0, x21
    30a8: 52800101     	mov	w1, #8
    30ac: 94000000     	bl	0x30ac <__ZN98_$LT$alloc..vec..Vec$LT$T$GT$$u20$as$u20$alloc..vec..spec_from_iter..SpecFromIter$LT$T$C$I$GT$$GT$9from_iter17he4fbdf6fc506ac83E+0x44>
    30b0: b4000340     	cbz	x0, 0x3118 <__ZN98_$LT$alloc..vec..Vec$LT$T$GT$$u20$as$u20$alloc..vec..spec_from_iter..SpecFromIter$LT$T$C$I$GT$$GT$9from_iter17he4fbdf6fc506ac83E+0xb0>
    30b4: d345ff08     	lsr	x8, x24, #5
    30b8: f90007e8     	str	x8, [sp, #8]
    30bc: 14000003     	b	0x30c8 <__ZN98_$LT$alloc..vec..Vec$LT$T$GT$$u20$as$u20$alloc..vec..spec_from_iter..SpecFromIter$LT$T$C$I$GT$$GT$9from_iter17he4fbdf6fc506ac83E+0x60>
    30c0: 52800100     	mov	w0, #8
    30c4: f90007ff     	str	xzr, [sp, #8]
    30c8: a9017fe0     	stp	x0, xzr, [sp, #16]
    30cc: 910023e8     	add	x8, sp, #8
    30d0: 91004108     	add	x8, x8, #16
    30d4: f9400a89     	ldr	x9, [x20, #16]
    30d8: a9025ff6     	stp	x22, x23, [sp, #32]
    30dc: a90323e9     	stp	x9, x8, [sp, #48]
    30e0: a90403ff     	stp	xzr, x0, [sp, #64]
    30e4: 910083e0     	add	x0, sp, #32
    30e8: 9100e3e1     	add	x1, sp, #56
    30ec: 94000000     	bl	0x30ec <__ZN98_$LT$alloc..vec..Vec$LT$T$GT$$u20$as$u20$alloc..vec..spec_from_iter..SpecFromIter$LT$T$C$I$GT$$GT$9from_iter17he4fbdf6fc506ac83E+0x84>
    30f0: 3cc083e0     	ldur	q0, [sp, #8]
    30f4: 3d800260     	str	q0, [x19]
    30f8: f9400fe8     	ldr	x8, [sp, #24]
    30fc: f9000a68     	str	x8, [x19, #16]
    3100: a9487bfd     	ldp	x29, x30, [sp, #128]
    3104: a9474ff4     	ldp	x20, x19, [sp, #112]
    3108: a94657f6     	ldp	x22, x21, [sp, #96]
    310c: a9455ff8     	ldp	x24, x23, [sp, #80]
    3110: 910243ff     	add	sp, sp, #144
    3114: d65f03c0     	ret
    3118: 52800100     	mov	w0, #8
    311c: aa1503e1     	mov	x1, x21
    3120: 94000000     	bl	0x3120 <__ZN98_$LT$alloc..vec..Vec$LT$T$GT$$u20$as$u20$alloc..vec..spec_from_iter..SpecFromIter$LT$T$C$I$GT$$GT$9from_iter17he4fbdf6fc506ac83E+0xb8>
    3124: aa0003f3     	mov	x19, x0
    3128: f94007e8     	ldr	x8, [sp, #8]
    312c: b40000a8     	cbz	x8, 0x3140 <__ZN98_$LT$alloc..vec..Vec$LT$T$GT$$u20$as$u20$alloc..vec..spec_from_iter..SpecFromIter$LT$T$C$I$GT$$GT$9from_iter17he4fbdf6fc506ac83E+0xd8>
    3130: f9400be0     	ldr	x0, [sp, #16]
    3134: d37ced01     	lsl	x1, x8, #4
    3138: 52800102     	mov	w2, #8
    313c: 94000000     	bl	0x313c <__ZN98_$LT$alloc..vec..Vec$LT$T$GT$$u20$as$u20$alloc..vec..spec_from_iter..SpecFromIter$LT$T$C$I$GT$$GT$9from_iter17he4fbdf6fc506ac83E+0xd4>
    3140: aa1303e0     	mov	x0, x19
    3144: 94000000     	bl	0x3144 <__ZN98_$LT$alloc..vec..Vec$LT$T$GT$$u20$as$u20$alloc..vec..spec_from_iter..SpecFromIter$LT$T$C$I$GT$$GT$9from_iter17he4fbdf6fc506ac83E+0xdc>

0000000000003148 <__ZN98_$LT$alloc..vec..Vec$LT$T$GT$$u20$as$u20$alloc..vec..spec_from_iter..SpecFromIter$LT$T$C$I$GT$$GT$9from_iter17he513345aafe75906E>:
    3148: d10243ff     	sub	sp, sp, #144
    314c: a9055ff8     	stp	x24, x23, [sp, #80]
    3150: a90657f6     	stp	x22, x21, [sp, #96]
    3154: a9074ff4     	stp	x20, x19, [sp, #112]
    3158: a9087bfd     	stp	x29, x30, [sp, #128]
    315c: 910203fd     	add	x29, sp, #128
    3160: aa0003f4     	mov	x20, x0
    3164: aa0803f3     	mov	x19, x8
    3168: a9406017     	ldp	x23, x24, [x0]
    316c: eb170315     	subs	x21, x24, x23
    3170: 540001c0     	b.eq	0x31a8 <__ZN98_$LT$alloc..vec..Vec$LT$T$GT$$u20$as$u20$alloc..vec..spec_from_iter..SpecFromIter$LT$T$C$I$GT$$GT$9from_iter17he513345aafe75906E+0x60>
    3174: b27be7e8     	mov	x8, #9223372036854775776
    3178: eb0802bf     	cmp	x21, x8
    317c: 54000468     	b.hi	0x3208 <__ZN98_$LT$alloc..vec..Vec$LT$T$GT$$u20$as$u20$alloc..vec..spec_from_iter..SpecFromIter$LT$T$C$I$GT$$GT$9from_iter17he513345aafe75906E+0xc0>
    3180: 90000008     	adrp	x8, 0x3000 <__ZN98_$LT$alloc..vec..Vec$LT$T$GT$$u20$as$u20$alloc..vec..spec_from_iter..SpecFromIter$LT$T$C$I$GT$$GT$9from_iter17he513345aafe75906E+0x38>
    3184: f9400108     	ldr	x8, [x8]
    3188: 3940011f     	ldrb	wzr, [x8]
    318c: 52800116     	mov	w22, #8
    3190: aa1503e0     	mov	x0, x21
    3194: 52800101     	mov	w1, #8
    3198: 94000000     	bl	0x3198 <__ZN98_$LT$alloc..vec..Vec$LT$T$GT$$u20$as$u20$alloc..vec..spec_from_iter..SpecFromIter$LT$T$C$I$GT$$GT$9from_iter17he513345aafe75906E+0x50>
    319c: b4000380     	cbz	x0, 0x320c <__ZN98_$LT$alloc..vec..Vec$LT$T$GT$$u20$as$u20$alloc..vec..spec_from_iter..SpecFromIter$LT$T$C$I$GT$$GT$9from_iter17he513345aafe75906E+0xc4>
    31a0: d345fea8     	lsr	x8, x21, #5
    31a4: 14000003     	b	0x31b0 <__ZN98_$LT$alloc..vec..Vec$LT$T$GT$$u20$as$u20$alloc..vec..spec_from_iter..SpecFromIter$LT$T$C$I$GT$$GT$9from_iter17he513345aafe75906E+0x68>
    31a8: d2800008     	mov	x8, #0
    31ac: 52800100     	mov	w0, #8
    31b0: a90003e8     	stp	x8, x0, [sp]
    31b4: 910003e8     	mov	x8, sp
    31b8: 91004108     	add	x8, x8, #16
    31bc: a9015fff     	stp	xzr, x23, [sp, #16]
    31c0: f90013f8     	str	x24, [sp, #32]
    31c4: 3dc00680     	ldr	q0, [x20, #16]
    31c8: 3c8283e0     	stur	q0, [sp, #40]
    31cc: a903ffe8     	stp	x8, xzr, [sp, #56]
    31d0: f90027e0     	str	x0, [sp, #72]
    31d4: 910063e0     	add	x0, sp, #24
    31d8: 9100e3e1     	add	x1, sp, #56
    31dc: 94000000     	bl	0x31dc <__ZN98_$LT$alloc..vec..Vec$LT$T$GT$$u20$as$u20$alloc..vec..spec_from_iter..SpecFromIter$LT$T$C$I$GT$$GT$9from_iter17he513345aafe75906E+0x94>
    31e0: 3dc003e0     	ldr	q0, [sp]
    31e4: 3d800260     	str	q0, [x19]
    31e8: f9400be8     	ldr	x8, [sp, #16]
    31ec: f9000a68     	str	x8, [x19, #16]
    31f0: a9487bfd     	ldp	x29, x30, [sp, #128]
    31f4: a9474ff4     	ldp	x20, x19, [sp, #112]
    31f8: a94657f6     	ldp	x22, x21, [sp, #96]
    31fc: a9455ff8     	ldp	x24, x23, [sp, #80]
    3200: 910243ff     	add	sp, sp, #144
    3204: d65f03c0     	ret
    3208: d2800016     	mov	x22, #0
    320c: aa1603e0     	mov	x0, x22
    3210: aa1503e1     	mov	x1, x21
    3214: 94000000     	bl	0x3214 <__ZN98_$LT$alloc..vec..Vec$LT$T$GT$$u20$as$u20$alloc..vec..spec_from_iter..SpecFromIter$LT$T$C$I$GT$$GT$9from_iter17he513345aafe75906E+0xcc>
    3218: aa0003f3     	mov	x19, x0
    321c: 910003e0     	mov	x0, sp
    3220: 94000000     	bl	0x3220 <__ZN98_$LT$alloc..vec..Vec$LT$T$GT$$u20$as$u20$alloc..vec..spec_from_iter..SpecFromIter$LT$T$C$I$GT$$GT$9from_iter17he513345aafe75906E+0xd8>
    3224: aa1303e0     	mov	x0, x19
    3228: 94000000     	bl	0x3228 <__ZN98_$LT$alloc..vec..Vec$LT$T$GT$$u20$as$u20$alloc..vec..spec_from_iter..SpecFromIter$LT$T$C$I$GT$$GT$9from_iter17he513345aafe75906E+0xe0>

000000000000322c <__ZN98_$LT$alloc..vec..Vec$LT$T$GT$$u20$as$u20$alloc..vec..spec_from_iter..SpecFromIter$LT$T$C$I$GT$$GT$9from_iter17he5eaec642da54b8aE>:
    322c: 6db923e9     	stp	d9, d8, [sp, #-112]!
    3230: a9016ffc     	stp	x28, x27, [sp, #16]
    3234: a90267fa     	stp	x26, x25, [sp, #32]
    3238: a9035ff8     	stp	x24, x23, [sp, #48]
    323c: a90457f6     	stp	x22, x21, [sp, #64]
    3240: a9054ff4     	stp	x20, x19, [sp, #80]
    3244: a9067bfd     	stp	x29, x30, [sp, #96]
    3248: 910183fd     	add	x29, sp, #96
    324c: aa0803f3     	mov	x19, x8
    3250: 69442408     	ldpsw	x8, x9, [x0, #32]
    3254: 6b080139     	subs	w25, w9, w8
    3258: 5400044d     	b.le	0x32e0 <__ZN98_$LT$alloc..vec..Vec$LT$T$GT$$u20$as$u20$alloc..vec..spec_from_iter..SpecFromIter$LT$T$C$I$GT$$GT$9from_iter17he5eaec642da54b8aE+0xb4>
    325c: cb080138     	sub	x24, x9, x8
    3260: d37ffb14     	lsl	x20, x24, #1
    3264: d37eff08     	lsr	x8, x24, #62
    3268: b5000568     	cbnz	x8, 0x3314 <__ZN98_$LT$alloc..vec..Vec$LT$T$GT$$u20$as$u20$alloc..vec..spec_from_iter..SpecFromIter$LT$T$C$I$GT$$GT$9from_iter17he5eaec642da54b8aE+0xe8>
    326c: aa0003f6     	mov	x22, x0
    3270: 90000008     	adrp	x8, 0x3000 <__ZN98_$LT$alloc..vec..Vec$LT$T$GT$$u20$as$u20$alloc..vec..spec_from_iter..SpecFromIter$LT$T$C$I$GT$$GT$9from_iter17he5eaec642da54b8aE+0x44>
    3274: f9400108     	ldr	x8, [x8]
    3278: 3940011f     	ldrb	wzr, [x8]
    327c: 52800057     	mov	w23, #2
    3280: aa1403e0     	mov	x0, x20
    3284: 52800041     	mov	w1, #2
    3288: 94000000     	bl	0x3288 <__ZN98_$LT$alloc..vec..Vec$LT$T$GT$$u20$as$u20$alloc..vec..spec_from_iter..SpecFromIter$LT$T$C$I$GT$$GT$9from_iter17he5eaec642da54b8aE+0x5c>
    328c: b4000460     	cbz	x0, 0x3318 <__ZN98_$LT$alloc..vec..Vec$LT$T$GT$$u20$as$u20$alloc..vec..spec_from_iter..SpecFromIter$LT$T$C$I$GT$$GT$9from_iter17he5eaec642da54b8aE+0xec>
    3290: aa0003f5     	mov	x21, x0
    3294: d280001a     	mov	x26, #0
    3298: a94072db     	ldp	x27, x28, [x22]
    329c: a9415ad7     	ldp	x23, x22, [x22, #16]
    32a0: d2953f88     	mov	x8, #43516
    32a4: f2ba5e28     	movk	x8, #54001, lsl #16
    32a8: f2cc49a8     	movk	x8, #25165, lsl #32
    32ac: f2f7ea08     	movk	x8, #48976, lsl #48
    32b0: 9e670108     	fmov	d8, x8
    32b4: fd400360     	ldr	d0, [x27]
    32b8: fd400381     	ldr	d1, [x28]
    32bc: 1e682822     	fadd	d2, d1, d8
    32c0: aa1703e0     	mov	x0, x23
    32c4: aa1603e1     	mov	x1, x22
    32c8: 94000000     	bl	0x32c8 <__ZN98_$LT$alloc..vec..Vec$LT$T$GT$$u20$as$u20$alloc..vec..spec_from_iter..SpecFromIter$LT$T$C$I$GT$$GT$9from_iter17he5eaec642da54b8aE+0x9c>
    32cc: 783a7aa0     	strh	w0, [x21, x26, lsl #1]
    32d0: 9100075a     	add	x26, x26, #1
    32d4: 6b1a033f     	cmp	w25, w26
    32d8: 54fffee1     	b.ne	0x32b4 <__ZN98_$LT$alloc..vec..Vec$LT$T$GT$$u20$as$u20$alloc..vec..spec_from_iter..SpecFromIter$LT$T$C$I$GT$$GT$9from_iter17he5eaec642da54b8aE+0x88>
    32dc: 14000004     	b	0x32ec <__ZN98_$LT$alloc..vec..Vec$LT$T$GT$$u20$as$u20$alloc..vec..spec_from_iter..SpecFromIter$LT$T$C$I$GT$$GT$9from_iter17he5eaec642da54b8aE+0xc0>
    32e0: d2800018     	mov	x24, #0
    32e4: d280001a     	mov	x26, #0
    32e8: 52800055     	mov	w21, #2
    32ec: a9005678     	stp	x24, x21, [x19]
    32f0: f9000a7a     	str	x26, [x19, #16]
    32f4: a9467bfd     	ldp	x29, x30, [sp, #96]
    32f8: a9454ff4     	ldp	x20, x19, [sp, #80]
    32fc: a94457f6     	ldp	x22, x21, [sp, #64]
    3300: a9435ff8     	ldp	x24, x23, [sp, #48]
    3304: a94267fa     	ldp	x26, x25, [sp, #32]
    3308: a9416ffc     	ldp	x28, x27, [sp, #16]
    330c: 6cc723e9     	ldp	d9, d8, [sp], #112
    3310: d65f03c0     	ret
    3314: d2800017     	mov	x23, #0
    3318: aa1703e0     	mov	x0, x23
    331c: aa1403e1     	mov	x1, x20
    3320: 94000000     	bl	0x3320 <__ZN98_$LT$alloc..vec..Vec$LT$T$GT$$u20$as$u20$alloc..vec..spec_from_iter..SpecFromIter$LT$T$C$I$GT$$GT$9from_iter17he5eaec642da54b8aE+0xf4>
    3324: aa0003f3     	mov	x19, x0
    3328: b40000b8     	cbz	x24, 0x333c <__ZN98_$LT$alloc..vec..Vec$LT$T$GT$$u20$as$u20$alloc..vec..spec_from_iter..SpecFromIter$LT$T$C$I$GT$$GT$9from_iter17he5eaec642da54b8aE+0x110>
    332c: aa1503e0     	mov	x0, x21
    3330: aa1403e1     	mov	x1, x20
    3334: 52800042     	mov	w2, #2
    3338: 94000000     	bl	0x3338 <__ZN98_$LT$alloc..vec..Vec$LT$T$GT$$u20$as$u20$alloc..vec..spec_from_iter..SpecFromIter$LT$T$C$I$GT$$GT$9from_iter17he5eaec642da54b8aE+0x10c>
    333c: aa1303e0     	mov	x0, x19
    3340: 94000000     	bl	0x3340 <__ZN98_$LT$alloc..vec..Vec$LT$T$GT$$u20$as$u20$alloc..vec..spec_from_iter..SpecFromIter$LT$T$C$I$GT$$GT$9from_iter17he5eaec642da54b8aE+0x114>

0000000000003344 <__ZN98_$LT$alloc..vec..Vec$LT$T$GT$$u20$as$u20$alloc..vec..spec_from_iter..SpecFromIter$LT$T$C$I$GT$$GT$9from_iter17hec2b20c30e2c5d45E>:
    3344: a9bd57f6     	stp	x22, x21, [sp, #-48]!
    3348: a9014ff4     	stp	x20, x19, [sp, #16]
    334c: a9027bfd     	stp	x29, x30, [sp, #32]
    3350: 910083fd     	add	x29, sp, #32
    3354: aa0803f3     	mov	x19, x8
    3358: eb000035     	subs	x21, x1, x0
    335c: 54000240     	b.eq	0x33a4 <__ZN98_$LT$alloc..vec..Vec$LT$T$GT$$u20$as$u20$alloc..vec..spec_from_iter..SpecFromIter$LT$T$C$I$GT$$GT$9from_iter17hec2b20c30e2c5d45E+0x60>
    3360: b27ff7e8     	mov	x8, #9223372036854775806
    3364: eb0802bf     	cmp	x21, x8
    3368: 54000488     	b.hi	0x33f8 <__ZN98_$LT$alloc..vec..Vec$LT$T$GT$$u20$as$u20$alloc..vec..spec_from_iter..SpecFromIter$LT$T$C$I$GT$$GT$9from_iter17hec2b20c30e2c5d45E+0xb4>
    336c: aa0003f4     	mov	x20, x0
    3370: 90000008     	adrp	x8, 0x3000 <__ZN98_$LT$alloc..vec..Vec$LT$T$GT$$u20$as$u20$alloc..vec..spec_from_iter..SpecFromIter$LT$T$C$I$GT$$GT$9from_iter17hec2b20c30e2c5d45E+0x2c>
    3374: f9400108     	ldr	x8, [x8]
    3378: 3940011f     	ldrb	wzr, [x8]
    337c: 52800056     	mov	w22, #2
    3380: aa1503e0     	mov	x0, x21
    3384: 52800041     	mov	w1, #2
    3388: 94000000     	bl	0x3388 <__ZN98_$LT$alloc..vec..Vec$LT$T$GT$$u20$as$u20$alloc..vec..spec_from_iter..SpecFromIter$LT$T$C$I$GT$$GT$9from_iter17hec2b20c30e2c5d45E+0x44>
    338c: b4000380     	cbz	x0, 0x33fc <__ZN98_$LT$alloc..vec..Vec$LT$T$GT$$u20$as$u20$alloc..vec..spec_from_iter..SpecFromIter$LT$T$C$I$GT$$GT$9from_iter17hec2b20c30e2c5d45E+0xb8>
    3390: d341fea8     	lsr	x8, x21, #1
    3394: f10102bf     	cmp	x21, #64
    3398: 540000c2     	b.hs	0x33b0 <__ZN98_$LT$alloc..vec..Vec$LT$T$GT$$u20$as$u20$alloc..vec..spec_from_iter..SpecFromIter$LT$T$C$I$GT$$GT$9from_iter17hec2b20c30e2c5d45E+0x6c>
    339c: d2800009     	mov	x9, #0
    33a0: 1400001a     	b	0x3408 <__ZN98_$LT$alloc..vec..Vec$LT$T$GT$$u20$as$u20$alloc..vec..spec_from_iter..SpecFromIter$LT$T$C$I$GT$$GT$9from_iter17hec2b20c30e2c5d45E+0xc4>
    33a4: d2800008     	mov	x8, #0
    33a8: 52800040     	mov	w0, #2
    33ac: 1400001e     	b	0x3424 <__ZN98_$LT$alloc..vec..Vec$LT$T$GT$$u20$as$u20$alloc..vec..spec_from_iter..SpecFromIter$LT$T$C$I$GT$$GT$9from_iter17hec2b20c30e2c5d45E+0xe0>
    33b0: d280000a     	mov	x10, #0
    33b4: 927be109     	and	x9, x8, #0x3fffffffffffffe0
    33b8: 9100828b     	add	x11, x20, #32
    33bc: aa0903ec     	mov	x12, x9
    33c0: 8b0a016d     	add	x13, x11, x10
    33c4: ad7f05a0     	ldp	q0, q1, [x13, #-32]
    33c8: ad400da2     	ldp	q2, q3, [x13]
    33cc: 6e60b800     	neg.8h	v0, v0
    33d0: 6e60b821     	neg.8h	v1, v1
    33d4: 6e60b842     	neg.8h	v2, v2
    33d8: 6e60b863     	neg.8h	v3, v3
    33dc: 8b0a000d     	add	x13, x0, x10
    33e0: ad0005a0     	stp	q0, q1, [x13]
    33e4: ad010da2     	stp	q2, q3, [x13, #32]
    33e8: 9101014a     	add	x10, x10, #64
    33ec: f100818c     	subs	x12, x12, #32
    33f0: 54fffe81     	b.ne	0x33c0 <__ZN98_$LT$alloc..vec..Vec$LT$T$GT$$u20$as$u20$alloc..vec..spec_from_iter..SpecFromIter$LT$T$C$I$GT$$GT$9from_iter17hec2b20c30e2c5d45E+0x7c>
    33f4: 1400000a     	b	0x341c <__ZN98_$LT$alloc..vec..Vec$LT$T$GT$$u20$as$u20$alloc..vec..spec_from_iter..SpecFromIter$LT$T$C$I$GT$$GT$9from_iter17hec2b20c30e2c5d45E+0xd8>
    33f8: d2800016     	mov	x22, #0
    33fc: aa1603e0     	mov	x0, x22
    3400: aa1503e1     	mov	x1, x21
    3404: 94000000     	bl	0x3404 <__ZN98_$LT$alloc..vec..Vec$LT$T$GT$$u20$as$u20$alloc..vec..spec_from_iter..SpecFromIter$LT$T$C$I$GT$$GT$9from_iter17hec2b20c30e2c5d45E+0xc0>
    3408: d37ff92a     	lsl	x10, x9, #1
    340c: 786a6a8b     	ldrh	w11, [x20, x10]
    3410: 4b0b03eb     	neg	w11, w11
    3414: 782a680b     	strh	w11, [x0, x10]
    3418: 91000529     	add	x9, x9, #1
    341c: eb09011f     	cmp	x8, x9
    3420: 54ffff41     	b.ne	0x3408 <__ZN98_$LT$alloc..vec..Vec$LT$T$GT$$u20$as$u20$alloc..vec..spec_from_iter..SpecFromIter$LT$T$C$I$GT$$GT$9from_iter17hec2b20c30e2c5d45E+0xc4>
    3424: a9000268     	stp	x8, x0, [x19]
    3428: f9000a68     	str	x8, [x19, #16]
    342c: a9427bfd     	ldp	x29, x30, [sp, #32]
    3430: a9414ff4     	ldp	x20, x19, [sp, #16]
    3434: a8c357f6     	ldp	x22, x21, [sp], #48
    3438: d65f03c0     	ret

000000000000343c <__ZN98_$LT$alloc..vec..Vec$LT$T$GT$$u20$as$u20$alloc..vec..spec_from_iter..SpecFromIter$LT$T$C$I$GT$$GT$9from_iter17hecb584159a85245bE>:
    343c: a9bd57f6     	stp	x22, x21, [sp, #-48]!
    3440: a9014ff4     	stp	x20, x19, [sp, #16]
    3444: a9027bfd     	stp	x29, x30, [sp, #32]
    3448: 910083fd     	add	x29, sp, #32
    344c: aa0803f3     	mov	x19, x8
    3450: eb000035     	subs	x21, x1, x0
    3454: 54000240     	b.eq	0x349c <__ZN98_$LT$alloc..vec..Vec$LT$T$GT$$u20$as$u20$alloc..vec..spec_from_iter..SpecFromIter$LT$T$C$I$GT$$GT$9from_iter17hecb584159a85245bE+0x60>
    3458: b27cebe8     	mov	x8, #9223372036854775792
    345c: eb0802bf     	cmp	x21, x8
    3460: 54000688     	b.hi	0x3530 <__ZN98_$LT$alloc..vec..Vec$LT$T$GT$$u20$as$u20$alloc..vec..spec_from_iter..SpecFromIter$LT$T$C$I$GT$$GT$9from_iter17hecb584159a85245bE+0xf4>
    3464: aa0003f4     	mov	x20, x0
    3468: 90000008     	adrp	x8, 0x3000 <__ZN98_$LT$alloc..vec..Vec$LT$T$GT$$u20$as$u20$alloc..vec..spec_from_iter..SpecFromIter$LT$T$C$I$GT$$GT$9from_iter17hecb584159a85245bE+0x2c>
    346c: f9400108     	ldr	x8, [x8]
    3470: 3940011f     	ldrb	wzr, [x8]
    3474: 52800116     	mov	w22, #8
    3478: aa1503e0     	mov	x0, x21
    347c: 52800101     	mov	w1, #8
    3480: 94000000     	bl	0x3480 <__ZN98_$LT$alloc..vec..Vec$LT$T$GT$$u20$as$u20$alloc..vec..spec_from_iter..SpecFromIter$LT$T$C$I$GT$$GT$9from_iter17hecb584159a85245bE+0x44>
    3484: b4000580     	cbz	x0, 0x3534 <__ZN98_$LT$alloc..vec..Vec$LT$T$GT$$u20$as$u20$alloc..vec..spec_from_iter..SpecFromIter$LT$T$C$I$GT$$GT$9from_iter17hecb584159a85245bE+0xf8>
    3488: d344fea8     	lsr	x8, x21, #4
    348c: f10202bf     	cmp	x21, #128
    3490: 540000c2     	b.hs	0x34a8 <__ZN98_$LT$alloc..vec..Vec$LT$T$GT$$u20$as$u20$alloc..vec..spec_from_iter..SpecFromIter$LT$T$C$I$GT$$GT$9from_iter17hecb584159a85245bE+0x6c>
    3494: d2800009     	mov	x9, #0
    3498: 1400002a     	b	0x3540 <__ZN98_$LT$alloc..vec..Vec$LT$T$GT$$u20$as$u20$alloc..vec..spec_from_iter..SpecFromIter$LT$T$C$I$GT$$GT$9from_iter17hecb584159a85245bE+0x104>
    349c: d2800008     	mov	x8, #0
    34a0: 52800100     	mov	w0, #8
    34a4: 14000033     	b	0x3570 <__ZN98_$LT$alloc..vec..Vec$LT$T$GT$$u20$as$u20$alloc..vec..spec_from_iter..SpecFromIter$LT$T$C$I$GT$$GT$9from_iter17hecb584159a85245bE+0x134>
    34a8: d2800009     	mov	x9, #0
    34ac: d100050a     	sub	x10, x8, #1
    34b0: d37ced4b     	lsl	x11, x10, #4
    34b4: 8b0b000c     	add	x12, x0, x11
    34b8: eb00019f     	cmp	x12, x0
    34bc: 54000423     	b.lo	0x3540 <__ZN98_$LT$alloc..vec..Vec$LT$T$GT$$u20$as$u20$alloc..vec..spec_from_iter..SpecFromIter$LT$T$C$I$GT$$GT$9from_iter17hecb584159a85245bE+0x104>
    34c0: 9100200c     	add	x12, x0, #8
    34c4: 8b0b018b     	add	x11, x12, x11
    34c8: eb0c017f     	cmp	x11, x12
    34cc: 540003a3     	b.lo	0x3540 <__ZN98_$LT$alloc..vec..Vec$LT$T$GT$$u20$as$u20$alloc..vec..spec_from_iter..SpecFromIter$LT$T$C$I$GT$$GT$9from_iter17hecb584159a85245bE+0x104>
    34d0: d37cfd4a     	lsr	x10, x10, #60
    34d4: b500036a     	cbnz	x10, 0x3540 <__ZN98_$LT$alloc..vec..Vec$LT$T$GT$$u20$as$u20$alloc..vec..spec_from_iter..SpecFromIter$LT$T$C$I$GT$$GT$9from_iter17hecb584159a85245bE+0x104>
    34d8: 927ee109     	and	x9, x8, #0x7fffffffffffffc
    34dc: aa0903eb     	mov	x11, x9
    34e0: 8b0a028c     	add	x12, x20, x10
    34e4: 4cdf8d80     	ld2.2d	{ v0, v1 }, [x12], #32
    34e8: 4c408d82     	ld2.2d	{ v2, v3 }, [x12]
    34ec: 6e60dc04     	fmul.2d	v4, v0, v0
    34f0: 6e62dc45     	fmul.2d	v5, v2, v2
    34f4: 6e61dc26     	fmul.2d	v6, v1, v1
    34f8: 6e63dc67     	fmul.2d	v7, v3, v3
    34fc: 4e66d490     	fadd.2d	v16, v4, v6
    3500: 6e61dc00     	fmul.2d	v0, v0, v1
    3504: 4ee0d411     	fsub.2d	v17, v0, v0
    3508: 4e67d4a0     	fadd.2d	v0, v5, v7
    350c: 6e63dc42     	fmul.2d	v2, v2, v3
    3510: 4ee2d441     	fsub.2d	v1, v2, v2
    3514: 8b0a000c     	add	x12, x0, x10
    3518: 4c9f8d90     	st2.2d	{ v16, v17 }, [x12], #32
    351c: 4c008d80     	st2.2d	{ v0, v1 }, [x12]
    3520: 9101014a     	add	x10, x10, #64
    3524: f100116b     	subs	x11, x11, #4
    3528: 54fffdc1     	b.ne	0x34e0 <__ZN98_$LT$alloc..vec..Vec$LT$T$GT$$u20$as$u20$alloc..vec..spec_from_iter..SpecFromIter$LT$T$C$I$GT$$GT$9from_iter17hecb584159a85245bE+0xa4>
    352c: 1400000f     	b	0x3568 <__ZN98_$LT$alloc..vec..Vec$LT$T$GT$$u20$as$u20$alloc..vec..spec_from_iter..SpecFromIter$LT$T$C$I$GT$$GT$9from_iter17hecb584159a85245bE+0x12c>
    3530: d2800016     	mov	x22, #0
    3534: aa1603e0     	mov	x0, x22
    3538: aa1503e1     	mov	x1, x21
    353c: 94000000     	bl	0x353c <__ZN98_$LT$alloc..vec..Vec$LT$T$GT$$u20$as$u20$alloc..vec..spec_from_iter..SpecFromIter$LT$T$C$I$GT$$GT$9from_iter17hecb584159a85245bE+0x100>
    3540: d37ced2a     	lsl	x10, x9, #4
    3544: 3cea6a80     	ldr	q0, [x20, x10]
    3548: 6e60dc01     	fmul.2d	v1, v0, v0
    354c: 4fc09000     	fmul.2d	v0, v0, v0[0]
    3550: 4e180421     	dup.2d	v1, v1[1]
    3554: 4e61d401     	fadd.2d	v1, v0, v1
    3558: 4ee0d400     	fsub.2d	v0, v0, v0
    355c: 6e184401     	mov.d	v1[1], v0[1]
    3560: 3caa6801     	str	q1, [x0, x10]
    3564: 91000529     	add	x9, x9, #1
    3568: eb09011f     	cmp	x8, x9
    356c: 54fffea1     	b.ne	0x3540 <__ZN98_$LT$alloc..vec..Vec$LT$T$GT$$u20$as$u20$alloc..vec..spec_from_iter..SpecFromIter$LT$T$C$I$GT$$GT$9from_iter17hecb584159a85245bE+0x104>
    3570: a9000268     	stp	x8, x0, [x19]
    3574: f9000a68     	str	x8, [x19, #16]
    3578: a9427bfd     	ldp	x29, x30, [sp, #32]
    357c: a9414ff4     	ldp	x20, x19, [sp, #16]
    3580: a8c357f6     	ldp	x22, x21, [sp], #48
    3584: d65f03c0     	ret

0000000000003588 <__ZN98_$LT$alloc..vec..Vec$LT$T$GT$$u20$as$u20$alloc..vec..spec_from_iter..SpecFromIter$LT$T$C$I$GT$$GT$9from_iter17heea365bf5eaffbabE>:
    3588: d10303ff     	sub	sp, sp, #192
    358c: a90767fa     	stp	x26, x25, [sp, #112]
    3590: a9085ff8     	stp	x24, x23, [sp, #128]
    3594: a90957f6     	stp	x22, x21, [sp, #144]
    3598: a90a4ff4     	stp	x20, x19, [sp, #160]
    359c: a90b7bfd     	stp	x29, x30, [sp, #176]
    35a0: 9102c3fd     	add	x29, sp, #176
    35a4: aa0003f4     	mov	x20, x0
    35a8: aa0803f3     	mov	x19, x8
    35ac: a9426017     	ldp	x23, x24, [x0, #32]
    35b0: eb170319     	subs	x25, x24, x23
    35b4: 54000061     	b.ne	0x35c0 <__ZN98_$LT$alloc..vec..Vec$LT$T$GT$$u20$as$u20$alloc..vec..spec_from_iter..SpecFromIter$LT$T$C$I$GT$$GT$9from_iter17heea365bf5eaffbabE+0x38>
    35b8: 52800100     	mov	w0, #8
    35bc: 1400000c     	b	0x35ec <__ZN98_$LT$alloc..vec..Vec$LT$T$GT$$u20$as$u20$alloc..vec..spec_from_iter..SpecFromIter$LT$T$C$I$GT$$GT$9from_iter17heea365bf5eaffbabE+0x64>
    35c0: d37beb35     	lsl	x21, x25, #5
    35c4: d37aff28     	lsr	x8, x25, #58
    35c8: b5000428     	cbnz	x8, 0x364c <__ZN98_$LT$alloc..vec..Vec$LT$T$GT$$u20$as$u20$alloc..vec..spec_from_iter..SpecFromIter$LT$T$C$I$GT$$GT$9from_iter17heea365bf5eaffbabE+0xc4>
    35cc: 90000008     	adrp	x8, 0x3000 <__ZN98_$LT$alloc..vec..Vec$LT$T$GT$$u20$as$u20$alloc..vec..spec_from_iter..SpecFromIter$LT$T$C$I$GT$$GT$9from_iter17heea365bf5eaffbabE+0x44>
    35d0: f9400108     	ldr	x8, [x8]
    35d4: 3940011f     	ldrb	wzr, [x8]
    35d8: 52800116     	mov	w22, #8
    35dc: aa1503e0     	mov	x0, x21
    35e0: 52800101     	mov	w1, #8
    35e4: 94000000     	bl	0x35e4 <__ZN98_$LT$alloc..vec..Vec$LT$T$GT$$u20$as$u20$alloc..vec..spec_from_iter..SpecFromIter$LT$T$C$I$GT$$GT$9from_iter17heea365bf5eaffbabE+0x5c>
    35e8: b4000340     	cbz	x0, 0x3650 <__ZN98_$LT$alloc..vec..Vec$LT$T$GT$$u20$as$u20$alloc..vec..spec_from_iter..SpecFromIter$LT$T$C$I$GT$$GT$9from_iter17heea365bf5eaffbabE+0xc8>
    35ec: a90083f9     	stp	x25, x0, [sp, #8]
    35f0: 910023e8     	add	x8, sp, #8
    35f4: 91004108     	add	x8, x8, #16
    35f8: f9000fff     	str	xzr, [sp, #24]
    35fc: f9401a89     	ldr	x9, [x20, #48]
    3600: ad400680     	ldp	q0, q1, [x20]
    3604: ad0107e0     	stp	q0, q1, [sp, #32]
    3608: a90463f7     	stp	x23, x24, [sp, #64]
    360c: a90523e9     	stp	x9, x8, [sp, #80]
    3610: a90603ff     	stp	xzr, x0, [sp, #96]
    3614: 910083e0     	add	x0, sp, #32
    3618: 910163e1     	add	x1, sp, #88
    361c: 94000000     	bl	0x361c <__ZN98_$LT$alloc..vec..Vec$LT$T$GT$$u20$as$u20$alloc..vec..spec_from_iter..SpecFromIter$LT$T$C$I$GT$$GT$9from_iter17heea365bf5eaffbabE+0x94>
    3620: 3cc083e0     	ldur	q0, [sp, #8]
    3624: 3d800260     	str	q0, [x19]
    3628: f9400fe8     	ldr	x8, [sp, #24]
    362c: f9000a68     	str	x8, [x19, #16]
    3630: a94b7bfd     	ldp	x29, x30, [sp, #176]
    3634: a94a4ff4     	ldp	x20, x19, [sp, #160]
    3638: a94957f6     	ldp	x22, x21, [sp, #144]
    363c: a9485ff8     	ldp	x24, x23, [sp, #128]
    3640: a94767fa     	ldp	x26, x25, [sp, #112]
    3644: 910303ff     	add	sp, sp, #192
    3648: d65f03c0     	ret
    364c: d2800016     	mov	x22, #0
    3650: aa1603e0     	mov	x0, x22
    3654: aa1503e1     	mov	x1, x21
    3658: 94000000     	bl	0x3658 <__ZN98_$LT$alloc..vec..Vec$LT$T$GT$$u20$as$u20$alloc..vec..spec_from_iter..SpecFromIter$LT$T$C$I$GT$$GT$9from_iter17heea365bf5eaffbabE+0xd0>
    365c: aa0003f3     	mov	x19, x0
    3660: 910023e0     	add	x0, sp, #8
    3664: 94000000     	bl	0x3664 <__ZN98_$LT$alloc..vec..Vec$LT$T$GT$$u20$as$u20$alloc..vec..spec_from_iter..SpecFromIter$LT$T$C$I$GT$$GT$9from_iter17heea365bf5eaffbabE+0xdc>
    3668: aa1303e0     	mov	x0, x19
    366c: 94000000     	bl	0x366c <__ZN98_$LT$alloc..vec..Vec$LT$T$GT$$u20$as$u20$alloc..vec..spec_from_iter..SpecFromIter$LT$T$C$I$GT$$GT$9from_iter17heea365bf5eaffbabE+0xe4>

0000000000003670 <__ZN98_$LT$alloc..vec..Vec$LT$T$GT$$u20$as$u20$alloc..vec..spec_from_iter..SpecFromIter$LT$T$C$I$GT$$GT$9from_iter17hf3e492734d00bea9E>:
    3670: a9bc5ff8     	stp	x24, x23, [sp, #-64]!
    3674: a90157f6     	stp	x22, x21, [sp, #16]
    3678: a9024ff4     	stp	x20, x19, [sp, #32]
    367c: a9037bfd     	stp	x29, x30, [sp, #48]
    3680: 9100c3fd     	add	x29, sp, #48
    3684: aa0803f3     	mov	x19, x8
    3688: eb000037     	subs	x23, x1, x0
    368c: 540003a0     	b.eq	0x3700 <__ZN98_$LT$alloc..vec..Vec$LT$T$GT$$u20$as$u20$alloc..vec..spec_from_iter..SpecFromIter$LT$T$C$I$GT$$GT$9from_iter17hf3e492734d00bea9E+0x90>
    3690: d37df2f5     	lsl	x21, x23, #3
    3694: b27febe8     	mov	x8, #1152921504606846974
    3698: eb0802ff     	cmp	x23, x8
    369c: 54000448     	b.hi	0x3724 <__ZN98_$LT$alloc..vec..Vec$LT$T$GT$$u20$as$u20$alloc..vec..spec_from_iter..SpecFromIter$LT$T$C$I$GT$$GT$9from_iter17hf3e492734d00bea9E+0xb4>
    36a0: aa0003f4     	mov	x20, x0
    36a4: 90000008     	adrp	x8, 0x3000 <__ZN98_$LT$alloc..vec..Vec$LT$T$GT$$u20$as$u20$alloc..vec..spec_from_iter..SpecFromIter$LT$T$C$I$GT$$GT$9from_iter17hf3e492734d00bea9E+0x34>
    36a8: f9400108     	ldr	x8, [x8]
    36ac: 3940011f     	ldrb	wzr, [x8]
    36b0: 52800116     	mov	w22, #8
    36b4: aa1503e0     	mov	x0, x21
    36b8: 52800101     	mov	w1, #8
    36bc: 94000000     	bl	0x36bc <__ZN98_$LT$alloc..vec..Vec$LT$T$GT$$u20$as$u20$alloc..vec..spec_from_iter..SpecFromIter$LT$T$C$I$GT$$GT$9from_iter17hf3e492734d00bea9E+0x4c>
    36c0: b4000340     	cbz	x0, 0x3728 <__ZN98_$LT$alloc..vec..Vec$LT$T$GT$$u20$as$u20$alloc..vec..spec_from_iter..SpecFromIter$LT$T$C$I$GT$$GT$9from_iter17hf3e492734d00bea9E+0xb8>
    36c4: d341fee8     	lsr	x8, x23, #1
    36c8: 91002009     	add	x9, x0, #8
    36cc: aa0803ea     	mov	x10, x8
    36d0: 78c0268b     	ldrsh	w11, [x20], #2
    36d4: 7100017f     	cmp	w11, #0
    36d8: 5a8b556c     	cneg	w12, w11, mi
    36dc: 53073d8d     	ubfx	w13, w12, #7, #9
    36e0: 110025ad     	add	w13, w13, #9
    36e4: 53087d6b     	lsr	w11, w11, #8
    36e8: 3300198b     	bfxil	w11, w12, #0, #7
    36ec: f81f812d     	stur	x13, [x9, #-8]
    36f0: 3801052b     	strb	w11, [x9], #16
    36f4: f100054a     	subs	x10, x10, #1
    36f8: 54fffec1     	b.ne	0x36d0 <__ZN98_$LT$alloc..vec..Vec$LT$T$GT$$u20$as$u20$alloc..vec..spec_from_iter..SpecFromIter$LT$T$C$I$GT$$GT$9from_iter17hf3e492734d00bea9E+0x60>
    36fc: 14000003     	b	0x3708 <__ZN98_$LT$alloc..vec..Vec$LT$T$GT$$u20$as$u20$alloc..vec..spec_from_iter..SpecFromIter$LT$T$C$I$GT$$GT$9from_iter17hf3e492734d00bea9E+0x98>
    3700: d2800008     	mov	x8, #0
    3704: 52800100     	mov	w0, #8
    3708: a9000268     	stp	x8, x0, [x19]
    370c: f9000a68     	str	x8, [x19, #16]
    3710: a9437bfd     	ldp	x29, x30, [sp, #48]
    3714: a9424ff4     	ldp	x20, x19, [sp, #32]
    3718: a94157f6     	ldp	x22, x21, [sp, #16]
    371c: a8c45ff8     	ldp	x24, x23, [sp], #64
    3720: d65f03c0     	ret
    3724: d2800016     	mov	x22, #0
    3728: aa1603e0     	mov	x0, x22
    372c: aa1503e1     	mov	x1, x21
    3730: 94000000     	bl	0x3730 <__ZN98_$LT$alloc..vec..Vec$LT$T$GT$$u20$as$u20$alloc..vec..spec_from_iter..SpecFromIter$LT$T$C$I$GT$$GT$9from_iter17hf3e492734d00bea9E+0xc0>

0000000000003734 <__ZN98_$LT$alloc..vec..Vec$LT$T$GT$$u20$as$u20$alloc..vec..spec_from_iter..SpecFromIter$LT$T$C$I$GT$$GT$9from_iter17hf83091edca4b92c2E>:
    3734: a9bd57f6     	stp	x22, x21, [sp, #-48]!
    3738: a9014ff4     	stp	x20, x19, [sp, #16]
    373c: a9027bfd     	stp	x29, x30, [sp, #32]
    3740: 910083fd     	add	x29, sp, #32
    3744: aa0803f3     	mov	x19, x8
    3748: eb000035     	subs	x21, x1, x0
    374c: 54000240     	b.eq	0x3794 <__ZN98_$LT$alloc..vec..Vec$LT$T$GT$$u20$as$u20$alloc..vec..spec_from_iter..SpecFromIter$LT$T$C$I$GT$$GT$9from_iter17hf83091edca4b92c2E+0x60>
    3750: b27defe8     	mov	x8, #9223372036854775800
    3754: eb0802bf     	cmp	x21, x8
    3758: 54000688     	b.hi	0x3828 <__ZN98_$LT$alloc..vec..Vec$LT$T$GT$$u20$as$u20$alloc..vec..spec_from_iter..SpecFromIter$LT$T$C$I$GT$$GT$9from_iter17hf83091edca4b92c2E+0xf4>
    375c: aa0003f4     	mov	x20, x0
    3760: 90000008     	adrp	x8, 0x3000 <__ZN98_$LT$alloc..vec..Vec$LT$T$GT$$u20$as$u20$alloc..vec..spec_from_iter..SpecFromIter$LT$T$C$I$GT$$GT$9from_iter17hf83091edca4b92c2E+0x2c>
    3764: f9400108     	ldr	x8, [x8]
    3768: 3940011f     	ldrb	wzr, [x8]
    376c: 52800116     	mov	w22, #8
    3770: aa1503e0     	mov	x0, x21
    3774: 52800101     	mov	w1, #8
    3778: 94000000     	bl	0x3778 <__ZN98_$LT$alloc..vec..Vec$LT$T$GT$$u20$as$u20$alloc..vec..spec_from_iter..SpecFromIter$LT$T$C$I$GT$$GT$9from_iter17hf83091edca4b92c2E+0x44>
    377c: b4000580     	cbz	x0, 0x382c <__ZN98_$LT$alloc..vec..Vec$LT$T$GT$$u20$as$u20$alloc..vec..spec_from_iter..SpecFromIter$LT$T$C$I$GT$$GT$9from_iter17hf83091edca4b92c2E+0xf8>
    3780: d343fea8     	lsr	x8, x21, #3
    3784: f10102bf     	cmp	x21, #64
    3788: 540000c2     	b.hs	0x37a0 <__ZN98_$LT$alloc..vec..Vec$LT$T$GT$$u20$as$u20$alloc..vec..spec_from_iter..SpecFromIter$LT$T$C$I$GT$$GT$9from_iter17hf83091edca4b92c2E+0x6c>
    378c: d2800009     	mov	x9, #0
    3790: 14000018     	b	0x37f0 <__ZN98_$LT$alloc..vec..Vec$LT$T$GT$$u20$as$u20$alloc..vec..spec_from_iter..SpecFromIter$LT$T$C$I$GT$$GT$9from_iter17hf83091edca4b92c2E+0xbc>
    3794: d2800008     	mov	x8, #0
    3798: 52800100     	mov	w0, #8
    379c: 1400001d     	b	0x3810 <__ZN98_$LT$alloc..vec..Vec$LT$T$GT$$u20$as$u20$alloc..vec..spec_from_iter..SpecFromIter$LT$T$C$I$GT$$GT$9from_iter17hf83091edca4b92c2E+0xdc>
    37a0: d280000a     	mov	x10, #0
    37a4: 927de109     	and	x9, x8, #0xffffffffffffff8
    37a8: 9100828b     	add	x11, x20, #32
    37ac: 6f03f600     	fmov.2d	v0, #1.00000000
    37b0: aa0903ec     	mov	x12, x9
    37b4: 8b0a016d     	add	x13, x11, x10
    37b8: ad7f09a1     	ldp	q1, q2, [x13, #-32]
    37bc: ad4011a3     	ldp	q3, q4, [x13]
    37c0: 6e61fc01     	fdiv.2d	v1, v0, v1
    37c4: 6e62fc02     	fdiv.2d	v2, v0, v2
    37c8: 6e63fc03     	fdiv.2d	v3, v0, v3
    37cc: 6e64fc04     	fdiv.2d	v4, v0, v4
    37d0: 8b0a000d     	add	x13, x0, x10
    37d4: ad0009a1     	stp	q1, q2, [x13]
    37d8: ad0111a3     	stp	q3, q4, [x13, #32]
    37dc: 9101014a     	add	x10, x10, #64
    37e0: f100218c     	subs	x12, x12, #8
    37e4: 54fffe81     	b.ne	0x37b4 <__ZN98_$LT$alloc..vec..Vec$LT$T$GT$$u20$as$u20$alloc..vec..spec_from_iter..SpecFromIter$LT$T$C$I$GT$$GT$9from_iter17hf83091edca4b92c2E+0x80>
    37e8: eb09011f     	cmp	x8, x9
    37ec: 54000120     	b.eq	0x3810 <__ZN98_$LT$alloc..vec..Vec$LT$T$GT$$u20$as$u20$alloc..vec..spec_from_iter..SpecFromIter$LT$T$C$I$GT$$GT$9from_iter17hf83091edca4b92c2E+0xdc>
    37f0: 1e6e1000     	fmov	d0, #1.00000000
    37f4: d37df12a     	lsl	x10, x9, #3
    37f8: fc6a6a81     	ldr	d1, [x20, x10]
    37fc: 1e611801     	fdiv	d1, d0, d1
    3800: fc2a6801     	str	d1, [x0, x10]
    3804: 91000529     	add	x9, x9, #1
    3808: eb09011f     	cmp	x8, x9
    380c: 54ffff41     	b.ne	0x37f4 <__ZN98_$LT$alloc..vec..Vec$LT$T$GT$$u20$as$u20$alloc..vec..spec_from_iter..SpecFromIter$LT$T$C$I$GT$$GT$9from_iter17hf83091edca4b92c2E+0xc0>
    3810: a9000268     	stp	x8, x0, [x19]
    3814: f9000a68     	str	x8, [x19, #16]
    3818: a9427bfd     	ldp	x29, x30, [sp, #32]
    381c: a9414ff4     	ldp	x20, x19, [sp, #16]
    3820: a8c357f6     	ldp	x22, x21, [sp], #48
    3824: d65f03c0     	ret
    3828: d2800016     	mov	x22, #0
    382c: aa1603e0     	mov	x0, x22
    3830: aa1503e1     	mov	x1, x21
    3834: 94000000     	bl	0x3834 <__ZN98_$LT$alloc..vec..Vec$LT$T$GT$$u20$as$u20$alloc..vec..spec_from_iter..SpecFromIter$LT$T$C$I$GT$$GT$9from_iter17hf83091edca4b92c2E+0x100>

target/release/libfalcon_rust.rlib(falcon_rust-e8844e7451c83e3e.falcon_rust.14659d6c29c50ba4-cgu.02.rcgu.o):	file format mach-o arm64

Disassembly of section __TEXT,__text:

0000000000000000 <ltmp0>:
       0: d10243ff     	sub	sp, sp, #144
       4: a90467fa     	stp	x26, x25, [sp, #64]
       8: a9055ff8     	stp	x24, x23, [sp, #80]
       c: a90657f6     	stp	x22, x21, [sp, #96]
      10: a9074ff4     	stp	x20, x19, [sp, #112]
      14: a9087bfd     	stp	x29, x30, [sp, #128]
      18: 910203fd     	add	x29, sp, #128
      1c: aa0203f5     	mov	x21, x2
      20: aa0103f3     	mov	x19, x1
      24: aa0003f4     	mov	x20, x0
      28: 39406028     	ldrb	w8, [x1, #24]
      2c: 7100051f     	cmp	w8, #1
      30: 54000121     	b.ne	0x54 <ltmp0+0x54>
      34: 5280003a     	mov	w26, #1
      38: 52800039     	mov	w25, #1
      3c: f9400a61     	ldr	x1, [x19, #16]
      40: a940e2b7     	ldp	x23, x24, [x21, #8]
      44: f100003f     	cmp	x1, #0
      48: fa401b04     	ccmp	x24, #0, #4, ne
      4c: 540002a0     	b.eq	0xa0 <ltmp0+0xa0>
      50: 1400002b     	b	0xfc <ltmp0+0xfc>
      54: 394062b9     	ldrb	w25, [x21, #24]
      58: 34000159     	cbz	w25, 0x80 <ltmp0+0x80>
      5c: 7100073f     	cmp	w25, #1
      60: 540003e1     	b.ne	0xdc <ltmp0+0xdc>
      64: 5280003a     	mov	w26, #1
      68: f9400a61     	ldr	x1, [x19, #16]
      6c: a940e2b7     	ldp	x23, x24, [x21, #8]
      70: f100003f     	cmp	x1, #0
      74: fa401b04     	ccmp	x24, #0, #4, ne
      78: 54000140     	b.eq	0xa0 <ltmp0+0xa0>
      7c: 14000020     	b	0xfc <ltmp0+0xfc>
      80: 34000308     	cbz	w8, 0xe0 <ltmp0+0xe0>
      84: 5280001a     	mov	w26, #0
      88: 52800019     	mov	w25, #0
      8c: f9400a61     	ldr	x1, [x19, #16]
      90: a940e2b7     	ldp	x23, x24, [x21, #8]
      94: f100003f     	cmp	x1, #0
      98: fa401b04     	ccmp	x24, #0, #4, ne
      9c: 54000301     	b.ne	0xfc <ltmp0+0xfc>
      a0: f9000bff     	str	xzr, [sp, #16]
      a4: 90000008     	adrp	x8, 0x0 <ltmp0+0xa4>
      a8: 91000108     	add	x8, x8, #0
      ac: 3dc00100     	ldr	q0, [x8]
      b0: 3d8003e0     	str	q0, [sp]
      b4: f94002a8     	ldr	x8, [x21]
      b8: b40000a8     	cbz	x8, 0xcc <ltmp0+0xcc>
      bc: d37df101     	lsl	x1, x8, #3
      c0: aa1703e0     	mov	x0, x23
      c4: 52800102     	mov	w2, #8
      c8: 94000000     	bl	0xc8 <ltmp0+0xc8>
      cc: aa1303f5     	mov	x21, x19
      d0: f9400268     	ldr	x8, [x19]
      d4: b5000348     	cbnz	x8, 0x13c <ltmp0+0x13c>
      d8: 1400001d     	b	0x14c <ltmp0+0x14c>
      dc: 34fffd48     	cbz	w8, 0x84 <ltmp0+0x84>
      e0: 5280001a     	mov	w26, #0
      e4: 52800059     	mov	w25, #2
      e8: f9400a61     	ldr	x1, [x19, #16]
      ec: a940e2b7     	ldp	x23, x24, [x21, #8]
      f0: f100003f     	cmp	x1, #0
      f4: fa401b04     	ccmp	x24, #0, #4, ne
      f8: 54fffd40     	b.eq	0xa0 <ltmp0+0xa0>
      fc: f9400676     	ldr	x22, [x19, #8]
     100: f100071f     	cmp	x24, #1
     104: 540005c1     	b.ne	0x1bc <ltmp0+0x1bc>
     108: f94002e1     	ldr	x1, [x23]
     10c: 3dc00260     	ldr	q0, [x19]
     110: 3d800be0     	str	q0, [sp, #32]
     114: f9400a68     	ldr	x8, [x19, #16]
     118: f9001be8     	str	x8, [sp, #48]
     11c: 910083e0     	add	x0, sp, #32
     120: 94000000     	bl	0x120 <ltmp0+0x120>
     124: 3dc00be0     	ldr	q0, [sp, #32]
     128: 3d8003e0     	str	q0, [sp]
     12c: f9401be8     	ldr	x8, [sp, #48]
     130: f9000be8     	str	x8, [sp, #16]
     134: f94002a8     	ldr	x8, [x21]
     138: b40000a8     	cbz	x8, 0x14c <ltmp0+0x14c>
     13c: f94006a0     	ldr	x0, [x21, #8]
     140: d37df101     	lsl	x1, x8, #3
     144: 52800102     	mov	w2, #8
     148: 94000000     	bl	0x148 <ltmp0+0x148>
     14c: 360001ba     	tbz	w26, #0, 0x180 <ltmp0+0x180>
     150: f9000bff     	str	xzr, [sp, #16]
     154: f94003e8     	ldr	x8, [sp]
     158: f100111f     	cmp	x8, #4
     15c: 540000e3     	b.lo	0x178 <ltmp0+0x178>
     160: d37df101     	lsl	x1, x8, #3
     164: f94007e0     	ldr	x0, [sp, #8]
     168: 52800113     	mov	w19, #8
     16c: 52800102     	mov	w2, #8
     170: 94000000     	bl	0x170 <ltmp0+0x170>
     174: a9004fff     	stp	xzr, x19, [sp]
     178: 52800028     	mov	w8, #1
     17c: 14000004     	b	0x18c <ltmp0+0x18c>
     180: f9400be8     	ldr	x8, [sp, #16]
     184: f100011f     	cmp	x8, #0
     188: 1a9f1728     	csinc	w8, w25, wzr, ne
     18c: 3dc003e0     	ldr	q0, [sp]
     190: 3d800280     	str	q0, [x20]
     194: f9400be9     	ldr	x9, [sp, #16]
     198: f9000a89     	str	x9, [x20, #16]
     19c: 39006288     	strb	w8, [x20, #24]
     1a0: a9487bfd     	ldp	x29, x30, [sp, #128]
     1a4: a9474ff4     	ldp	x20, x19, [sp, #112]
     1a8: a94657f6     	ldp	x22, x21, [sp, #96]
     1ac: a9455ff8     	ldp	x24, x23, [sp, #80]
     1b0: a94467fa     	ldp	x26, x25, [sp, #64]
     1b4: 910243ff     	add	sp, sp, #144
     1b8: d65f03c0     	ret
     1bc: f100043f     	cmp	x1, #1
     1c0: 54000201     	b.ne	0x200 <ltmp0+0x200>
     1c4: f94002c1     	ldr	x1, [x22]
     1c8: 3dc002a0     	ldr	q0, [x21]
     1cc: 3d800be0     	str	q0, [sp, #32]
     1d0: f9400aa8     	ldr	x8, [x21, #16]
     1d4: f9001be8     	str	x8, [sp, #48]
     1d8: 910083e0     	add	x0, sp, #32
     1dc: 94000000     	bl	0x1dc <ltmp0+0x1dc>
     1e0: 3dc00be0     	ldr	q0, [sp, #32]
     1e4: 3d8003e0     	str	q0, [sp]
     1e8: f9401be8     	ldr	x8, [sp, #48]
     1ec: f9000be8     	str	x8, [sp, #16]
     1f0: aa1303f5     	mov	x21, x19
     1f4: f9400268     	ldr	x8, [x19]
     1f8: b5fffa28     	cbnz	x8, 0x13c <ltmp0+0x13c>
     1fc: 17ffffd4     	b	0x14c <ltmp0+0x14c>
     200: 910003e8     	mov	x8, sp
     204: aa1603e0     	mov	x0, x22
     208: aa1703e2     	mov	x2, x23
     20c: aa1803e3     	mov	x3, x24
     210: 94000000     	bl	0x210 <ltmp0+0x210>
     214: 17ffffa8     	b	0xb4 <ltmp0+0xb4>
     218: aa0003f4     	mov	x20, x0
     21c: f94002a8     	ldr	x8, [x21]
     220: b40001e8     	cbz	x8, 0x25c <ltmp0+0x25c>
     224: 14000017     	b	0x280 <ltmp0+0x280>
     228: aa0003f4     	mov	x20, x0
     22c: f94013e8     	ldr	x8, [sp, #32]
     230: b4000348     	cbz	x8, 0x298 <ltmp0+0x298>
     234: f94017e0     	ldr	x0, [sp, #40]
     238: d37df101     	lsl	x1, x8, #3
     23c: 52800102     	mov	w2, #8
     240: 94000000     	bl	0x240 <ltmp0+0x240>
     244: 14000015     	b	0x298 <ltmp0+0x298>
     248: aa0003f4     	mov	x20, x0
     24c: f94013e8     	ldr	x8, [sp, #32]
     250: b50000c8     	cbnz	x8, 0x268 <ltmp0+0x268>
     254: f94002a8     	ldr	x8, [x21]
     258: b5000148     	cbnz	x8, 0x280 <ltmp0+0x280>
     25c: f100071f     	cmp	x24, #1
     260: 540001c1     	b.ne	0x298 <ltmp0+0x298>
     264: 14000013     	b	0x2b0 <ltmp0+0x2b0>
     268: f94017e0     	ldr	x0, [sp, #40]
     26c: d37df101     	lsl	x1, x8, #3
     270: 52800102     	mov	w2, #8
     274: 94000000     	bl	0x274 <ltmp0+0x274>
     278: f94002a8     	ldr	x8, [x21]
     27c: b4ffff08     	cbz	x8, 0x25c <ltmp0+0x25c>
     280: d37df101     	lsl	x1, x8, #3
     284: aa1703e0     	mov	x0, x23
     288: 52800102     	mov	w2, #8
     28c: 94000000     	bl	0x28c <ltmp0+0x28c>
     290: f100071f     	cmp	x24, #1
     294: 540000e0     	b.eq	0x2b0 <ltmp0+0x2b0>
     298: f9400268     	ldr	x8, [x19]
     29c: b40000a8     	cbz	x8, 0x2b0 <ltmp0+0x2b0>
     2a0: d37df101     	lsl	x1, x8, #3
     2a4: aa1603e0     	mov	x0, x22
